(lp1
cpandas.core.indexes.base
_new_Index
p2
(cpandas.core.indexes.base
Index
p3
(dp4
S'data'
p5
cnumpy.core.multiarray
_reconstruct
p6
(cnumpy
ndarray
p7
(I0
tS'b'
tRp8
(I1
(I1
tcnumpy
dtype
p9
(S'O8'
I0
I1
tRp10
(I3
S'|'
NNNI-1
I-1
I63
tbI00
(lp11
S'FIM (012'
p12
atbsS'name'
p13
NstRp14
ag2
(g3
(dp15
g5
g6
(g7
(I0
tS'b'
tRp16
(I1
(I1
tg10
I00
(lp17
S'FIM (SUB6'
p18
atbsg13
NstRp19
ag2
(g3
(dp20
g5
g6
(g7
(I0
tS'b'
tRp21
(I1
(I1
tg10
I00
(lp22
g12
atbsg13
NstRp23
ag2
(g3
(dp24
g5
g6
(g7
(I0
tS'b'
tRp25
(I1
(I1
tg10
I00
(lp26
g12
atbsg13
NstRp27
ag2
(g3
(dp28
g5
g6
(g7
(I0
tS'b'
tRp29
(I1
(I1
tg10
I00
(lp30
g12
atbsg13
NstRp31
ag2
(g3
(dp32
g5
g6
(g7
(I0
tS'b'
tRp33
(I1
(I1
tg10
I00
(lp34
g12
atbsg13
NstRp35
ag2
(g3
(dp36
g5
g6
(g7
(I0
tS'b'
tRp37
(I1
(I1
tg10
I00
(lp38
g12
atbsg13
NstRp39
ag2
(g3
(dp40
g5
g6
(g7
(I0
tS'b'
tRp41
(I1
(I1
tg10
I00
(lp42
g18
atbsg13
NstRp43
ag2
(g3
(dp44
g5
g6
(g7
(I0
tS'b'
tRp45
(I1
(I1
tg10
I00
(lp46
g12
atbsg13
NstRp47
ag2
(g3
(dp48
g5
g6
(g7
(I0
tS'b'
tRp49
(I1
(I1
tg10
I00
(lp50
g18
atbsg13
NstRp51
ag2
(g3
(dp52
g5
g6
(g7
(I0
tS'b'
tRp53
(I1
(I1
tg10
I00
(lp54
g12
atbsg13
NstRp55
ag2
(g3
(dp56
g5
g6
(g7
(I0
tS'b'
tRp57
(I1
(I1
tg10
I00
(lp58
g12
atbsg13
NstRp59
ag2
(g3
(dp60
g5
g6
(g7
(I0
tS'b'
tRp61
(I1
(I1
tg10
I00
(lp62
g12
atbsg13
NstRp63
ag2
(g3
(dp64
g5
g6
(g7
(I0
tS'b'
tRp65
(I1
(I1
tg10
I00
(lp66
g12
atbsg13
NstRp67
ag2
(g3
(dp68
g5
g6
(g7
(I0
tS'b'
tRp69
(I1
(I1
tg10
I00
(lp70
g12
atbsg13
NstRp71
ag2
(g3
(dp72
g5
g6
(g7
(I0
tS'b'
tRp73
(I1
(I1
tg10
I00
(lp74
g12
atbsg13
NstRp75
ag2
(g3
(dp76
g5
g6
(g7
(I0
tS'b'
tRp77
(I1
(I1
tg10
I00
(lp78
g18
atbsg13
NstRp79
ag2
(g3
(dp80
g5
g6
(g7
(I0
tS'b'
tRp81
(I1
(I1
tg10
I00
(lp82
g12
atbsg13
NstRp83
ag2
(g3
(dp84
g5
g6
(g7
(I0
tS'b'
tRp85
(I1
(I1
tg10
I00
(lp86
g12
atbsg13
NstRp87
ag2
(g3
(dp88
g5
g6
(g7
(I0
tS'b'
tRp89
(I1
(I1
tg10
I00
(lp90
g12
atbsg13
NstRp91
ag2
(g3
(dp92
g5
g6
(g7
(I0
tS'b'
tRp93
(I1
(I1
tg10
I00
(lp94
g18
atbsg13
NstRp95
ag2
(g3
(dp96
g5
g6
(g7
(I0
tS'b'
tRp97
(I1
(I1
tg10
I00
(lp98
g12
atbsg13
NstRp99
ag2
(g3
(dp100
g5
g6
(g7
(I0
tS'b'
tRp101
(I1
(I1
tg10
I00
(lp102
g12
atbsg13
NstRp103
ag2
(g3
(dp104
g5
g6
(g7
(I0
tS'b'
tRp105
(I1
(I1
tg10
I00
(lp106
g12
atbsg13
NstRp107
ag2
(g3
(dp108
g5
g6
(g7
(I0
tS'b'
tRp109
(I1
(I1
tg10
I00
(lp110
g18
atbsg13
NstRp111
ag2
(g3
(dp112
g5
g6
(g7
(I0
tS'b'
tRp113
(I1
(I1
tg10
I00
(lp114
g12
atbsg13
NstRp115
ag2
(g3
(dp116
g5
g6
(g7
(I0
tS'b'
tRp117
(I1
(I1
tg10
I00
(lp118
g12
atbsg13
NstRp119
ag2
(g3
(dp120
g5
g6
(g7
(I0
tS'b'
tRp121
(I1
(I1
tg10
I00
(lp122
g12
atbsg13
NstRp123
ag2
(g3
(dp124
g5
g6
(g7
(I0
tS'b'
tRp125
(I1
(I1
tg10
I00
(lp126
g12
atbsg13
NstRp127
ag2
(g3
(dp128
g5
g6
(g7
(I0
tS'b'
tRp129
(I1
(I1
tg10
I00
(lp130
g12
atbsg13
NstRp131
ag2
(g3
(dp132
g5
g6
(g7
(I0
tS'b'
tRp133
(I1
(I1
tg10
I00
(lp134
g12
atbsg13
NstRp135
ag2
(g3
(dp136
g5
g6
(g7
(I0
tS'b'
tRp137
(I1
(I1
tg10
I00
(lp138
g12
atbsg13
NstRp139
ag2
(g3
(dp140
g5
g6
(g7
(I0
tS'b'
tRp141
(I1
(I1
tg10
I00
(lp142
g12
atbsg13
NstRp143
ag2
(g3
(dp144
g5
g6
(g7
(I0
tS'b'
tRp145
(I1
(I1
tg10
I00
(lp146
g12
atbsg13
NstRp147
ag2
(g3
(dp148
g5
g6
(g7
(I0
tS'b'
tRp149
(I1
(I1
tg10
I00
(lp150
g18
atbsg13
NstRp151
ag2
(g3
(dp152
g5
g6
(g7
(I0
tS'b'
tRp153
(I1
(I1
tg10
I00
(lp154
g12
atbsg13
NstRp155
ag2
(g3
(dp156
g5
g6
(g7
(I0
tS'b'
tRp157
(I1
(I1
tg10
I00
(lp158
g12
atbsg13
NstRp159
ag2
(g3
(dp160
g5
g6
(g7
(I0
tS'b'
tRp161
(I1
(I1
tg10
I00
(lp162
g12
atbsg13
NstRp163
ag2
(g3
(dp164
g5
g6
(g7
(I0
tS'b'
tRp165
(I1
(I1
tg10
I00
(lp166
g18
atbsg13
NstRp167
ag2
(g3
(dp168
g5
g6
(g7
(I0
tS'b'
tRp169
(I1
(I1
tg10
I00
(lp170
g12
atbsg13
NstRp171
ag2
(g3
(dp172
g5
g6
(g7
(I0
tS'b'
tRp173
(I1
(I1
tg10
I00
(lp174
g12
atbsg13
NstRp175
ag2
(g3
(dp176
g5
g6
(g7
(I0
tS'b'
tRp177
(I1
(I1
tg10
I00
(lp178
g18
atbsg13
NstRp179
ag2
(g3
(dp180
g5
g6
(g7
(I0
tS'b'
tRp181
(I1
(I1
tg10
I00
(lp182
g18
atbsg13
NstRp183
ag2
(g3
(dp184
g5
g6
(g7
(I0
tS'b'
tRp185
(I1
(I1
tg10
I00
(lp186
g18
atbsg13
NstRp187
ag2
(g3
(dp188
g5
g6
(g7
(I0
tS'b'
tRp189
(I1
(I1
tg10
I00
(lp190
g18
atbsg13
NstRp191
ag2
(g3
(dp192
g5
g6
(g7
(I0
tS'b'
tRp193
(I1
(I1
tg10
I00
(lp194
g12
atbsg13
NstRp195
ag2
(g3
(dp196
g5
g6
(g7
(I0
tS'b'
tRp197
(I1
(I1
tg10
I00
(lp198
g12
atbsg13
NstRp199
ag2
(g3
(dp200
g5
g6
(g7
(I0
tS'b'
tRp201
(I1
(I1
tg10
I00
(lp202
g18
atbsg13
NstRp203
ag2
(g3
(dp204
g5
g6
(g7
(I0
tS'b'
tRp205
(I1
(I1
tg10
I00
(lp206
g12
atbsg13
NstRp207
ag2
(g3
(dp208
g5
g6
(g7
(I0
tS'b'
tRp209
(I1
(I1
tg10
I00
(lp210
g12
atbsg13
NstRp211
ag2
(g3
(dp212
g5
g6
(g7
(I0
tS'b'
tRp213
(I1
(I1
tg10
I00
(lp214
g12
atbsg13
NstRp215
ag2
(g3
(dp216
g5
g6
(g7
(I0
tS'b'
tRp217
(I1
(I1
tg10
I00
(lp218
g12
atbsg13
NstRp219
ag2
(g3
(dp220
g5
g6
(g7
(I0
tS'b'
tRp221
(I1
(I1
tg10
I00
(lp222
g12
atbsg13
NstRp223
ag2
(g3
(dp224
g5
g6
(g7
(I0
tS'b'
tRp225
(I1
(I1
tg10
I00
(lp226
g12
atbsg13
NstRp227
ag2
(g3
(dp228
g5
g6
(g7
(I0
tS'b'
tRp229
(I1
(I1
tg10
I00
(lp230
g18
atbsg13
NstRp231
ag2
(g3
(dp232
g5
g6
(g7
(I0
tS'b'
tRp233
(I1
(I1
tg10
I00
(lp234
g12
atbsg13
NstRp235
ag2
(g3
(dp236
g5
g6
(g7
(I0
tS'b'
tRp237
(I1
(I1
tg10
I00
(lp238
g18
atbsg13
NstRp239
ag2
(g3
(dp240
g5
g6
(g7
(I0
tS'b'
tRp241
(I1
(I1
tg10
I00
(lp242
g18
atbsg13
NstRp243
ag2
(g3
(dp244
g5
g6
(g7
(I0
tS'b'
tRp245
(I1
(I1
tg10
I00
(lp246
g12
atbsg13
NstRp247
ag2
(g3
(dp248
g5
g6
(g7
(I0
tS'b'
tRp249
(I1
(I1
tg10
I00
(lp250
g12
atbsg13
NstRp251
ag2
(g3
(dp252
g5
g6
(g7
(I0
tS'b'
tRp253
(I1
(I1
tg10
I00
(lp254
g12
atbsg13
NstRp255
ag2
(g3
(dp256
g5
g6
(g7
(I0
tS'b'
tRp257
(I1
(I1
tg10
I00
(lp258
g12
atbsg13
NstRp259
ag2
(g3
(dp260
g5
g6
(g7
(I0
tS'b'
tRp261
(I1
(I1
tg10
I00
(lp262
g12
atbsg13
NstRp263
ag2
(g3
(dp264
g5
g6
(g7
(I0
tS'b'
tRp265
(I1
(I1
tg10
I00
(lp266
g12
atbsg13
NstRp267
ag2
(g3
(dp268
g5
g6
(g7
(I0
tS'b'
tRp269
(I1
(I1
tg10
I00
(lp270
g12
atbsg13
NstRp271
ag2
(g3
(dp272
g5
g6
(g7
(I0
tS'b'
tRp273
(I1
(I1
tg10
I00
(lp274
g12
atbsg13
NstRp275
ag2
(g3
(dp276
g5
g6
(g7
(I0
tS'b'
tRp277
(I1
(I1
tg10
I00
(lp278
g12
atbsg13
NstRp279
ag2
(g3
(dp280
g5
g6
(g7
(I0
tS'b'
tRp281
(I1
(I1
tg10
I00
(lp282
g12
atbsg13
NstRp283
ag2
(g3
(dp284
g5
g6
(g7
(I0
tS'b'
tRp285
(I1
(I1
tg10
I00
(lp286
g12
atbsg13
NstRp287
ag2
(g3
(dp288
g5
g6
(g7
(I0
tS'b'
tRp289
(I1
(I1
tg10
I00
(lp290
g12
atbsg13
NstRp291
ag2
(g3
(dp292
g5
g6
(g7
(I0
tS'b'
tRp293
(I1
(I1
tg10
I00
(lp294
g12
atbsg13
NstRp295
ag2
(g3
(dp296
g5
g6
(g7
(I0
tS'b'
tRp297
(I1
(I1
tg10
I00
(lp298
g12
atbsg13
NstRp299
ag2
(g3
(dp300
g5
g6
(g7
(I0
tS'b'
tRp301
(I1
(I1
tg10
I00
(lp302
g12
atbsg13
NstRp303
ag2
(g3
(dp304
g5
g6
(g7
(I0
tS'b'
tRp305
(I1
(I1
tg10
I00
(lp306
g18
atbsg13
NstRp307
ag2
(g3
(dp308
g5
g6
(g7
(I0
tS'b'
tRp309
(I1
(I1
tg10
I00
(lp310
g12
atbsg13
NstRp311
ag2
(g3
(dp312
g5
g6
(g7
(I0
tS'b'
tRp313
(I1
(I1
tg10
I00
(lp314
g12
atbsg13
NstRp315
ag2
(g3
(dp316
g5
g6
(g7
(I0
tS'b'
tRp317
(I1
(I1
tg10
I00
(lp318
g18
atbsg13
NstRp319
ag2
(g3
(dp320
g5
g6
(g7
(I0
tS'b'
tRp321
(I1
(I1
tg10
I00
(lp322
g12
atbsg13
NstRp323
ag2
(g3
(dp324
g5
g6
(g7
(I0
tS'b'
tRp325
(I1
(I1
tg10
I00
(lp326
g12
atbsg13
NstRp327
ag2
(g3
(dp328
g5
g6
(g7
(I0
tS'b'
tRp329
(I1
(I1
tg10
I00
(lp330
g12
atbsg13
NstRp331
ag2
(g3
(dp332
g5
g6
(g7
(I0
tS'b'
tRp333
(I1
(I1
tg10
I00
(lp334
g18
atbsg13
NstRp335
ag2
(g3
(dp336
g5
g6
(g7
(I0
tS'b'
tRp337
(I1
(I1
tg10
I00
(lp338
g12
atbsg13
NstRp339
ag2
(g3
(dp340
g5
g6
(g7
(I0
tS'b'
tRp341
(I1
(I1
tg10
I00
(lp342
g18
atbsg13
NstRp343
ag2
(g3
(dp344
g5
g6
(g7
(I0
tS'b'
tRp345
(I1
(I1
tg10
I00
(lp346
g12
atbsg13
NstRp347
ag2
(g3
(dp348
g5
g6
(g7
(I0
tS'b'
tRp349
(I1
(I1
tg10
I00
(lp350
g18
atbsg13
NstRp351
ag2
(g3
(dp352
g5
g6
(g7
(I0
tS'b'
tRp353
(I1
(I1
tg10
I00
(lp354
g18
atbsg13
NstRp355
ag2
(g3
(dp356
g5
g6
(g7
(I0
tS'b'
tRp357
(I1
(I1
tg10
I00
(lp358
g18
atbsg13
NstRp359
ag2
(g3
(dp360
g5
g6
(g7
(I0
tS'b'
tRp361
(I1
(I1
tg10
I00
(lp362
g12
atbsg13
NstRp363
ag2
(g3
(dp364
g5
g6
(g7
(I0
tS'b'
tRp365
(I1
(I1
tg10
I00
(lp366
g12
atbsg13
NstRp367
ag2
(g3
(dp368
g5
g6
(g7
(I0
tS'b'
tRp369
(I1
(I1
tg10
I00
(lp370
g18
atbsg13
NstRp371
ag2
(g3
(dp372
g5
g6
(g7
(I0
tS'b'
tRp373
(I1
(I1
tg10
I00
(lp374
g12
atbsg13
NstRp375
ag2
(g3
(dp376
g5
g6
(g7
(I0
tS'b'
tRp377
(I1
(I1
tg10
I00
(lp378
g12
atbsg13
NstRp379
ag2
(g3
(dp380
g5
g6
(g7
(I0
tS'b'
tRp381
(I1
(I1
tg10
I00
(lp382
g12
atbsg13
NstRp383
ag2
(g3
(dp384
g5
g6
(g7
(I0
tS'b'
tRp385
(I1
(I1
tg10
I00
(lp386
g12
atbsg13
NstRp387
ag2
(g3
(dp388
g5
g6
(g7
(I0
tS'b'
tRp389
(I1
(I1
tg10
I00
(lp390
g18
atbsg13
NstRp391
ag2
(g3
(dp392
g5
g6
(g7
(I0
tS'b'
tRp393
(I1
(I1
tg10
I00
(lp394
g12
atbsg13
NstRp395
ag2
(g3
(dp396
g5
g6
(g7
(I0
tS'b'
tRp397
(I1
(I1
tg10
I00
(lp398
g18
atbsg13
NstRp399
ag2
(g3
(dp400
g5
g6
(g7
(I0
tS'b'
tRp401
(I1
(I1
tg10
I00
(lp402
g12
atbsg13
NstRp403
ag2
(g3
(dp404
g5
g6
(g7
(I0
tS'b'
tRp405
(I1
(I1
tg10
I00
(lp406
g12
atbsg13
NstRp407
ag2
(g3
(dp408
g5
g6
(g7
(I0
tS'b'
tRp409
(I1
(I1
tg10
I00
(lp410
g12
atbsg13
NstRp411
a.