(lp1
cpandas.core.indexes.base
_new_Index
p2
(cpandas.core.indexes.base
Index
p3
(dp4
S'data'
p5
cnumpy.core.multiarray
_reconstruct
p6
(cnumpy
ndarray
p7
(I0
tS'b'
tRp8
(I1
(I83
tcnumpy
dtype
p9
(S'O8'
I0
I1
tRp10
(I3
S'|'
NNNI-1
I-1
I63
tbI00
(lp11
S'ABILH002'
p12
aS'ABILH004'
p13
aS'ABILH005'
p14
aS'ABILH007'
p15
aS'ABILH009'
p16
aS'ABILH011'
p17
aS'ABILH012'
p18
aS'ABILH015'
p19
aS'ABILH017'
p20
aS'ABILH018'
p21
aS'ABILH019'
p22
aS'ABILH020'
p23
aS'ABILH021'
p24
aS'FIM (003'
p25
aS'FIM (006'
p26
aS'FIM (008'
p27
aS'FIM (010'
p28
aS'FIM (011'
p29
aS'FIM (012'
p30
aS'FIM (014'
p31
aS'FIM (016'
p32
aS'FIM (017'
p33
aS'FIM (019'
p34
aS'FIM (SUB3'
p35
aS'FIM (SUB5'
p36
aS'HADS 001'
p37
aS'HADS 002'
p38
aS'HADS 003'
p39
aS'HADS 004'
p40
aS'HADS 005'
p41
aS'HADS 007'
p42
aS'HADS 010'
p43
aS'HADS 012'
p44
aS'HADS 013'
p45
aS'HADS 014'
p46
aS'HEIG'
p47
aS'LIFE 001'
p48
aS'LIFE 002'
p49
aS'LIFE 004'
p50
aS'LIFE 005'
p51
aS'LIFE 007'
p52
aS'LIFE 010'
p53
aS'LIFE 011'
p54
aS'MFIS 001'
p55
aS'MFIS 002'
p56
aS'MFIS 003'
p57
aS'MFIS 006'
p58
aS'MFIS 008'
p59
aS'MFIS 009'
p60
aS'MFIS 010'
p61
aS'MFIS 012'
p62
aS'MFIS 014'
p63
aS'MFIS 015'
p64
aS'MFIS 017'
p65
aS'MFIS 019'
p66
aS'MFIS 021'
p67
aS'MOCA 001'
p68
aS'MOCA 005'
p69
aS'MOCA 008'
p70
aS'MOCA 009'
p71
aS'MOCA 010'
p72
aS'MOCA 011'
p73
aS'OAB-Q004'
p74
aS'OAB-Q005'
p75
aS'OAB-Q006'
p76
aS'OAB-Q007'
p77
aS'OAB-Q008'
p78
aS'RELAPS'
p79
aS'SDMT TOT'
p80
aS'WEIG'
p81
aS'EDINB001_1'
p82
aS'EDINB001_2'
p83
aS'EDINB002_0'
p84
aS'EDINB003_0'
p85
aS'EDINB003_2'
p86
aS'EDINB004_0'
p87
aS'EDINB004_1'
p88
aS'EDINB006_0'
p89
aS'EDINB007_0'
p90
aS'EDINB008_0'
p91
aS'EDINB008_1'
p92
aS'EDINB010_0'
p93
aS'EDINB010_1'
p94
atbsS'name'
p95
NstRp96
ag2
(g3
(dp97
g5
g6
(g7
(I0
tS'b'
tRp98
(I1
(I56
tg10
I00
(lp99
S'ABILH006'
p100
ag16
ag17
ag18
ag21
ag22
ag23
ag24
aS'ABILH022'
p101
ag27
ag29
ag30
ag31
ag32
ag33
ag36
ag37
ag38
ag40
ag41
ag42
aS'HADS 009'
p102
ag44
ag45
ag46
ag47
ag48
aS'LIFE 003'
p103
ag50
ag53
ag54
ag56
ag57
ag58
ag60
ag62
ag63
ag66
ag68
ag69
aS'MOCA 006'
p104
aS'MOCA 007'
p105
ag71
ag72
ag73
ag74
ag76
ag77
ag79
ag80
ag81
ag82
ag84
aS'EDINB006_2'
p106
ag90
ag93
atbsg95
NstRp107
ag2
(g3
(dp108
g5
g6
(g7
(I0
tS'b'
tRp109
(I1
(I67
tg10
I00
(lp110
g100
aS'ABILH008'
p111
ag16
ag18
ag21
ag23
ag24
ag25
ag27
ag28
ag29
ag30
ag31
ag32
ag33
ag35
ag36
ag38
ag41
ag42
aS'HADS 008'
p112
ag43
ag44
ag45
ag46
ag47
ag48
ag49
ag50
aS'LIFE 006'
p113
ag52
aS'LIFE 009'
p114
ag53
ag54
ag55
ag56
ag57
ag58
ag61
ag63
ag66
ag67
ag68
aS'MOCA 004'
p115
ag69
ag104
ag105
ag71
ag72
ag73
ag74
ag75
ag78
aS'PASATTOT'
p116
ag79
ag80
ag81
ag83
ag84
aS'EDINB003_1'
p117
ag86
aS'EDINB005_1'
p118
ag89
ag106
ag90
ag92
aS'EDINB009_0'
p119
atbsg95
NstRp120
ag2
(g3
(dp121
g5
g6
(g7
(I0
tS'b'
tRp122
(I1
(I47
tg10
I00
(lp123
g15
ag16
ag18
ag20
ag21
ag23
ag27
ag29
ag30
ag31
ag32
ag33
ag36
ag38
ag41
ag42
ag44
ag45
ag46
ag47
ag48
ag50
ag51
ag53
ag55
ag56
ag57
ag58
ag60
ag61
ag63
ag66
ag115
ag69
ag105
ag73
ag74
ag75
ag80
ag81
aS'EDINB001_0'
p124
ag82
ag84
ag85
aS'EDINB004_2'
p125
ag89
ag91
atbsg95
NstRp126
ag2
(g3
(dp127
g5
g6
(g7
(I0
tS'b'
tRp128
(I1
(I59
tg10
I00
(lp129
g15
ag111
ag16
ag17
ag18
ag21
ag22
ag23
ag24
ag25
ag27
ag28
ag29
ag30
ag32
ag33
ag36
ag38
ag41
aS'HADS 006'
p130
ag42
ag44
ag45
ag47
ag49
ag50
ag53
ag54
ag56
ag57
aS'MFIS 005'
p131
ag58
ag59
ag60
ag61
ag63
ag66
aS'MFIS 020'
p132
aS'MOCA 003'
p133
ag69
ag104
ag105
ag71
ag72
ag73
ag74
ag75
ag76
ag116
ag79
ag80
ag81
ag82
ag83
ag86
ag87
ag106
ag91
ag92
atbsg95
NstRp134
ag2
(g3
(dp135
g5
g6
(g7
(I0
tS'b'
tRp136
(I1
(I73
tg10
I00
(lp137
g13
ag111
ag16
aS'ABILH010'
p138
ag17
ag18
ag20
ag21
ag22
ag23
ag24
ag25
ag26
ag27
ag28
ag29
ag30
ag31
aS'FIM (015'
p139
ag32
ag33
ag34
ag35
ag36
ag37
ag38
ag41
ag130
ag42
ag112
ag44
ag45
ag46
ag47
ag48
ag50
ag52
ag114
ag53
ag54
ag56
ag57
aS'MFIS 007'
p140
ag60
ag61
ag63
aS'MFIS 016'
p141
ag66
ag67
ag68
ag104
ag105
ag71
ag73
ag74
ag75
ag76
ag77
ag116
ag80
ag81
ag124
ag83
ag84
ag85
ag86
ag88
ag125
aS'EDINB005_2'
p142
ag89
ag106
ag90
ag92
atbsg95
NstRp143
ag2
(g3
(dp144
g5
g6
(g7
(I0
tS'b'
tRp145
(I1
(I95
tg10
I00
(lp146
g12
aS'ABILH003'
p147
ag13
ag100
ag15
ag16
ag17
ag18
aS'ABILH014'
p148
ag20
ag21
ag22
ag23
ag24
ag101
aS'ABILH023'
p149
aS'FIM (002'
p150
ag25
ag26
ag27
ag28
ag29
ag30
aS'FIM (013'
p151
ag31
ag139
ag32
ag33
ag34
ag35
ag37
ag38
ag39
ag41
ag42
ag112
ag102
ag44
ag45
ag46
ag47
aS'ISTRU'
p152
ag48
ag49
ag50
ag51
ag52
aS'LIFE 008'
p153
ag53
ag54
ag55
ag56
ag57
ag58
ag59
ag60
ag61
aS'MFIS 013'
p154
ag63
ag64
ag141
ag66
ag68
aS'MOCA 002'
p155
ag133
ag115
ag69
ag104
ag105
ag71
ag72
ag73
aS'OAB-Q001'
p156
aS'OAB-Q002'
p157
aS'OAB-Q003'
p158
ag74
ag75
ag116
ag79
ag80
ag81
ag82
ag83
ag84
aS'EDINB002_2'
p159
ag86
ag88
ag125
aS'EDINB005_0'
p160
ag89
ag106
aS'EDINB007_1'
p161
ag91
ag92
ag93
atbsg95
NstRp162
ag2
(g3
(dp163
g5
g6
(g7
(I0
tS'b'
tRp164
(I1
(I52
tg10
I00
(lp165
g16
ag18
ag21
ag22
ag23
ag27
ag29
ag30
ag31
ag32
ag33
ag36
ag38
ag41
ag42
ag43
ag45
ag47
ag48
ag49
ag52
ag53
ag54
ag55
ag56
ag57
ag131
ag58
ag60
ag63
ag65
ag66
ag68
ag69
ag70
ag71
ag73
ag74
ag76
ag79
ag80
ag81
ag124
ag82
ag84
ag85
ag86
ag88
ag160
ag106
ag91
ag92
atbsg95
NstRp166
ag2
(g3
(dp167
g5
g6
(g7
(I0
tS'b'
tRp168
(I1
(I60
tg10
I00
(lp169
g12
ag15
ag111
ag17
ag18
ag21
ag23
ag24
ag101
aS'FIM (004'
p170
ag27
ag28
ag29
ag30
ag32
ag33
ag36
ag38
ag39
ag41
ag130
ag42
ag44
ag45
ag46
ag47
ag152
ag49
ag50
ag53
ag54
aS'LIFE TOT'
p171
ag56
ag57
ag58
ag60
ag63
ag64
aS'MFIS 018'
p172
ag66
ag69
ag104
ag105
ag70
ag71
ag72
ag73
ag74
ag76
ag79
ag80
ag81
ag82
ag83
ag86
ag89
ag106
ag90
ag119
aS'EDINB010_2'
p173
atbsg95
NstRp174
ag2
(g3
(dp175
g5
g6
(g7
(I0
tS'b'
tRp176
(I1
(I92
tg10
I00
(lp177
g13
ag15
ag111
ag16
ag17
ag18
ag148
ag19
aS'ABILH016'
p178
ag20
ag21
ag23
ag24
ag101
ag150
ag25
ag170
ag26
ag27
ag28
ag29
ag30
ag32
ag33
ag34
ag36
ag37
ag38
ag39
ag41
ag130
ag42
ag112
ag44
ag45
ag46
ag47
ag152
ag48
ag49
ag50
ag51
ag113
ag52
ag114
ag53
ag54
ag55
ag56
ag57
aS'MFIS 004'
p179
ag131
ag59
ag61
ag62
ag154
ag63
ag64
ag141
ag65
ag172
ag66
ag68
ag155
ag133
ag115
ag69
ag104
ag105
ag70
ag71
ag72
ag73
ag156
ag157
ag74
ag75
ag76
ag116
ag79
ag80
ag83
ag84
ag86
ag87
ag88
ag142
aS'EDINB006_1'
p180
ag106
ag91
aS'EDINB008_2'
p181
ag93
atbsg95
NstRp182
ag2
(g3
(dp183
g5
g6
(g7
(I0
tS'b'
tRp184
(I1
(I82
tg10
I00
(lp185
S'ABILH001'
p186
ag12
ag100
ag15
ag111
ag16
ag18
ag178
ag20
ag21
ag22
ag23
ag24
ag101
ag26
ag27
ag28
ag29
ag30
ag139
ag32
ag33
ag36
ag37
ag38
ag39
ag41
ag42
ag112
ag43
ag44
ag45
ag46
ag47
ag49
ag50
ag51
ag52
ag153
ag114
ag53
ag54
ag55
ag56
ag57
ag58
ag140
ag60
ag61
ag154
ag63
ag64
ag65
ag66
ag68
ag133
ag115
ag69
ag104
ag105
ag71
ag72
ag73
ag156
ag157
ag74
ag76
ag77
ag80
ag81
ag82
ag83
ag84
ag117
ag86
ag87
ag88
ag180
ag106
ag90
ag119
ag94
atbsg95
NstRp187
ag2
(g3
(dp188
g5
g6
(g7
(I0
tS'b'
tRp189
(I1
(I57
tg10
I00
(lp190
g13
ag15
ag16
ag17
ag18
ag21
ag23
ag24
ag149
aS'FIM (001'
p191
ag25
ag27
ag29
ag30
ag32
ag33
ag36
ag38
ag41
ag130
ag42
ag43
ag44
ag45
ag47
ag152
ag103
ag50
ag53
ag54
ag55
ag56
ag57
ag58
ag60
ag61
ag63
ag65
ag66
ag67
ag69
ag104
ag71
ag72
ag73
ag74
ag75
ag76
ag79
ag80
ag81
ag82
ag83
ag84
ag85
ag180
ag92
atbsg95
NstRp192
ag2
(g3
(dp193
g5
g6
(g7
(I0
tS'b'
tRp194
(I1
(I40
tg10
I00
(lp195
g15
ag18
ag21
ag23
ag29
ag30
ag32
ag33
ag36
ag38
ag41
ag42
ag44
ag45
ag46
ag47
ag50
ag51
ag52
ag53
ag56
ag57
ag58
ag60
ag63
aS'MFIS SUB3'
p196
ag104
ag72
ag73
ag74
ag76
ag79
ag80
ag83
ag84
ag85
ag86
ag87
aS'EDINB007_2'
p197
ag93
atbsg95
NstRp198
ag2
(g3
(dp199
g5
g6
(g7
(I0
tS'b'
tRp200
(I1
(I62
tg10
I00
(lp201
g12
ag13
ag16
ag18
ag21
ag23
ag24
ag25
ag27
ag28
ag29
ag30
ag32
ag33
ag36
ag38
ag41
ag130
ag42
ag112
ag43
ag45
ag47
ag152
ag48
ag49
ag50
ag51
ag52
ag53
ag54
ag55
ag56
ag57
ag60
ag61
ag62
ag63
ag66
ag68
ag115
ag69
ag104
ag105
ag73
ag158
ag74
ag75
ag76
ag79
ag80
ag81
ag82
ag83
ag84
ag87
ag88
ag89
ag106
ag92
ag93
ag94
atbsg95
NstRp202
ag2
(g3
(dp203
g5
g6
(g7
(I0
tS'b'
tRp204
(I1
(I61
tg10
I00
(lp205
g12
ag13
ag17
ag18
ag20
ag21
ag22
ag23
ag24
ag25
ag27
ag28
ag29
ag30
ag139
ag32
ag33
ag36
ag38
ag39
ag42
ag44
ag46
ag47
ag48
ag50
ag51
ag113
ag114
ag53
ag54
ag55
ag56
ag57
ag58
ag60
ag61
ag63
ag65
ag67
ag68
ag133
ag69
ag104
ag105
ag71
ag72
ag73
ag74
ag75
ag76
ag77
ag78
ag80
ag82
ag83
ag84
ag85
ag88
ag106
ag119
atbsg95
NstRp206
ag2
(g3
(dp207
g5
g6
(g7
(I0
tS'b'
tRp208
(I1
(I46
tg10
I00
(lp209
g186
ag18
ag21
ag25
ag27
ag28
ag29
ag30
ag32
ag33
ag36
ag38
ag41
ag42
ag102
ag44
ag45
ag46
ag47
ag152
ag50
ag113
ag52
ag114
ag53
ag54
ag56
ag57
ag58
ag63
ag68
ag115
ag69
ag72
ag73
ag74
ag75
ag76
ag116
ag80
ag83
ag84
ag85
ag86
ag180
ag92
atbsg95
NstRp210
ag2
(g3
(dp211
g5
g6
(g7
(I0
tS'b'
tRp212
(I1
(I44
tg10
I00
(lp213
g15
ag18
ag21
ag25
ag29
ag30
ag31
ag33
ag36
ag38
ag41
ag42
ag44
ag45
ag47
ag50
ag52
ag53
ag54
ag55
ag56
ag57
ag58
ag60
ag63
ag66
ag67
ag69
ag72
ag73
ag75
ag76
ag77
ag78
ag116
ag79
ag80
ag81
ag83
ag84
ag85
ag86
ag89
ag106
atbsg95
NstRp214
ag2
(g3
(dp215
g5
g6
(g7
(I0
tS'b'
tRp216
(I1
(I43
tg10
I00
(lp217
g15
ag18
ag21
ag23
ag25
ag27
ag29
ag30
ag31
ag32
ag33
ag35
ag36
ag38
ag41
ag42
ag44
ag45
ag47
ag50
ag51
ag53
ag56
ag57
ag58
ag60
ag61
ag63
aS'MFIS SUB2'
p218
ag69
ag104
ag71
ag75
ag79
ag80
ag81
ag124
ag83
ag84
ag85
ag160
ag106
ag91
atbsg95
NstRp219
ag2
(g3
(dp220
g5
g6
(g7
(I0
tS'b'
tRp221
(I1
(I62
tg10
I00
(lp222
g186
ag15
ag16
ag17
ag18
ag21
ag24
ag101
ag25
ag27
ag28
ag29
ag30
ag32
ag33
ag36
ag37
ag38
ag41
ag130
ag42
ag44
ag45
ag46
ag47
ag50
ag51
ag113
ag53
ag54
ag55
ag56
ag58
ag60
ag61
ag63
ag141
ag66
ag132
ag68
ag133
ag115
ag69
ag105
ag71
ag72
ag73
ag158
ag74
ag75
ag79
ag80
ag81
ag82
ag83
ag84
ag117
ag86
ag125
ag106
ag91
ag92
atbsg95
NstRp223
ag2
(g3
(dp224
g5
g6
(g7
(I0
tS'b'
tRp225
(I1
(I80
tg10
I00
(lp226
g12
ag13
ag100
ag15
ag111
ag16
ag17
ag18
aS'ABILH013'
p227
ag20
ag21
ag23
ag24
ag149
ag150
ag25
ag170
ag26
ag27
ag28
ag29
ag30
ag32
ag33
ag35
ag36
ag37
ag38
ag40
ag41
ag42
ag112
ag102
ag44
ag45
ag46
ag47
ag49
ag50
ag51
ag113
ag52
ag153
ag53
ag54
ag55
ag56
ag57
ag179
ag58
ag60
ag62
ag63
ag67
ag68
ag115
ag69
ag105
ag71
ag72
ag73
ag157
ag158
ag74
ag75
ag78
ag79
ag80
ag81
ag124
ag83
ag84
ag117
ag86
ag87
ag88
ag89
ag106
ag91
ag119
atbsg95
NstRp228
ag2
(g3
(dp229
g5
g6
(g7
(I0
tS'b'
tRp230
(I1
(I60
tg10
I00
(lp231
g186
ag15
ag16
ag17
ag18
ag227
ag21
ag22
ag23
ag24
ag101
ag27
ag28
ag29
ag30
ag33
ag36
ag38
ag41
ag42
ag44
ag45
ag46
ag47
ag48
ag50
ag51
ag114
ag53
ag54
ag55
ag56
ag57
ag58
ag60
ag61
ag63
ag66
ag68
ag155
ag115
ag69
ag104
ag105
ag72
ag73
ag74
ag76
ag78
ag79
ag80
ag81
ag82
ag83
ag84
ag85
ag88
ag160
ag91
ag92
atbsg95
NstRp232
ag2
(g3
(dp233
g5
g6
(g7
(I0
tS'b'
tRp234
(I1
(I64
tg10
I00
(lp235
g100
ag15
ag16
ag138
ag17
ag18
ag21
ag22
ag23
ag24
ag25
ag27
ag29
ag30
ag31
ag32
ag33
ag35
ag36
ag38
ag41
ag42
ag112
ag44
ag45
ag46
ag47
ag48
ag49
ag50
ag51
ag52
ag153
ag114
ag53
ag54
ag55
ag56
ag57
ag58
ag60
ag63
ag64
ag65
ag66
ag67
ag69
ag71
ag73
ag157
ag75
ag76
ag78
ag116
ag79
ag80
ag81
ag82
ag83
ag84
ag85
ag86
ag87
ag106
atbsg95
NstRp236
ag2
(g3
(dp237
g5
g6
(g7
(I0
tS'b'
tRp238
(I1
(I59
tg10
I00
(lp239
g13
ag100
ag15
ag111
ag16
ag18
ag21
ag22
ag23
ag24
ag25
ag27
ag29
ag30
ag31
ag32
ag33
ag34
ag36
ag37
ag38
ag42
ag43
ag44
ag45
ag47
ag50
ag51
ag52
ag114
ag53
ag54
ag55
ag56
ag60
ag61
ag63
ag65
ag66
ag68
ag115
ag69
ag104
ag105
ag70
ag72
ag73
ag158
ag76
ag78
ag79
ag80
ag81
ag83
ag84
ag85
ag86
ag106
ag92
atbsg95
NstRp240
ag2
(g3
(dp241
g5
g6
(g7
(I0
tS'b'
tRp242
(I1
(I69
tg10
I00
(lp243
g100
ag15
ag16
ag18
ag227
ag20
ag21
ag23
ag24
ag101
ag170
ag27
ag28
ag29
ag30
ag32
ag33
ag36
ag38
ag41
ag42
ag43
ag45
ag46
aS'HADS SUB2'
p244
ag47
ag48
ag49
ag50
ag51
ag52
ag53
ag54
ag55
ag56
ag57
ag58
ag60
ag61
ag62
ag63
ag141
ag66
ag68
ag69
ag104
ag105
ag70
ag71
ag72
ag73
ag157
ag158
ag74
ag75
ag76
ag78
ag79
ag80
ag83
ag84
ag86
ag87
ag88
ag160
ag106
ag91
ag92
ag119
atbsg95
NstRp245
ag2
(g3
(dp246
g5
g6
(g7
(I0
tS'b'
tRp247
(I1
(I31
tg10
I00
(lp248
g18
ag21
ag29
ag30
ag33
ag36
ag41
ag42
ag112
ag44
ag47
ag152
ag50
ag53
ag54
ag55
ag56
ag57
ag58
ag60
ag63
ag66
ag218
ag73
ag75
ag76
ag116
ag79
ag80
ag84
ag85
atbsg95
NstRp249
ag2
(g3
(dp250
g5
g6
(g7
(I0
tS'b'
tRp251
(I1
(I51
tg10
I00
(lp252
g16
ag138
ag18
ag21
ag23
ag27
ag28
ag29
ag30
ag32
ag33
ag36
ag38
ag41
ag42
ag44
ag45
ag46
ag47
ag152
ag49
ag50
ag113
ag153
ag53
ag54
ag56
ag57
ag58
ag61
ag63
ag66
ag68
ag115
ag69
ag105
ag71
ag73
ag158
ag74
ag75
ag76
ag116
ag79
ag80
ag82
ag83
ag84
ag86
ag118
ag142
atbsg95
NstRp253
ag2
(g3
(dp254
g5
g6
(g7
(I0
tS'b'
tRp255
(I1
(I18
tg10
I00
(lp256
g15
ag18
ag21
ag29
ag30
ag36
ag42
ag45
ag50
ag53
ag56
ag58
ag60
ag61
ag218
ag73
ag80
ag83
atbsg95
NstRp257
ag2
(g3
(dp258
g5
g6
(g7
(I0
tS'b'
tRp259
(I1
(I34
tg10
I00
(lp260
g15
ag18
ag21
ag29
ag30
ag33
ag36
ag38
ag41
ag42
ag45
ag47
ag50
ag53
ag54
ag55
ag56
ag57
ag58
ag60
ag61
ag63
ag65
ag104
ag73
ag76
ag80
ag81
ag124
ag83
ag84
ag89
ag106
ag93
atbsg95
NstRp261
ag2
(g3
(dp262
g5
g6
(g7
(I0
tS'b'
tRp263
(I1
(I59
tg10
I00
(lp264
g186
ag12
ag15
ag16
ag17
ag18
ag21
ag22
ag24
ag25
ag170
ag27
ag28
ag29
ag30
ag32
ag33
ag35
ag36
ag38
ag41
ag42
ag112
ag102
ag44
ag45
ag46
ag47
ag152
ag50
ag51
ag52
ag53
ag54
ag56
ag57
ag58
ag154
ag63
ag65
ag132
ag68
ag69
ag105
ag72
ag74
ag76
ag78
ag79
ag80
ag81
ag83
ag84
ag85
ag86
ag106
ag161
ag91
ag92
atbsg95
NstRp265
ag2
(g3
(dp266
g5
g6
(g7
(I0
tS'b'
tRp267
(I1
(I50
tg10
I00
(lp268
g100
ag15
ag16
ag138
ag17
ag18
ag21
ag23
ag24
ag27
ag28
ag29
ag30
ag32
ag33
ag36
ag38
ag41
ag42
ag44
ag45
ag46
ag47
ag152
ag48
ag49
ag50
ag51
ag53
ag54
ag55
ag56
ag57
ag58
ag63
ag67
ag69
ag104
ag73
ag74
ag75
ag76
ag78
ag80
ag81
ag82
ag83
ag84
ag86
ag89
atbsg95
NstRp269
ag2
(g3
(dp270
g5
g6
(g7
(I0
tS'b'
tRp271
(I1
(I57
tg10
I00
(lp272
g100
ag15
ag16
ag18
ag20
ag21
ag23
ag27
ag28
ag29
ag30
ag32
ag33
ag34
ag35
ag36
ag38
ag41
ag42
ag44
ag45
ag47
ag152
ag48
ag49
ag50
ag51
ag153
ag114
ag53
ag54
ag55
ag56
ag57
ag58
ag60
ag63
ag66
ag68
ag69
ag104
ag71
ag73
ag74
ag75
ag78
ag116
ag79
ag80
ag124
ag83
ag84
ag86
ag87
ag88
ag106
ag91
atbsg95
NstRp273
ag2
(g3
(dp274
g5
g6
(g7
(I0
tS'b'
tRp275
(I1
(I58
tg10
I00
(lp276
g16
ag17
ag18
ag20
ag21
ag23
ag24
ag149
ag27
ag28
ag29
ag30
ag31
ag32
ag33
ag34
ag35
ag36
ag38
ag41
ag42
ag43
ag44
ag45
ag46
ag47
ag152
ag49
ag50
ag114
ag53
ag55
ag56
ag57
ag58
ag60
ag61
ag63
ag66
ag69
ag104
ag72
ag73
ag158
ag74
ag75
ag78
ag79
ag80
ag81
ag82
ag83
ag84
ag86
ag125
ag89
ag106
ag92
atbsg95
NstRp277
ag2
(g3
(dp278
g5
g6
(g7
(I0
tS'b'
tRp279
(I1
(I79
tg10
I00
(lp280
g186
ag13
ag100
ag15
ag111
ag16
ag17
ag18
ag178
ag21
ag23
ag24
ag149
aS'ABILHTOT'
p281
ag25
ag26
ag27
ag28
ag29
ag30
ag31
ag32
ag33
ag35
ag36
ag37
ag38
ag41
ag130
ag42
ag44
ag45
ag46
ag244
ag47
ag152
ag48
ag49
ag103
ag50
ag51
ag113
ag52
ag114
ag53
ag54
ag55
ag56
ag57
ag58
ag60
ag61
aS'MFIS 011'
p282
ag63
ag64
ag141
ag66
ag68
ag69
ag104
ag105
ag71
ag72
ag73
ag157
ag74
ag75
ag79
ag80
ag82
ag83
ag84
ag85
ag86
ag88
ag125
ag106
ag197
ag181
atbsg95
NstRp283
ag2
(g3
(dp284
g5
g6
(g7
(I0
tS'b'
tRp285
(I1
(I78
tg10
I00
(lp286
g12
ag14
ag15
ag111
ag16
ag138
ag18
ag21
ag23
ag24
ag149
ag25
ag27
ag28
ag29
ag30
ag31
ag139
ag32
ag33
aS'FIM (018'
p287
ag35
ag36
ag37
ag38
ag39
ag42
ag112
ag102
ag44
ag45
ag46
ag47
ag152
ag48
ag49
ag50
ag52
ag153
ag53
ag54
ag55
ag56
ag57
ag131
ag58
ag60
ag61
ag154
ag63
ag66
ag155
ag69
ag104
ag105
ag72
ag73
ag156
ag157
ag158
ag76
ag78
ag116
ag79
ag80
ag81
ag124
ag83
ag84
ag85
ag86
ag88
ag160
ag89
ag106
ag90
ag92
ag181
atbsg95
NstRp288
ag2
(g3
(dp289
g5
g6
(g7
(I0
tS'b'
tRp290
(I1
(I63
tg10
I00
(lp291
g186
ag15
ag111
ag16
ag138
ag18
ag21
ag22
ag25
ag27
ag28
ag29
ag30
ag32
ag33
ag36
ag38
ag41
ag42
ag102
aS'HADS 011'
p292
ag44
ag45
ag46
ag47
ag152
ag48
ag49
ag103
ag50
ag51
ag52
ag53
ag54
ag55
ag56
ag57
ag58
ag60
ag61
ag63
ag64
ag133
ag69
ag104
ag105
ag71
ag72
ag73
ag157
ag74
ag75
ag79
ag80
ag124
ag83
ag84
ag85
ag86
ag87
ag88
ag89
ag106
atbsg95
NstRp293
ag2
(g3
(dp294
g5
g6
(g7
(I0
tS'b'
tRp295
(I1
(I80
tg10
I00
(lp296
g186
ag12
ag100
ag15
ag111
ag16
ag18
ag20
ag21
ag23
ag24
ag149
ag150
ag25
ag170
ag27
ag28
ag29
ag30
ag31
ag32
ag33
ag34
ag36
ag37
ag38
ag39
ag40
ag41
ag130
ag42
ag43
ag44
ag45
ag46
ag47
ag103
ag50
ag113
ag52
ag114
ag53
ag54
ag56
ag57
ag179
ag58
ag60
ag61
ag282
ag63
ag141
ag66
ag68
ag69
ag104
ag105
ag70
ag71
ag72
ag73
ag158
ag74
ag75
ag76
ag77
ag116
ag79
ag80
ag81
ag82
ag83
ag84
ag85
ag86
ag118
ag89
ag106
ag91
ag92
atbsg95
NstRp297
ag2
(g3
(dp298
g5
g6
(g7
(I0
tS'b'
tRp299
(I1
(I96
tg10
I00
(lp300
g186
ag13
ag14
ag15
ag16
ag138
ag18
ag178
ag20
ag21
ag22
ag23
ag24
ag101
ag150
ag25
ag170
ag26
ag27
ag28
ag29
ag30
ag31
ag139
ag32
ag33
ag34
ag35
ag36
ag37
ag38
ag39
ag41
ag42
ag102
ag43
ag292
ag44
ag45
ag46
ag47
ag152
ag48
ag49
ag103
ag50
ag51
ag113
ag52
ag153
ag53
ag54
ag55
ag56
ag57
ag131
ag58
ag140
ag59
ag60
ag61
ag282
ag62
ag63
ag66
ag68
ag155
ag133
ag115
ag69
ag104
ag105
ag70
ag71
ag72
ag73
ag157
ag158
ag74
ag75
ag76
ag78
ag80
ag82
ag83
ag84
ag159
ag85
ag86
ag125
ag160
ag106
ag90
ag161
ag92
ag93
atbsg95
NstRp301
ag2
(g3
(dp302
g5
g6
(g7
(I0
tS'b'
tRp303
(I1
(I81
tg10
I00
(lp304
g12
ag147
ag100
ag15
ag16
ag138
ag17
ag18
ag19
ag20
ag21
ag22
ag23
ag24
ag149
ag25
ag26
ag27
ag28
ag29
ag30
ag139
ag32
ag33
ag287
ag36
ag38
ag39
ag41
ag42
ag43
ag44
ag45
ag46
ag47
ag152
ag48
ag49
ag50
ag51
ag113
ag52
ag153
ag53
ag54
ag56
ag57
ag131
ag58
ag61
ag63
ag65
ag66
ag68
ag133
ag115
ag69
ag104
ag105
ag71
ag72
ag73
ag157
ag158
ag74
ag75
ag76
ag116
ag80
ag81
ag82
ag83
ag84
ag85
ag86
ag88
ag160
ag142
ag106
ag90
ag94
atbsg95
NstRp305
ag2
(g3
(dp306
g5
g6
(g7
(I0
tS'b'
tRp307
(I1
(I63
tg10
I00
(lp308
g15
ag16
ag138
ag18
ag20
ag21
ag23
ag24
ag101
ag25
ag27
ag28
ag29
ag30
ag32
ag33
ag35
ag36
ag38
ag41
ag42
ag44
ag45
ag46
ag47
ag50
ag51
ag52
ag114
ag53
ag54
ag55
ag56
ag57
ag58
ag60
ag61
ag62
ag63
ag66
ag68
ag69
ag104
ag105
ag71
ag73
ag157
ag74
ag75
ag78
ag79
ag80
ag81
ag124
ag83
ag84
ag85
ag86
ag87
ag89
ag106
ag92
ag181
atbsg95
NstRp309
ag2
(g3
(dp310
g5
g6
(g7
(I0
tS'b'
tRp311
(I1
(I73
tg10
I00
(lp312
g186
ag15
ag111
ag16
ag18
ag20
ag21
ag23
ag24
ag150
ag25
ag26
ag27
ag28
ag29
ag30
ag33
ag36
ag38
ag41
ag42
ag112
ag44
ag45
ag46
ag47
ag49
ag103
ag50
ag51
ag113
ag52
ag153
ag114
ag53
ag54
ag56
ag57
ag179
ag58
ag140
ag60
ag61
ag63
ag66
ag68
ag69
ag105
ag71
ag72
ag73
ag157
ag74
ag75
ag76
ag77
ag116
ag79
ag80
ag81
ag124
ag82
ag84
ag86
ag87
ag88
ag160
ag142
ag106
ag90
ag91
ag92
ag93
atbsg95
NstRp313
ag2
(g3
(dp314
g5
g6
(g7
(I0
tS'b'
tRp315
(I1
(I90
tg10
I00
(lp316
g12
ag111
ag16
ag17
ag18
ag19
ag20
ag21
ag22
ag23
ag24
ag149
ag150
ag25
ag27
ag28
ag29
ag30
ag31
ag139
ag32
ag33
ag287
ag34
ag35
ag36
ag37
ag38
ag39
ag40
ag42
ag43
ag292
ag44
ag45
ag46
ag47
ag152
ag48
ag49
ag103
ag50
ag51
ag113
ag52
ag153
ag114
ag53
ag54
ag55
ag56
ag57
ag58
ag140
ag59
ag60
ag61
ag282
ag63
ag64
ag172
ag66
ag67
ag69
ag104
ag71
ag72
ag73
ag156
ag158
ag74
ag75
ag76
ag78
ag79
ag80
ag81
ag82
ag83
ag84
ag85
ag86
ag87
ag88
ag89
ag106
ag91
aS'EDINB009_1'
p317
ag94
ag173
atbsg95
NstRp318
ag2
(g3
(dp319
g5
g6
(g7
(I0
tS'b'
tRp320
(I1
(I35
tg10
I00
(lp321
g15
ag18
ag21
ag29
ag30
ag32
ag33
ag36
ag38
ag42
ag45
ag47
ag50
ag114
ag53
ag54
ag55
ag56
ag57
ag58
ag60
ag63
ag65
ag66
ag69
ag73
ag74
ag75
ag76
ag80
ag82
ag83
ag84
ag85
ag90
atbsg95
NstRp322
ag2
(g3
(dp323
g5
g6
(g7
(I0
tS'b'
tRp324
(I1
(I46
tg10
I00
(lp325
g138
ag17
ag18
ag21
ag22
ag23
ag27
ag28
ag29
ag30
ag33
ag35
ag36
ag38
ag41
ag42
ag44
ag45
ag47
ag49
ag50
ag51
ag52
ag53
ag55
ag56
ag57
ag58
ag60
ag63
ag65
ag66
ag69
ag104
ag105
ag71
ag73
ag76
ag79
ag80
ag81
ag83
ag84
ag88
ag106
ag91
atbsg95
NstRp326
ag2
(g3
(dp327
g5
g6
(g7
(I0
tS'b'
tRp328
(I1
(I69
tg10
I00
(lp329
g15
ag16
ag17
ag18
ag20
ag21
ag23
ag24
ag149
ag170
ag27
ag28
ag29
ag30
ag31
ag32
ag33
ag34
ag35
ag36
ag38
ag41
ag42
ag112
ag292
ag45
ag46
ag47
ag103
ag50
ag51
ag53
ag54
ag171
ag55
ag56
ag57
ag179
ag60
ag61
ag62
ag154
ag63
ag141
ag66
ag68
ag155
ag69
ag105
ag72
ag73
ag156
ag157
ag75
ag76
ag78
ag79
ag80
ag81
ag82
ag83
ag84
ag85
ag88
ag125
ag89
ag106
ag161
ag93
atbsg95
NstRp330
ag2
(g3
(dp331
g5
g6
(g7
(I0
tS'b'
tRp332
(I1
(I63
tg10
I00
(lp333
g186
ag13
ag15
ag111
ag16
ag17
ag18
ag20
ag21
ag23
ag24
ag101
ag25
ag27
ag28
ag29
ag30
ag32
ag36
ag38
ag41
ag130
ag42
ag44
ag45
ag46
ag47
ag48
ag49
ag50
ag52
ag53
ag54
ag55
ag56
ag57
ag179
ag58
ag60
ag61
ag63
ag67
ag68
ag115
ag69
ag104
ag105
ag71
ag72
ag73
ag74
ag75
ag76
ag80
ag81
ag82
ag83
ag84
ag85
ag86
ag89
ag106
ag181
atbsg95
NstRp334
ag2
(g3
(dp335
g5
g6
(g7
(I0
tS'b'
tRp336
(I1
(I46
tg10
I00
(lp337
g15
ag16
ag21
ag23
ag24
ag27
ag29
ag30
ag31
ag33
ag35
ag36
ag38
ag41
ag42
ag44
ag45
ag46
ag47
ag152
ag50
ag113
ag52
ag53
ag55
ag56
ag57
ag58
ag60
ag63
ag65
ag66
ag68
ag133
ag69
ag73
ag74
ag75
ag79
ag80
ag81
ag83
ag84
ag87
ag106
ag93
atbsg95
NstRp338
ag2
(g3
(dp339
g5
g6
(g7
(I0
tS'b'
tRp340
(I1
(I57
tg10
I00
(lp341
g15
ag16
ag18
ag21
ag22
ag23
ag24
ag25
ag27
ag28
ag29
ag30
ag33
ag34
ag36
ag38
ag41
ag130
ag42
ag44
ag45
ag46
ag244
ag47
ag103
ag50
ag51
ag153
ag114
ag53
ag54
ag55
ag56
ag58
ag60
ag63
ag66
ag68
ag69
ag104
ag105
ag71
ag73
ag74
ag75
ag76
ag79
ag80
ag81
ag82
ag83
ag84
ag86
ag88
ag89
ag106
ag93
atbsg95
NstRp342
ag2
(g3
(dp343
g5
g6
(g7
(I0
tS'b'
tRp344
(I1
(I44
tg10
I00
(lp345
g16
ag18
ag21
ag22
ag23
ag25
ag29
ag30
ag31
ag32
ag33
ag36
ag38
ag41
ag42
ag44
ag46
ag47
ag152
ag48
ag50
ag53
ag54
ag55
ag56
ag57
ag58
ag60
ag63
ag69
ag104
ag75
ag76
ag78
ag79
ag80
ag81
ag83
ag84
ag85
ag87
ag89
ag106
ag92
atbsg95
NstRp346
ag2
(g3
(dp347
g5
g6
(g7
(I0
tS'b'
tRp348
(I1
(I46
tg10
I00
(lp349
g18
ag21
ag23
ag24
ag28
ag29
ag30
ag32
ag33
ag36
ag38
ag41
ag42
ag46
ag47
ag152
ag50
ag51
ag114
ag53
ag54
ag55
ag56
ag57
ag58
ag60
ag61
ag63
ag66
ag132
ag115
ag69
ag104
ag71
ag73
ag74
ag75
ag79
ag80
ag81
ag82
ag83
ag84
ag89
ag106
ag91
atbsg95
NstRp350
ag2
(g3
(dp351
g5
g6
(g7
(I0
tS'b'
tRp352
(I1
(I79
tg10
I00
(lp353
g186
ag111
ag16
ag138
ag17
ag18
ag19
ag20
ag21
ag22
ag23
ag24
ag26
ag27
ag28
ag29
ag30
ag139
ag32
ag33
ag34
ag36
ag37
ag38
ag40
ag41
ag130
ag42
ag102
ag43
ag44
ag45
ag46
ag47
ag50
ag51
ag52
ag53
ag54
ag56
ag57
ag58
ag140
ag59
ag282
ag62
ag154
ag63
ag172
ag66
ag68
ag155
ag115
ag69
ag104
ag105
ag71
ag73
ag158
ag74
ag75
ag76
ag78
ag79
ag80
ag81
ag82
ag83
ag84
ag85
ag86
ag88
ag142
ag106
ag90
ag92
ag181
ag93
ag94
atbsg95
NstRp354
ag2
(g3
(dp355
g5
g6
(g7
(I0
tS'b'
tRp356
(I1
(I45
tg10
I00
(lp357
g12
ag16
ag17
ag18
ag21
ag23
ag24
ag28
ag29
ag30
ag32
ag33
ag36
ag37
ag38
ag42
ag44
ag45
ag46
ag47
ag50
ag51
ag52
ag114
ag53
ag56
ag57
ag60
ag61
ag63
ag66
ag68
ag69
ag104
ag73
ag74
ag75
ag79
ag80
ag82
ag84
ag88
ag160
ag180
ag91
atbsg95
NstRp358
ag2
(g3
(dp359
g5
g6
(g7
(I0
tS'b'
tRp360
(I1
(I47
tg10
I00
(lp361
g186
ag100
ag15
ag138
ag18
ag21
ag23
ag25
ag27
ag29
ag30
ag32
ag33
ag36
ag38
ag41
ag42
ag44
ag45
ag46
ag47
ag48
ag50
ag51
ag52
ag114
ag53
ag56
ag57
ag58
ag60
ag63
ag66
ag69
ag104
ag73
ag74
ag75
ag116
ag79
ag80
ag82
ag83
ag84
ag86
ag160
ag106
atbsg95
NstRp362
ag2
(g3
(dp363
g5
g6
(g7
(I0
tS'b'
tRp364
(I1
(I47
tg10
I00
(lp365
g13
ag15
ag18
ag21
ag23
ag24
ag27
ag29
ag30
ag31
ag32
ag33
ag36
ag38
ag41
ag42
ag44
ag47
ag48
ag49
ag50
ag53
ag54
ag55
ag56
ag57
ag58
ag60
ag172
ag104
ag71
ag72
ag73
ag74
ag76
ag79
ag80
ag81
ag124
ag82
ag84
ag117
ag86
ag87
ag89
ag106
ag92
atbsg95
NstRp366
ag2
(g3
(dp367
g5
g6
(g7
(I0
tS'b'
tRp368
(I1
(I81
tg10
I00
(lp369
g12
ag15
ag111
ag16
ag138
ag18
ag21
ag22
ag24
ag101
ag25
ag26
ag27
ag28
ag29
ag30
ag31
ag139
ag32
ag33
ag34
ag36
ag37
ag38
ag39
ag40
ag41
ag130
ag42
ag112
ag43
ag292
ag44
ag45
ag46
ag47
ag152
ag48
ag50
ag52
ag153
ag53
ag54
ag56
ag57
ag179
ag58
ag60
ag61
ag282
ag62
ag63
ag172
ag66
ag68
ag69
ag104
ag105
ag70
ag71
ag72
ag73
ag156
ag157
ag74
ag75
ag76
ag77
ag116
ag80
ag81
ag82
ag83
ag84
ag85
ag125
ag160
ag142
ag106
ag119
ag93
atbsg95
NstRp370
ag2
(g3
(dp371
g5
g6
(g7
(I0
tS'b'
tRp372
(I1
(I48
tg10
I00
(lp373
g15
ag18
ag21
ag23
ag27
ag29
ag30
ag31
ag32
ag33
ag36
ag38
ag41
ag130
ag42
ag44
ag47
ag48
ag49
ag50
ag53
ag54
ag56
ag57
ag58
ag60
ag63
ag69
ag71
ag73
ag157
ag74
ag75
ag76
ag79
ag80
ag81
ag124
ag83
ag84
ag85
ag86
ag160
ag89
ag106
ag91
ag92
ag93
atbsg95
NstRp374
ag2
(g3
(dp375
g5
g6
(g7
(I0
tS'b'
tRp376
(I1
(I32
tg10
I00
(lp377
g15
ag138
ag18
ag21
ag23
ag29
ag30
ag33
ag36
ag42
ag44
ag45
ag47
ag49
ag50
ag53
ag55
ag56
ag57
ag58
ag63
ag65
ag66
ag218
ag73
ag74
ag76
ag79
ag80
ag83
ag85
ag91
atbsg95
NstRp378
ag2
(g3
(dp379
g5
g6
(g7
(I0
tS'b'
tRp380
(I1
(I74
tg10
I00
(lp381
g186
ag100
ag16
ag18
ag178
ag21
ag23
ag24
ag101
ag149
ag25
ag26
ag27
ag28
ag29
ag30
ag31
ag139
ag32
ag33
ag34
ag36
ag37
ag38
ag41
ag130
ag42
ag43
ag292
ag44
ag45
ag46
ag47
ag152
ag49
ag103
ag50
ag51
ag113
ag53
ag55
ag56
ag57
ag58
ag60
ag61
ag62
ag63
ag66
ag68
ag133
ag69
ag104
ag105
ag71
ag73
ag158
ag74
ag75
ag76
ag78
ag79
ag80
ag81
ag82
ag83
ag84
ag159
ag160
ag89
ag90
ag161
ag119
ag93
atbsg95
NstRp382
ag2
(g3
(dp383
g5
g6
(g7
(I0
tS'b'
tRp384
(I1
(I80
tg10
I00
(lp385
g13
ag14
ag15
ag17
ag18
ag20
ag21
ag22
ag23
ag24
ag149
ag25
ag27
ag28
ag29
ag30
ag31
ag32
ag33
ag36
ag37
ag38
ag41
ag130
ag42
ag112
ag292
ag44
ag45
ag46
ag47
ag152
ag48
ag50
ag51
ag52
ag153
ag114
ag53
ag54
ag55
ag56
ag57
ag131
ag58
ag140
ag60
ag61
ag282
ag154
ag63
ag64
ag66
ag132
ag68
ag115
ag69
ag104
ag105
ag71
ag72
ag73
ag157
ag74
ag75
ag77
ag79
ag80
ag81
ag82
ag83
ag84
ag85
ag86
ag87
ag88
ag118
ag106
ag92
ag93
atbsg95
NstRp386
ag2
(g3
(dp387
g5
g6
(g7
(I0
tS'b'
tRp388
(I1
(I74
tg10
I00
(lp389
g12
ag100
ag15
ag111
ag16
ag17
ag18
ag21
ag23
ag24
ag25
ag26
ag27
ag29
ag30
ag32
ag33
ag34
ag36
ag38
ag39
ag41
ag130
ag42
ag292
ag44
ag45
ag46
ag47
ag49
ag103
ag50
ag113
ag114
ag53
ag54
ag171
ag55
ag56
ag57
ag59
ag60
ag61
ag154
ag63
ag65
ag66
ag68
ag155
ag115
ag69
ag104
ag105
ag70
ag71
ag72
ag73
ag156
ag74
ag75
ag76
ag77
ag78
ag79
ag80
ag81
ag124
ag83
ag84
ag86
ag87
ag88
ag106
ag91
atbsg95
NstRp390
ag2
(g3
(dp391
g5
g6
(g7
(I0
tS'b'
tRp392
(I1
(I48
tg10
I00
(lp393
g186
ag15
ag17
ag18
ag21
ag23
ag29
ag30
ag31
ag32
ag33
ag36
ag38
ag41
ag42
ag44
ag45
ag47
ag49
ag50
ag51
ag52
ag53
ag54
ag55
ag56
ag57
ag60
ag61
ag63
ag65
ag69
ag104
ag105
ag73
ag74
ag76
ag116
ag80
ag81
ag82
ag83
ag84
ag85
ag106
ag90
ag91
ag92
atbsg95
NstRp394
ag2
(g3
(dp395
g5
g6
(g7
(I0
tS'b'
tRp396
(I1
(I85
tg10
I00
(lp397
g186
ag100
ag15
ag111
ag16
ag17
ag18
ag178
ag20
ag21
ag22
ag23
ag24
ag149
ag25
ag26
ag27
ag28
ag29
ag30
ag139
ag32
ag33
ag34
ag36
ag37
ag38
ag41
ag130
ag42
ag112
ag102
ag43
ag44
ag45
ag46
ag47
ag48
ag103
ag50
ag51
ag113
ag52
ag153
ag114
ag53
ag54
ag56
ag57
ag58
ag140
ag59
ag60
ag154
ag63
ag65
ag66
ag67
ag69
ag105
ag71
ag72
ag73
ag156
ag157
ag74
ag75
ag76
ag79
ag80
ag81
ag82
ag83
ag84
ag86
ag88
ag118
ag142
ag106
ag90
ag197
ag91
ag92
ag93
ag94
atbsg95
NstRp398
ag2
(g3
(dp399
g5
g6
(g7
(I0
tS'b'
tRp400
(I1
(I43
tg10
I00
(lp401
g15
ag16
ag18
ag21
ag23
ag24
ag27
ag28
ag29
ag30
ag32
ag33
ag36
ag38
ag42
ag45
ag47
ag48
ag50
ag52
ag114
ag53
ag54
ag55
ag56
ag57
ag60
ag63
ag65
ag66
ag104
ag105
ag71
ag72
ag73
ag75
ag80
ag82
ag83
ag84
ag87
ag88
ag106
atbsg95
NstRp402
ag2
(g3
(dp403
g5
g6
(g7
(I0
tS'b'
tRp404
(I1
(I73
tg10
I00
(lp405
g13
ag111
ag16
ag18
ag19
ag21
ag22
ag23
ag24
ag25
ag27
ag28
ag29
ag30
ag139
ag32
ag33
ag34
ag36
ag37
ag38
ag41
ag42
ag112
ag102
ag43
ag292
ag44
ag45
ag46
ag47
ag49
ag103
ag50
ag51
ag52
ag153
ag53
ag54
ag56
ag131
ag58
ag59
ag60
ag61
ag63
ag141
ag66
ag68
ag115
ag69
ag104
ag105
ag71
ag72
ag73
ag74
ag76
ag77
ag79
ag80
ag81
ag124
ag83
ag84
ag86
ag87
ag88
ag160
ag89
ag106
ag91
ag93
atbsg95
NstRp406
ag2
(g3
(dp407
g5
g6
(g7
(I0
tS'b'
tRp408
(I1
(I74
tg10
I00
(lp409
g186
ag15
ag16
ag138
ag18
ag20
ag21
ag22
ag23
ag24
ag25
ag170
ag26
ag27
ag28
ag29
ag30
ag32
ag33
ag36
ag38
ag39
ag40
ag41
ag42
ag43
ag292
ag44
ag45
ag46
ag47
ag49
ag50
ag52
ag114
ag53
ag54
ag55
ag56
ag57
ag179
ag58
ag59
ag60
ag61
ag154
ag63
ag64
ag66
ag68
ag69
ag104
ag105
ag71
ag72
ag73
ag158
ag74
ag75
ag79
ag80
ag81
ag82
ag83
ag84
ag117
ag86
ag118
ag89
ag106
ag90
ag91
ag92
ag119
atbsg95
NstRp410
ag2
(g3
(dp411
g5
g6
(g7
(I0
tS'b'
tRp412
(I1
(I44
tg10
I00
(lp413
g15
ag16
ag18
ag21
ag23
ag27
ag28
ag29
ag30
ag31
ag32
ag33
ag36
ag38
ag41
ag42
ag44
ag45
ag47
ag152
ag50
ag53
ag54
ag56
ag57
ag60
ag61
ag63
ag65
ag66
ag69
ag104
ag71
ag157
ag74
ag75
ag79
ag80
ag81
ag83
ag84
ag85
ag89
ag106
atbsg95
NstRp414
ag2
(g3
(dp415
g5
g6
(g7
(I0
tS'b'
tRp416
(I1
(I54
tg10
I00
(lp417
g100
ag16
ag18
ag21
ag22
ag23
ag24
ag27
ag29
ag30
ag32
ag33
ag35
ag36
ag38
ag41
ag42
ag102
ag44
ag45
ag46
ag47
ag152
ag50
ag114
ag53
ag54
ag55
ag56
ag57
ag58
ag59
ag60
ag154
ag63
ag66
ag68
ag69
ag105
ag71
ag72
ag73
ag74
ag75
ag76
ag79
ag80
ag82
ag83
ag84
ag86
ag88
ag106
ag93
atbsg95
NstRp418
ag2
(g3
(dp419
g5
g6
(g7
(I0
tS'b'
tRp420
(I1
(I94
tg10
I00
(lp421
g13
ag15
ag111
ag16
ag17
ag18
ag20
ag21
ag22
ag24
ag101
ag149
ag191
ag150
ag25
ag170
ag26
ag27
ag28
ag29
ag30
ag31
ag139
ag32
ag33
ag34
ag36
ag38
ag39
ag40
ag41
ag42
ag112
ag102
ag43
ag44
ag45
ag244
ag47
ag48
ag49
ag103
ag50
ag51
ag113
ag114
ag53
ag54
ag171
ag55
ag56
ag57
ag131
ag58
ag140
ag61
ag154
ag63
ag64
ag66
ag68
ag133
ag115
ag69
ag104
ag105
ag70
ag71
ag72
ag73
ag156
ag158
ag74
ag75
ag76
ag77
ag116
ag79
ag80
ag81
ag82
ag83
ag84
ag85
ag86
ag88
ag142
ag180
ag106
ag90
ag161
ag92
ag119
ag94
atbsg95
NstRp422
ag2
(g3
(dp423
g5
g6
(g7
(I0
tS'b'
tRp424
(I1
(I61
tg10
I00
(lp425
g15
ag16
ag18
ag19
ag20
ag21
ag23
ag25
ag27
ag28
ag29
ag30
ag32
ag33
ag34
ag36
ag38
ag41
ag130
ag42
ag44
ag45
ag47
ag50
ag52
ag53
ag54
ag171
ag55
ag56
ag57
ag58
ag140
ag60
ag61
ag63
ag65
ag68
ag115
ag69
ag104
ag105
ag72
ag73
ag157
ag158
ag74
ag75
ag78
ag79
ag80
ag81
ag82
ag83
ag84
ag86
ag88
ag160
ag106
ag92
ag181
atbsg95
NstRp426
ag2
(g3
(dp427
g5
g6
(g7
(I0
tS'b'
tRp428
(I1
(I38
tg10
I00
(lp429
g138
ag17
ag18
ag21
ag23
ag24
ag25
ag27
ag29
ag30
ag32
ag33
ag35
ag36
ag38
ag41
ag42
ag102
ag44
ag47
ag49
ag50
ag53
ag56
ag57
ag58
ag63
ag69
ag104
ag73
ag76
ag79
ag80
ag81
ag83
ag84
ag85
ag106
atbsg95
NstRp430
ag2
(g3
(dp431
g5
g6
(g7
(I0
tS'b'
tRp432
(I1
(I23
tg10
I00
(lp433
g18
ag21
ag29
ag30
ag33
ag36
ag38
ag42
ag47
ag50
ag56
ag57
ag58
ag60
ag61
ag63
ag66
ag73
ag75
ag80
ag124
ag83
ag84
atbsg95
NstRp434
ag2
(g3
(dp435
g5
g6
(g7
(I0
tS'b'
tRp436
(I1
(I36
tg10
I00
(lp437
g186
ag15
ag18
ag21
ag23
ag29
ag30
ag33
ag36
ag42
ag44
ag45
ag47
ag152
ag49
ag50
ag53
ag54
ag55
ag56
ag57
ag58
ag60
ag63
ag65
ag104
ag74
ag76
ag116
ag79
ag80
ag82
ag83
ag84
ag85
ag106
atbsg95
NstRp438
ag2
(g3
(dp439
g5
g6
(g7
(I0
tS'b'
tRp440
(I1
(I81
tg10
I00
(lp441
g12
ag100
ag15
ag111
ag16
ag17
ag18
ag20
ag21
ag23
ag24
ag150
ag25
ag26
ag27
ag28
ag29
ag30
ag31
ag32
ag33
ag34
ag35
ag37
ag38
ag39
ag40
ag41
ag42
ag102
ag43
ag292
ag44
ag45
ag46
ag47
ag152
ag48
ag49
ag103
ag50
ag51
ag52
ag114
ag53
ag54
ag56
ag57
ag131
ag58
ag60
ag61
ag62
ag63
ag64
ag141
ag66
ag68
ag69
ag104
ag105
ag71
ag73
ag157
ag74
ag75
ag79
ag80
ag82
ag83
ag84
ag85
ag86
ag88
ag125
ag160
ag142
ag180
ag106
ag90
ag92
atbsg95
NstRp442
ag2
(g3
(dp443
g5
g6
(g7
(I0
tS'b'
tRp444
(I1
(I71
tg10
I00
(lp445
g186
ag13
ag15
ag111
ag16
ag17
ag18
ag21
ag22
ag23
ag24
ag25
ag27
ag29
ag30
ag31
ag32
ag33
ag34
ag35
ag36
ag37
ag38
ag41
ag42
ag44
ag45
ag46
ag47
ag48
ag49
ag103
ag50
ag51
ag52
ag153
ag114
ag53
ag54
ag55
ag56
ag57
ag58
ag60
ag61
ag63
ag68
ag69
ag104
ag105
ag71
ag73
ag74
ag75
ag76
ag116
ag79
ag80
ag81
ag124
ag83
ag84
ag85
ag86
ag88
ag125
ag160
ag89
ag106
ag91
ag92
atbsg95
NstRp446
ag2
(g3
(dp447
g5
g6
(g7
(I0
tS'b'
tRp448
(I1
(I76
tg10
I00
(lp449
g100
ag15
ag16
ag17
ag18
ag227
ag19
ag21
ag23
ag24
aS'ABILHSUB1'
p450
ag281
ag25
ag26
ag27
ag28
ag29
ag30
ag139
ag32
ag33
ag36
ag38
ag39
ag41
ag130
ag42
ag292
ag44
ag45
ag46
ag47
ag49
ag50
ag51
ag52
ag153
ag53
ag54
ag55
ag56
ag57
ag58
ag60
ag61
ag62
ag63
ag65
ag67
ag196
ag68
ag115
ag69
ag104
ag71
ag73
ag156
ag158
ag74
ag75
ag77
ag78
ag79
ag80
ag81
ag82
ag83
ag84
ag86
ag87
ag89
ag106
ag91
ag181
ag119
ag93
atbsg95
NstRp451
ag2
(g3
(dp452
g5
g6
(g7
(I0
tS'b'
tRp453
(I1
(I44
tg10
I00
(lp454
g15
ag18
ag21
ag23
ag27
ag29
ag30
ag33
ag36
ag38
ag41
ag42
ag112
ag45
ag47
ag48
ag49
ag50
ag153
ag53
ag54
ag55
ag56
ag57
ag58
ag60
ag61
ag63
ag104
ag73
ag74
ag75
ag76
ag78
ag79
ag80
ag81
ag82
ag83
ag84
ag85
ag86
ag88
ag91
atbsg95
NstRp455
ag2
(g3
(dp456
g5
g6
(g7
(I0
tS'b'
tRp457
(I1
(I49
tg10
I00
(lp458
g15
ag16
ag138
ag17
ag18
ag21
ag22
ag23
ag27
ag29
ag30
ag32
ag33
ag36
ag38
ag41
ag42
ag112
ag44
ag45
ag46
ag47
ag50
ag114
ag53
ag54
ag55
ag56
ag57
ag58
ag60
ag61
ag63
ag68
ag115
ag69
ag105
ag73
ag76
ag78
ag79
ag80
ag81
ag82
ag83
ag84
ag86
ag180
ag92
atbsg95
NstRp459
ag2
(g3
(dp460
g5
g6
(g7
(I0
tS'b'
tRp461
(I1
(I34
tg10
I00
(lp462
g15
ag18
ag21
ag27
ag28
ag29
ag30
ag31
ag33
ag36
ag38
ag41
ag42
ag44
ag45
ag47
ag50
ag53
ag54
ag55
ag56
ag57
ag58
ag60
ag63
ag65
ag69
ag73
ag75
ag79
ag80
ag82
ag84
ag90
atbsg95
NstRp463
ag2
(g3
(dp464
g5
g6
(g7
(I0
tS'b'
tRp465
(I1
(I46
tg10
I00
(lp466
g18
ag21
ag23
ag27
ag28
ag29
ag30
ag31
ag32
ag33
ag36
ag38
ag41
ag42
ag44
ag45
ag46
ag47
ag50
ag53
ag54
ag55
ag56
ag57
ag58
ag60
ag63
ag65
ag66
ag68
ag69
ag104
ag71
ag73
ag74
ag75
ag77
ag80
ag81
ag124
ag83
ag84
ag85
ag86
ag90
ag119
atbsg95
NstRp467
ag2
(g3
(dp468
g5
g6
(g7
(I0
tS'b'
tRp469
(I1
(I103
tg10
I00
(lp470
g186
ag12
ag100
ag15
ag111
ag16
ag17
ag18
ag19
ag20
ag21
ag22
ag23
ag24
ag101
ag149
ag450
ag281
ag150
ag170
ag26
ag27
ag28
ag29
ag30
ag31
ag139
ag32
ag33
ag34
ag35
ag37
ag38
ag39
ag40
ag41
ag130
ag42
ag112
ag102
ag43
ag292
ag44
ag45
ag46
ag47
ag48
ag49
ag103
ag50
ag51
ag153
ag114
ag53
ag54
ag55
ag56
ag57
ag131
ag58
ag59
ag60
ag61
ag282
ag62
ag154
ag63
ag66
ag132
ag67
ag68
ag155
ag69
ag104
ag105
ag71
ag72
ag73
ag157
ag74
ag75
ag76
ag78
ag116
ag79
ag80
ag81
ag82
ag83
ag84
ag85
ag86
ag87
ag88
ag160
ag180
ag106
ag90
ag161
ag91
ag181
ag93
ag94
atbsg95
NstRp471
ag2
(g3
(dp472
g5
g6
(g7
(I0
tS'b'
tRp473
(I1
(I58
tg10
I00
(lp474
g14
ag15
ag16
ag18
ag20
ag21
ag23
ag27
ag28
ag29
ag30
ag31
ag32
ag33
ag35
ag36
ag37
ag41
ag130
ag42
ag102
ag44
ag45
ag46
ag47
ag48
ag49
ag50
ag51
ag153
ag53
ag55
ag56
ag57
ag58
ag60
ag63
ag66
ag67
ag68
ag69
ag104
ag71
ag72
ag73
ag74
ag75
ag76
ag79
ag80
ag81
ag82
ag83
ag84
ag85
ag87
ag125
ag92
atbsg95
NstRp475
ag2
(g3
(dp476
g5
g6
(g7
(I0
tS'b'
tRp477
(I1
(I89
tg10
I00
(lp478
g100
ag15
ag111
ag16
ag17
ag18
ag19
ag178
ag20
ag21
ag23
ag24
ag101
ag149
ag281
ag191
ag25
ag170
ag27
ag28
ag29
ag30
ag32
ag33
ag287
ag34
ag36
ag37
ag38
ag39
ag41
ag130
ag42
ag112
ag102
ag43
ag44
ag45
ag46
ag47
ag48
ag49
ag50
ag51
ag113
ag53
ag54
ag56
ag57
ag179
ag131
ag58
ag59
ag60
ag61
ag154
ag63
ag64
ag172
ag66
ag67
ag69
ag104
ag105
ag71
ag72
ag73
ag157
ag158
ag74
ag75
ag76
ag77
ag78
ag79
ag80
ag81
ag124
ag83
ag84
ag117
ag86
ag87
ag125
ag160
ag89
ag106
ag91
ag181
atbsg95
NstRp479
ag2
(g3
(dp480
g5
g6
(g7
(I0
tS'b'
tRp481
(I1
(I47
tg10
I00
(lp482
g15
ag16
ag138
ag18
ag21
ag23
ag25
ag27
ag29
ag30
ag32
ag33
ag36
ag38
ag41
ag42
ag44
ag47
ag48
ag50
ag51
ag114
ag53
ag54
ag55
ag56
ag57
ag58
ag60
ag61
ag63
ag65
ag67
ag218
ag68
ag69
ag73
ag74
ag76
ag80
ag82
ag84
ag85
ag86
ag106
ag90
ag91
atbsg95
NstRp483
ag2
(g3
(dp484
g5
g6
(g7
(I0
tS'b'
tRp485
(I1
(I85
tg10
I00
(lp486
g186
ag15
ag16
ag17
ag18
ag20
ag21
ag22
ag23
ag24
ag149
ag25
ag26
ag27
ag29
ag30
ag32
ag33
ag35
ag36
ag38
ag40
ag41
ag130
ag42
ag112
ag102
ag292
ag44
ag45
ag46
ag47
ag48
ag49
ag103
ag50
ag51
ag113
ag52
ag114
ag53
ag54
ag55
ag56
ag57
ag131
ag58
ag140
ag60
ag61
ag282
ag63
ag64
ag141
ag65
ag66
ag67
ag68
ag133
ag115
ag69
ag104
ag71
ag72
ag73
ag157
ag74
ag75
ag76
ag78
ag79
ag80
ag81
ag82
ag83
ag84
ag85
ag86
ag88
ag160
ag142
ag180
ag106
ag91
ag93
atbsg95
NstRp487
ag2
(g3
(dp488
g5
g6
(g7
(I0
tS'b'
tRp489
(I1
(I68
tg10
I00
(lp490
g186
ag100
ag15
ag16
ag18
ag21
ag23
ag24
ag101
ag27
ag28
ag29
ag30
ag31
ag32
ag33
ag34
ag36
ag37
ag38
ag41
ag42
ag112
ag43
ag44
ag45
ag46
ag47
ag48
ag49
ag103
ag50
ag53
ag54
ag55
ag56
ag57
ag58
ag60
ag61
ag63
ag64
ag66
ag132
ag68
ag69
ag104
ag71
ag72
ag73
ag74
ag76
ag77
ag79
ag80
ag81
ag82
ag83
ag84
ag85
ag86
ag87
ag88
ag180
ag106
ag161
ag91
ag93
atbsg95
NstRp491
ag2
(g3
(dp492
g5
g6
(g7
(I0
tS'b'
tRp493
(I1
(I60
tg10
I00
(lp494
g16
ag17
ag18
ag21
ag23
ag24
ag27
ag28
ag29
ag30
ag31
ag32
ag33
ag34
ag36
ag38
ag42
ag44
ag45
ag46
ag47
ag48
ag49
ag103
ag50
ag51
ag114
ag53
ag54
ag55
ag56
ag57
ag58
ag60
ag61
ag63
ag65
ag66
ag196
ag69
ag104
ag105
ag71
ag72
ag73
ag157
ag158
ag74
ag75
ag78
ag79
ag80
ag81
ag124
ag83
ag84
ag86
ag160
ag106
ag91
atbsg95
NstRp495
ag2
(g3
(dp496
g5
g6
(g7
(I0
tS'b'
tRp497
(I1
(I66
tg10
I00
(lp498
g15
ag16
ag17
ag18
ag20
ag21
ag22
ag23
ag24
ag101
ag25
ag27
ag28
ag29
ag30
ag32
ag33
ag35
ag36
ag37
ag38
ag41
ag42
ag44
ag45
ag46
ag47
ag152
ag48
ag49
ag50
ag51
ag114
ag53
ag54
ag56
ag57
ag58
ag59
ag60
ag61
ag63
ag65
ag66
ag132
ag155
ag115
ag69
ag104
ag105
ag71
ag72
ag73
ag74
ag75
ag80
ag81
ag83
ag84
ag86
ag180
ag90
ag91
ag92
ag93
ag173
atbsg95
NstRp499
ag2
(g3
(dp500
g5
g6
(g7
(I0
tS'b'
tRp501
(I1
(I65
tg10
I00
(lp502
g16
ag17
ag18
ag21
ag23
ag24
ag101
ag25
ag27
ag29
ag30
ag31
ag32
ag33
ag36
ag37
ag38
ag41
ag42
ag44
ag45
ag47
ag152
ag48
ag49
ag103
ag50
ag51
ag113
ag52
ag114
ag53
ag54
ag55
ag56
ag57
ag58
ag60
ag63
ag65
ag66
ag68
ag115
ag69
ag104
ag105
ag71
ag72
ag73
ag74
ag75
ag77
ag116
ag79
ag80
ag81
ag82
ag83
ag84
ag86
ag160
ag89
ag106
ag93
ag173
atbsg95
NstRp503
ag2
(g3
(dp504
g5
g6
(g7
(I0
tS'b'
tRp505
(I1
(I60
tg10
I00
(lp506
g111
ag16
ag18
ag20
ag21
ag23
ag26
ag27
ag28
ag29
ag30
ag32
ag33
ag36
ag38
ag41
ag42
ag112
ag43
ag44
ag45
ag47
ag50
ag51
ag52
ag114
ag53
ag54
ag55
ag56
ag57
ag58
ag60
ag63
ag141
ag66
ag67
ag69
ag104
ag105
ag71
ag72
ag73
ag157
ag74
ag75
ag76
ag116
ag79
ag80
ag124
ag83
ag84
ag85
ag86
ag87
ag89
ag106
ag92
ag93
atbsg95
NstRp507
ag2
(g3
(dp508
g5
g6
(g7
(I0
tS'b'
tRp509
(I1
(I44
tg10
I00
(lp510
g186
ag16
ag18
ag21
ag23
ag24
ag27
ag28
ag29
ag30
ag32
ag33
ag36
ag38
ag41
ag42
ag44
ag45
ag47
ag152
ag50
ag53
ag54
ag55
ag56
ag57
ag58
ag60
ag63
ag65
ag69
ag71
ag73
ag74
ag75
ag76
ag78
ag79
ag80
ag81
ag83
ag84
ag85
ag86
atbsg95
NstRp511
ag2
(g3
(dp512
g5
g6
(g7
(I0
tS'b'
tRp513
(I1
(I80
tg10
I00
(lp514
g100
ag15
ag111
ag16
ag18
ag148
ag20
ag21
ag23
ag24
ag149
ag25
ag26
ag27
ag28
ag29
ag30
ag31
ag32
ag33
ag34
ag36
ag38
ag41
ag130
ag42
ag44
ag45
ag46
ag47
ag48
ag49
ag50
ag51
ag53
ag54
ag55
ag56
ag57
ag58
ag61
ag62
ag154
ag63
ag64
ag141
ag66
ag67
ag68
ag69
ag104
ag105
ag71
ag72
ag73
ag157
ag158
ag74
ag75
ag76
ag78
ag116
ag79
ag80
ag81
ag82
ag83
ag84
ag85
ag86
ag87
ag88
ag160
ag142
ag106
ag90
ag91
ag92
ag119
ag93
atbsg95
NstRp515
ag2
(g3
(dp516
g5
g6
(g7
(I0
tS'b'
tRp517
(I1
(I29
tg10
I00
(lp518
g138
ag18
ag21
ag29
ag30
ag33
ag36
ag38
ag42
ag44
ag45
ag47
ag50
ag53
ag55
ag56
ag57
ag58
ag63
ag65
ag69
ag73
ag76
ag79
ag80
ag82
ag83
ag84
ag92
atbsg95
NstRp519
ag2
(g3
(dp520
g5
g6
(g7
(I0
tS'b'
tRp521
(I1
(I48
tg10
I00
(lp522
g100
ag15
ag138
ag18
ag21
ag22
ag23
ag28
ag29
ag30
ag31
ag32
ag33
ag35
ag36
ag38
ag41
ag42
ag45
ag46
ag47
ag49
ag50
ag51
ag52
ag53
ag54
ag55
ag56
ag57
ag58
ag61
ag63
ag68
ag69
ag73
ag74
ag76
ag78
ag79
ag80
ag81
ag82
ag83
ag84
ag86
ag88
ag106
atbsg95
NstRp523
ag2
(g3
(dp524
g5
g6
(g7
(I0
tS'b'
tRp525
(I1
(I83
tg10
I00
(lp526
g186
ag100
ag15
ag111
ag16
ag138
ag17
ag18
ag20
ag21
ag23
ag24
ag101
ag150
ag25
ag26
ag27
ag28
ag29
ag30
ag139
ag32
ag33
ag34
ag35
ag36
ag37
ag38
ag40
ag41
ag42
ag292
ag44
ag45
ag46
ag47
ag49
ag50
ag51
ag114
ag53
ag54
ag171
ag55
ag56
ag57
ag179
ag58
ag140
ag61
ag63
ag64
ag65
ag66
ag67
ag68
ag69
ag104
ag105
ag71
ag73
ag157
ag74
ag75
ag76
ag77
ag116
ag79
ag80
ag124
ag83
ag84
ag159
ag117
ag86
ag160
ag118
ag89
ag106
ag90
ag92
ag93
ag94
atbsg95
NstRp527
ag2
(g3
(dp528
g5
g6
(g7
(I0
tS'b'
tRp529
(I1
(I80
tg10
I00
(lp530
g12
ag13
ag14
ag15
ag111
ag16
ag17
ag18
ag20
ag21
ag23
ag24
ag101
ag27
ag28
ag29
ag30
ag139
ag32
ag33
ag34
ag35
ag36
ag37
ag38
ag41
ag42
ag43
ag44
ag45
ag46
ag47
ag48
ag103
ag50
ag51
ag114
ag53
ag54
ag55
ag56
ag57
ag58
ag59
ag60
ag61
ag154
ag63
ag64
ag141
ag66
ag68
ag133
ag69
ag104
ag105
ag70
ag71
ag72
ag73
ag157
ag74
ag75
ag77
ag78
ag116
ag79
ag80
ag81
ag83
ag84
ag85
ag86
ag88
ag160
ag180
ag106
ag91
ag181
ag93
atbsg95
NstRp531
ag2
(g3
(dp532
g5
g6
(g7
(I0
tS'b'
tRp533
(I1
(I62
tg10
I00
(lp534
g100
ag15
ag16
ag138
ag17
ag18
ag21
ag23
ag24
ag25
ag27
ag28
ag29
ag30
ag32
ag33
ag36
ag38
ag39
ag41
ag42
ag44
ag45
ag46
ag47
ag152
ag48
ag50
ag52
ag153
ag53
ag54
ag55
ag56
ag57
ag131
ag58
ag60
ag61
ag63
ag64
ag66
ag69
ag104
ag71
ag72
ag73
ag74
ag75
ag79
ag80
ag81
ag83
ag84
ag85
ag86
ag88
ag160
ag89
ag106
ag91
ag94
atbsg95
NstRp535
ag2
(g3
(dp536
g5
g6
(g7
(I0
tS'b'
tRp537
(I1
(I99
tg10
I00
(lp538
g147
ag13
ag14
ag100
ag15
ag111
ag16
ag138
ag18
ag148
ag19
ag178
ag20
ag21
ag23
ag24
ag101
ag149
ag150
ag25
ag26
ag27
aS'FIM (009'
p539
ag28
ag29
ag30
ag31
ag139
ag32
ag33
ag34
ag35
ag36
ag37
ag38
ag39
ag41
ag42
ag102
ag292
ag44
ag45
ag46
ag47
ag152
ag49
ag50
ag51
ag52
ag114
ag53
ag54
ag55
ag56
ag57
ag131
ag58
ag59
ag60
ag61
ag62
ag154
ag63
ag64
ag141
ag65
ag66
ag67
ag68
ag115
ag69
ag104
ag105
ag70
ag71
ag72
ag73
ag157
ag74
ag76
ag77
ag78
ag79
ag80
ag81
ag82
ag83
ag84
ag85
ag86
ag87
ag88
ag89
ag106
ag161
ag91
ag92
ag93
ag173
atbsg95
NstRp540
ag2
(g3
(dp541
g5
g6
(g7
(I0
tS'b'
tRp542
(I1
(I78
tg10
I00
(lp543
g12
ag13
ag15
ag111
ag16
ag17
ag18
ag20
ag21
ag23
ag24
ag101
ag25
ag27
ag28
ag29
ag30
ag32
ag33
ag36
ag37
ag38
ag41
ag42
ag112
ag292
ag44
ag45
ag46
ag47
ag48
ag49
ag103
ag50
ag51
ag52
ag53
ag54
ag55
ag56
ag57
ag179
ag131
ag58
ag140
ag59
ag60
ag61
ag63
ag141
ag66
ag67
ag68
ag69
ag70
ag71
ag72
ag73
ag157
ag158
ag74
ag75
ag76
ag79
ag80
ag81
ag124
ag83
ag84
ag117
ag86
ag87
ag88
ag142
ag89
ag106
ag181
ag119
atbsg95
NstRp544
ag2
(g3
(dp545
g5
g6
(g7
(I0
tS'b'
tRp546
(I1
(I84
tg10
I00
(lp547
g186
ag15
ag111
ag16
ag17
ag18
ag19
ag178
ag21
ag23
ag24
ag101
ag150
ag25
ag170
ag26
ag27
ag28
ag29
ag30
ag31
ag32
ag33
ag34
ag36
ag37
ag38
ag39
ag41
ag130
ag42
ag292
ag44
ag45
ag46
ag47
ag49
ag50
ag51
ag52
ag54
ag55
ag56
ag57
ag131
ag58
ag59
ag60
ag61
ag62
ag63
ag141
ag66
ag132
ag68
ag155
ag133
ag69
ag104
ag105
ag71
ag72
ag73
ag74
ag75
ag76
ag77
ag116
ag79
ag80
ag81
ag124
ag83
ag84
ag86
ag87
ag88
ag160
ag89
ag106
ag90
ag91
ag181
ag119
atbsg95
NstRp548
ag2
(g3
(dp549
g5
g6
(g7
(I0
tS'b'
tRp550
(I1
(I94
tg10
I00
(lp551
g12
ag147
ag15
ag16
ag17
ag18
ag19
ag20
ag21
ag23
ag24
ag101
ag149
ag191
ag150
ag25
ag170
ag26
ag27
ag28
ag29
ag30
ag31
ag139
ag32
ag33
ag287
ag34
ag35
ag36
ag37
ag38
ag39
ag40
ag41
ag42
ag112
ag44
ag45
ag46
ag47
ag49
ag103
ag50
ag113
ag52
ag114
ag53
ag54
ag171
ag56
ag57
ag58
ag140
ag59
ag60
ag61
ag282
ag62
ag63
ag141
ag66
ag67
ag68
ag115
ag69
ag104
ag105
ag70
ag71
ag72
ag73
ag156
ag157
ag74
ag75
ag76
ag78
ag116
ag80
ag81
ag124
ag83
ag84
ag117
ag86
ag88
ag160
ag142
ag89
ag106
ag90
ag119
ag93
atbsg95
NstRp552
ag2
(g3
(dp553
g5
g6
(g7
(I0
tS'b'
tRp554
(I1
(I45
tg10
I00
(lp555
g100
ag15
ag18
ag21
ag23
ag29
ag30
ag31
ag32
ag33
ag35
ag36
ag38
ag42
ag44
ag45
ag46
ag47
ag50
ag51
ag114
ag53
ag55
ag56
ag57
ag179
ag58
ag60
ag61
ag63
ag66
ag132
ag69
ag105
ag72
ag74
ag75
ag76
ag79
ag80
ag81
ag82
ag83
ag84
ag86
atbsg95
NstRp556
a.