(lp1
cpandas.core.indexes.base
_new_Index
p2
(cpandas.core.indexes.base
Index
p3
(dp4
S'data'
p5
cnumpy.core.multiarray
_reconstruct
p6
(cnumpy
ndarray
p7
(I0
tS'b'
tRp8
(I1
(I74
tcnumpy
dtype
p9
(S'O8'
I0
I1
tRp10
(I3
S'|'
NNNI-1
I-1
I63
tbI00
(lp11
S'ABILH006'
p12
aS'ABILH007'
p13
aS'ABILH009'
p14
aS'ABILH011'
p15
aS'ABILH012'
p16
aS'ABILH015'
p17
aS'ABILH017'
p18
aS'ABILH018'
p19
aS'ABILH019'
p20
aS'ABILH020'
p21
aS'ABILH022'
p22
aS'FIM (002'
p23
aS'FIM (003'
p24
aS'FIM (006'
p25
aS'FIM (008'
p26
aS'FIM (010'
p27
aS'FIM (011'
p28
aS'FIM (012'
p29
aS'FIM (015'
p30
aS'FIM (016'
p31
aS'FIM (017'
p32
aS'FIM (SUB5'
p33
aS'HADS 002'
p34
aS'HADS 004'
p35
aS'HADS 005'
p36
aS'HADS 006'
p37
aS'HADS 007'
p38
aS'HADS 008'
p39
aS'HADS 012'
p40
aS'HADS 013'
p41
aS'HADS 014'
p42
aS'HEIG'
p43
aS'ISTRU'
p44
aS'LIFE 001'
p45
aS'LIFE 004'
p46
aS'LIFE 005'
p47
aS'LIFE 009'
p48
aS'LIFE 010'
p49
aS'LIFE 011'
p50
aS'MFIS 002'
p51
aS'MFIS 003'
p52
aS'MFIS 006'
p53
aS'MFIS 007'
p54
aS'MFIS 009'
p55
aS'MFIS 010'
p56
aS'MFIS 011'
p57
aS'MFIS 012'
p58
aS'MFIS 014'
p59
aS'MFIS 019'
p60
aS'MOCA 001'
p61
aS'MOCA 003'
p62
aS'MOCA 004'
p63
aS'MOCA 005'
p64
aS'MOCA 006'
p65
aS'MOCA 008'
p66
aS'MOCA 009'
p67
aS'MOCA 010'
p68
aS'MOCA 011'
p69
aS'OAB-Q002'
p70
aS'OAB-Q003'
p71
aS'OAB-Q004'
p72
aS'OAB-Q005'
p73
aS'OAB-Q006'
p74
aS'OAB-Q008'
p75
aS'PASATTOT'
p76
aS'RELAPS'
p77
aS'SDMT TOT'
p78
aS'EDINB001_1'
p79
aS'EDINB001_2'
p80
aS'EDINB002_0'
p81
aS'EDINB003_2'
p82
aS'EDINB004_0'
p83
aS'EDINB005_0'
p84
aS'EDINB006_1'
p85
atbsS'name'
p86
NstRp87
ag2
(g3
(dp88
g5
g6
(g7
(I0
tS'b'
tRp89
(I1
(I46
tg10
I00
(lp90
g12
ag13
ag16
ag19
ag26
ag28
ag29
aS'FIM (014'
p91
ag31
ag33
ag34
aS'HADS 003'
p92
ag36
ag37
ag38
ag39
ag40
ag41
aS'LIFE 002'
p93
ag46
aS'LIFE 007'
p94
ag49
aS'MFIS 001'
p95
ag51
ag52
ag53
ag55
ag56
ag59
ag60
ag61
ag65
ag68
ag69
ag72
ag74
ag76
ag77
ag78
aS'WEIG'
p96
ag79
ag81
aS'EDINB003_0'
p97
ag84
aS'EDINB006_0'
p98
aS'EDINB006_2'
p99
atbsg86
NstRp100
ag2
(g3
(dp101
g5
g6
(g7
(I0
tS'b'
tRp102
(I1
(I40
tg10
I00
(lp103
g13
ag16
ag19
ag20
ag21
aS'ABILH021'
p104
ag27
ag28
ag29
ag91
ag31
ag32
ag33
ag34
ag38
ag40
ag41
ag42
ag43
ag44
ag46
ag49
ag51
ag52
ag53
ag55
ag59
aS'MFIS 017'
p105
ag60
ag64
ag65
ag67
ag72
ag73
ag78
ag96
aS'EDINB001_0'
p106
ag80
ag81
ag99
atbsg86
NstRp107
ag2
(g3
(dp108
g5
g6
(g7
(I0
tS'b'
tRp109
(I1
(I47
tg10
I00
(lp110
g12
ag13
ag14
ag16
ag19
ag21
ag104
ag26
ag27
ag28
ag29
ag32
aS'FIM (SUB3'
p111
ag33
ag34
ag36
ag38
ag40
ag41
ag42
ag43
ag44
ag93
ag46
ag49
ag50
ag95
ag51
ag52
ag53
ag55
ag59
ag105
aS'MFIS 018'
p112
aS'MOCA 007'
p113
ag67
ag69
ag72
ag74
ag77
ag78
ag79
ag80
ag81
ag82
ag99
aS'EDINB008_0'
p114
atbsg86
NstRp115
ag2
(g3
(dp116
g5
g6
(g7
(I0
tS'b'
tRp117
(I1
(I93
tg10
I00
(lp118
S'ABILH008'
p119
ag14
ag15
ag16
aS'ABILH013'
p120
aS'ABILH016'
p121
ag19
ag20
ag21
ag104
aS'ABILHSUB1'
p122
aS'ABILHTOT'
p123
aS'FIM (001'
p124
ag24
ag25
ag26
aS'FIM (009'
p125
ag27
ag28
ag29
ag91
ag30
ag31
ag32
aS'FIM (019'
p126
ag111
ag33
aS'HADS 001'
p127
ag34
ag92
ag35
ag38
aS'HADS 009'
p128
aS'HADS 011'
p129
ag40
ag41
ag42
ag43
ag45
ag93
aS'LIFE 003'
p130
ag46
ag47
ag94
ag48
ag49
ag50
ag95
ag51
ag52
ag53
ag54
aS'MFIS 008'
p131
ag55
ag56
aS'MFIS 013'
p132
ag59
aS'MFIS 015'
p133
aS'MFIS 016'
p134
ag60
aS'MFIS 020'
p135
ag61
ag62
ag64
ag65
ag113
ag67
ag68
ag69
ag70
ag71
ag72
ag74
ag75
ag76
ag77
ag78
ag79
ag80
ag81
ag97
ag82
ag83
aS'EDINB004_1'
p136
ag84
aS'EDINB005_2'
p137
ag98
ag99
aS'EDINB007_1'
p138
ag114
aS'EDINB008_1'
p139
aS'EDINB010_0'
p140
aS'EDINB010_1'
p141
atbsg86
NstRp142
ag2
(g3
(dp143
g5
g6
(g7
(I0
tS'b'
tRp144
(I1
(I32
tg10
I00
(lp145
g13
ag16
ag19
ag21
ag26
ag28
ag29
ag91
ag32
ag33
ag34
ag36
ag38
ag39
ag40
ag43
ag93
ag46
ag49
ag95
ag51
ag52
ag53
ag55
ag59
ag65
ag73
ag74
ag78
ag96
ag79
ag81
atbsg86
NstRp146
ag2
(g3
(dp147
g5
g6
(g7
(I0
tS'b'
tRp148
(I1
(I48
tg10
I00
(lp149
g13
ag15
ag16
ag19
ag20
ag24
ag26
ag28
ag29
ag91
ag31
ag32
ag33
ag34
ag36
ag38
ag39
aS'HADS 010'
p150
ag40
ag41
ag42
aS'HADS SUB1'
p151
ag43
ag130
ag46
ag47
ag94
ag49
ag50
ag95
ag51
ag52
ag53
ag55
ag56
ag59
ag105
ag64
ag68
ag69
ag70
ag77
ag78
ag79
ag80
ag81
ag97
ag114
atbsg86
NstRp152
ag2
(g3
(dp153
g5
g6
(g7
(I0
tS'b'
tRp154
(I1
(I67
tg10
I00
(lp155
g13
ag119
ag14
ag15
ag16
ag19
ag20
ag21
ag104
ag22
ag24
ag26
ag27
ag28
ag29
ag91
ag31
ag32
ag126
ag111
ag33
ag127
ag34
ag36
ag38
ag40
ag41
ag42
ag43
ag46
ag47
ag49
ag50
ag95
ag51
ag52
ag53
ag55
ag56
ag59
ag60
ag62
ag63
ag64
ag65
ag113
ag66
ag67
ag68
ag69
ag71
ag72
ag73
ag77
ag78
ag96
ag106
ag80
ag81
ag97
ag82
ag136
ag98
ag99
aS'EDINB007_0'
p156
ag114
ag140
atbsg86
NstRp157
ag2
(g3
(dp158
g5
g6
(g7
(I0
tS'b'
tRp159
(I1
(I68
tg10
I00
(lp160
g119
ag14
aS'ABILH010'
p161
ag15
ag16
ag121
ag19
ag21
ag104
aS'ABILH023'
p162
ag26
ag27
ag28
ag29
ag91
ag30
ag31
ag111
ag33
ag127
ag34
ag92
ag36
ag38
ag128
ag40
ag41
ag42
ag43
ag93
ag46
ag47
ag94
ag48
ag49
ag50
ag95
ag51
ag52
ag53
ag55
ag56
ag59
ag60
aS'MFIS SUB3'
p163
aS'MOCA 002'
p164
ag64
ag65
ag113
ag66
ag67
ag68
ag69
ag71
ag72
ag73
ag75
ag76
ag77
ag78
ag96
ag79
ag80
ag81
ag82
ag98
ag99
ag140
atbsg86
NstRp165
ag2
(g3
(dp166
g5
g6
(g7
(I0
tS'b'
tRp167
(I1
(I61
tg10
I00
(lp168
S'ABILH001'
p169
ag12
ag14
ag161
ag16
ag18
ag19
ag21
ag24
ag26
ag27
ag28
ag29
ag31
ag32
ag33
ag127
ag34
ag36
ag37
ag38
ag128
ag129
ag40
ag41
ag42
ag43
ag93
ag46
ag47
aS'LIFE 006'
p170
ag94
ag49
ag50
ag95
ag51
ag53
ag55
ag59
ag134
ag61
ag64
ag65
ag67
ag69
ag70
ag72
ag73
ag74
ag77
ag78
ag96
ag79
ag80
ag81
aS'EDINB003_1'
p171
ag82
ag83
ag99
ag139
ag140
atbsg86
NstRp172
ag2
(g3
(dp173
g5
g6
(g7
(I0
tS'b'
tRp174
(I1
(I89
tg10
I00
(lp175
S'ABILH003'
p176
aS'ABILH004'
p177
aS'ABILH005'
p178
ag12
ag13
ag119
ag14
ag15
ag16
ag17
ag18
ag19
ag21
ag104
ag24
aS'FIM (004'
p179
ag25
ag26
ag27
ag28
ag29
ag91
ag31
ag32
aS'FIM (018'
p180
ag126
ag111
ag33
ag127
ag34
ag36
ag37
ag38
ag39
ag128
ag150
ag40
ag41
ag42
ag43
ag44
ag45
ag46
ag47
ag170
ag48
ag49
ag95
ag51
aS'MFIS 004'
p181
ag53
ag55
ag57
ag132
ag59
ag133
ag134
ag105
ag60
ag135
ag61
ag64
ag65
ag113
ag66
ag67
ag68
ag69
aS'OAB-Q001'
p182
ag71
ag72
ag73
ag74
aS'OAB-Q007'
p183
ag76
ag77
ag78
ag96
ag79
ag80
ag81
aS'EDINB002_2'
p184
ag97
ag82
ag136
ag99
ag156
ag138
ag141
atbsg86
NstRp185
ag2
(g3
(dp186
g5
g6
(g7
(I0
tS'b'
tRp187
(I1
(I57
tg10
I00
(lp188
g13
ag119
ag14
ag15
ag16
ag19
ag20
ag104
ag23
ag24
ag27
ag28
ag29
ag31
ag32
ag111
ag33
ag34
ag36
ag37
ag38
ag40
ag41
ag42
ag43
ag46
ag49
ag50
ag95
ag51
ag52
ag53
ag54
ag55
ag56
ag132
ag59
ag105
ag61
ag64
ag65
ag68
ag69
ag72
ag73
ag77
ag78
ag96
ag106
ag80
ag81
ag84
ag99
ag114
ag139
aS'EDINB009_0'
p189
aS'EDINB009_1'
p190
atbsg86
NstRp191
ag2
(g3
(dp192
g5
g6
(g7
(I0
tS'b'
tRp193
(I1
(I69
tg10
I00
(lp194
g169
ag14
ag15
ag16
ag18
ag19
ag20
ag21
ag104
ag22
ag24
ag27
ag28
ag29
ag91
ag31
ag32
ag111
ag33
ag34
ag36
ag38
ag129
ag40
ag41
ag42
ag43
ag45
ag93
ag46
ag47
ag170
ag94
ag49
ag50
ag51
ag52
aS'MFIS 005'
p195
ag53
ag55
ag59
ag60
aS'MFIS 021'
p196
ag61
ag63
ag64
ag65
ag113
ag67
ag68
ag69
ag182
ag72
ag73
ag74
ag76
ag77
ag78
ag96
ag79
ag80
ag81
ag97
ag136
ag137
ag99
ag139
ag189
ag140
atbsg86
NstRp197
ag2
(g3
(dp198
g5
g6
(g7
(I0
tS'b'
tRp199
(I1
(I67
tg10
I00
(lp200
g12
ag13
ag14
ag16
ag19
ag21
ag104
ag24
ag25
ag26
ag27
ag28
ag29
ag91
ag31
ag32
ag33
ag127
ag34
ag36
ag38
ag39
ag40
ag41
ag42
ag43
ag93
ag130
ag46
ag47
ag94
ag48
ag49
ag50
ag95
ag51
ag52
ag53
ag55
ag59
ag105
ag196
ag63
ag64
ag65
ag113
ag67
ag68
ag69
ag70
ag72
ag74
ag76
ag77
ag78
ag96
ag79
ag80
ag81
ag97
ag82
ag99
ag156
ag139
aS'EDINB008_2'
p201
ag140
aS'EDINB010_2'
p202
atbsg86
NstRp203
ag2
(g3
(dp204
g5
g6
(g7
(I0
tS'b'
tRp205
(I1
(I73
tg10
I00
(lp206
g176
ag12
ag13
ag14
ag15
ag16
ag17
ag18
ag19
ag21
ag104
ag24
ag25
ag26
ag27
ag28
ag29
ag31
ag32
ag126
ag33
ag127
ag34
ag36
ag38
ag128
ag40
ag41
ag42
ag43
ag93
ag46
ag47
aS'LIFE 008'
p207
ag49
ag50
ag95
ag51
ag52
ag181
ag53
ag54
ag58
ag132
ag59
ag133
ag60
ag196
ag61
ag164
ag64
ag113
ag67
ag68
ag69
ag72
ag73
ag74
ag76
ag77
ag78
ag96
ag106
ag80
ag81
ag97
ag82
ag83
ag136
ag98
ag99
ag114
ag139
atbsg86
NstRp208
ag2
(g3
(dp209
g5
g6
(g7
(I0
tS'b'
tRp210
(I1
(I80
tg10
I00
(lp211
g169
ag119
ag14
ag16
ag120
ag17
ag121
ag18
ag19
ag21
ag104
ag162
ag24
ag25
ag26
ag27
ag28
ag29
ag30
ag31
ag32
ag126
ag33
ag127
ag34
ag92
ag36
ag37
ag38
ag128
ag40
ag41
ag42
ag43
ag45
ag130
ag46
ag47
ag94
ag207
ag48
ag49
ag50
ag51
ag52
ag181
ag53
ag55
ag56
ag132
ag59
ag60
ag196
ag61
ag62
ag64
ag113
ag67
ag68
ag69
ag70
ag71
ag72
ag73
ag74
ag77
ag78
ag96
ag79
ag80
ag81
ag82
ag136
ag98
ag99
ag156
ag114
ag139
ag189
ag140
atbsg86
NstRp212
ag2
(g3
(dp213
g5
g6
(g7
(I0
tS'b'
tRp214
(I1
(I47
tg10
I00
(lp215
g13
ag16
ag19
ag20
ag21
ag24
ag26
ag27
ag28
ag29
ag31
ag32
ag33
ag34
ag36
ag38
ag40
ag41
ag42
ag43
ag44
ag45
ag46
ag170
ag94
ag49
ag50
ag95
ag51
ag52
ag53
ag55
ag59
ag60
ag64
ag68
ag72
ag73
ag74
ag76
ag77
ag78
ag96
ag80
ag81
ag82
ag139
atbsg86
NstRp216
ag2
(g3
(dp217
g5
g6
(g7
(I0
tS'b'
tRp218
(I1
(I46
tg10
I00
(lp219
g119
ag16
ag19
ag20
ag21
ag104
ag27
ag28
ag29
ag31
ag32
ag33
ag34
ag36
ag38
ag40
ag41
ag42
ag151
ag43
ag46
ag48
ag49
ag95
ag51
ag52
ag53
ag55
ag59
ag105
ag61
ag64
ag69
ag73
ag74
ag183
ag75
ag77
ag78
ag96
ag79
ag80
ag97
ag83
ag99
ag201
atbsg86
NstRp220
ag2
(g3
(dp221
g5
g6
(g7
(I0
tS'b'
tRp222
(I1
(I52
tg10
I00
(lp223
g16
ag17
ag19
ag21
ag104
ag27
ag28
ag29
ag91
ag31
ag32
ag33
ag127
ag34
ag92
ag36
ag38
ag40
ag41
ag42
ag43
ag46
ag49
ag50
ag51
ag52
ag53
ag55
ag59
ag60
ag61
ag64
ag67
ag68
ag69
ag182
ag72
ag73
ag75
ag77
ag78
ag96
ag79
ag80
ag81
ag97
ag136
ag84
ag99
ag156
ag114
ag139
atbsg86
NstRp224
ag2
(g3
(dp225
g5
g6
(g7
(I0
tS'b'
tRp226
(I1
(I78
tg10
I00
(lp227
g176
ag177
ag178
ag13
ag14
ag161
ag16
ag18
ag19
ag21
ag104
ag162
ag24
ag179
ag25
ag26
ag27
ag28
ag29
ag30
ag31
ag32
ag180
ag126
ag111
ag33
ag127
ag34
ag92
ag36
ag38
ag128
ag129
ag40
ag41
ag42
ag43
ag45
ag93
ag130
ag46
ag170
ag94
ag207
ag49
ag50
ag51
ag52
ag53
ag55
ag56
ag57
ag58
ag132
ag59
ag133
ag60
ag63
ag64
ag65
ag67
ag68
ag69
ag70
ag72
ag73
ag74
ag183
ag77
ag78
ag96
ag79
ag80
ag81
ag97
ag84
ag99
ag138
atbsg86
NstRp228
ag2
(g3
(dp229
g5
g6
(g7
(I0
tS'b'
tRp230
(I1
(I50
tg10
I00
(lp231
g13
ag161
ag15
ag16
ag19
ag20
ag21
ag26
ag27
ag28
ag29
ag31
ag33
ag34
ag36
ag38
ag40
ag41
ag42
ag43
ag44
ag46
ag94
ag49
ag50
ag51
ag52
ag53
ag55
ag56
ag59
ag61
ag64
ag65
ag66
ag69
ag72
ag73
ag183
ag77
ag78
ag96
ag106
ag80
ag81
ag97
ag98
ag99
ag156
ag139
atbsg86
NstRp232
ag2
(g3
(dp233
g5
g6
(g7
(I0
tS'b'
tRp234
(I1
(I43
tg10
I00
(lp235
g13
ag16
ag19
ag27
ag28
ag29
ag91
ag31
ag32
ag33
ag34
ag35
ag36
ag38
ag40
ag41
ag42
ag43
ag46
ag94
ag207
ag49
ag50
ag95
ag51
ag52
ag53
ag55
ag56
ag61
ag64
ag65
ag68
ag69
ag72
ag73
ag74
ag77
ag78
ag96
ag79
ag81
ag98
atbsg86
NstRp236
ag2
(g3
(dp237
g5
g6
(g7
(I0
tS'b'
tRp238
(I1
(I44
tg10
I00
(lp239
g13
ag14
ag16
ag19
ag21
ag27
ag28
ag29
ag91
ag31
ag32
ag126
ag33
ag34
ag36
ag38
ag128
ag40
ag41
ag42
ag43
ag93
ag46
ag47
ag48
ag49
ag51
ag52
ag53
ag59
ag105
ag68
ag69
ag72
ag74
ag75
ag77
ag78
ag96
ag79
ag81
ag99
ag114
ag139
atbsg86
NstRp240
ag2
(g3
(dp241
g5
g6
(g7
(I0
tS'b'
tRp242
(I1
(I37
tg10
I00
(lp243
g13
ag14
ag16
ag19
ag21
aS'FIM (005'
p244
ag26
ag28
ag29
ag31
ag32
ag33
ag34
ag38
ag41
ag42
ag43
ag46
ag49
ag51
ag52
ag53
ag55
ag59
ag61
ag64
ag66
ag69
ag72
ag73
ag77
ag78
ag96
ag80
ag81
ag97
ag99
atbsg86
NstRp245
ag2
(g3
(dp246
g5
g6
(g7
(I0
tS'b'
tRp247
(I1
(I63
tg10
I00
(lp248
g169
ag13
ag119
ag14
ag161
ag16
ag19
ag21
ag104
ag23
ag24
ag26
ag27
ag28
ag29
ag91
ag31
ag32
ag111
ag33
ag127
ag34
ag36
ag38
ag150
ag40
ag41
ag42
ag43
ag46
ag47
ag94
ag207
ag49
ag95
ag51
ag52
ag53
ag55
ag56
ag59
ag60
ag135
ag61
ag64
ag65
ag113
ag67
ag68
ag69
ag72
ag73
ag74
ag76
ag77
ag78
ag96
ag80
ag82
ag136
ag99
ag156
ag114
atbsg86
NstRp249
ag2
(g3
(dp250
g5
g6
(g7
(I0
tS'b'
tRp251
(I1
(I62
tg10
I00
(lp252
S'ABILH002'
p253
ag13
ag119
ag14
ag161
ag15
ag16
ag19
ag21
ag104
ag162
ag24
ag26
ag28
ag29
ag31
ag32
ag126
ag111
ag33
ag34
ag36
ag38
ag128
ag40
ag41
ag42
ag43
ag44
ag45
ag46
ag48
ag49
ag50
ag95
ag51
ag52
ag53
ag55
ag56
ag59
ag61
ag65
ag113
ag67
ag68
ag69
ag182
ag71
ag72
ag73
ag78
ag96
ag80
ag81
ag82
ag83
ag84
ag85
ag99
ag201
ag140
atbsg86
NstRp254
ag2
(g3
(dp255
g5
g6
(g7
(I0
tS'b'
tRp256
(I1
(I77
tg10
I00
(lp257
g169
ag253
ag13
ag119
ag14
ag161
ag15
ag16
ag17
ag18
ag19
ag21
ag104
ag22
ag24
ag26
ag27
ag28
ag29
ag31
ag32
ag33
ag127
ag34
ag92
ag36
ag38
ag150
ag41
ag42
ag43
ag44
ag45
ag130
ag46
ag170
ag49
ag50
ag95
ag51
ag52
ag53
ag54
ag131
ag55
ag59
ag105
ag60
ag61
ag164
ag63
ag64
ag65
ag67
ag68
ag69
ag70
ag72
ag73
ag74
ag76
ag77
ag78
ag96
ag79
ag80
ag81
ag97
ag82
ag136
ag84
ag85
ag99
ag156
ag139
ag189
ag140
atbsg86
NstRp258
ag2
(g3
(dp259
g5
g6
(g7
(I0
tS'b'
tRp260
(I1
(I38
tg10
I00
(lp261
g16
ag19
ag21
ag26
ag28
ag29
ag32
ag33
ag34
ag36
ag38
ag40
ag42
ag93
ag46
ag94
ag207
ag95
ag51
ag52
ag53
ag55
ag56
ag59
ag60
ag163
ag64
ag65
ag69
ag73
ag74
ag76
ag78
ag79
ag80
ag81
ag97
ag99
atbsg86
NstRp262
ag2
(g3
(dp263
g5
g6
(g7
(I0
tS'b'
tRp264
(I1
(I116
tg10
I00
(lp265
g169
ag177
ag12
ag13
ag119
ag14
ag15
ag16
ag120
aS'ABILH014'
p266
ag121
ag18
ag19
ag21
ag104
ag22
ag162
ag123
ag124
ag23
ag24
ag179
ag244
ag25
ag26
ag125
ag27
ag28
ag29
ag30
ag31
ag32
ag180
ag126
ag111
ag33
ag127
ag34
ag92
ag36
ag37
ag38
ag128
ag150
ag129
ag40
ag41
ag42
ag43
ag45
ag93
ag130
ag46
ag47
ag94
ag48
ag49
ag50
ag95
ag51
ag52
ag181
ag195
ag53
ag131
ag55
ag58
ag59
ag133
ag134
ag105
ag112
ag60
ag135
ag61
ag62
ag63
ag64
ag65
ag113
ag66
ag67
ag68
ag69
ag182
ag70
ag71
ag72
ag73
ag74
ag183
ag75
ag76
ag77
ag78
ag96
ag106
ag79
ag80
ag81
ag184
ag97
ag82
ag83
ag136
ag84
ag137
ag98
ag99
ag138
ag114
ag201
ag189
aS'EDINB009_2'
p267
ag140
ag141
atbsg86
NstRp268
ag2
(g3
(dp269
g5
g6
(g7
(I0
tS'b'
tRp270
(I1
(I79
tg10
I00
(lp271
g12
ag13
ag14
ag161
ag15
ag16
ag17
ag18
ag19
ag20
ag21
ag104
ag22
ag24
ag244
ag25
ag26
ag27
ag28
ag29
ag30
ag31
ag32
ag33
ag127
ag34
ag92
ag36
ag38
ag40
ag41
ag42
ag43
ag45
ag93
ag130
ag46
ag47
ag170
ag49
ag50
ag51
ag52
ag181
ag195
ag53
ag54
ag55
ag56
ag59
ag63
ag64
ag65
ag113
ag67
ag68
ag69
ag72
ag73
ag74
ag75
ag76
ag77
ag78
ag96
ag106
ag79
ag81
ag82
ag136
ag84
ag137
ag98
ag99
ag138
aS'EDINB007_2'
p272
ag189
ag140
ag141
atbsg86
NstRp273
ag2
(g3
(dp274
g5
g6
(g7
(I0
tS'b'
tRp275
(I1
(I42
tg10
I00
(lp276
g253
ag13
ag16
ag19
ag20
ag21
ag26
ag27
ag28
ag29
ag31
ag32
ag33
ag34
ag38
ag128
ag40
ag41
ag43
ag93
ag46
ag94
ag50
ag95
ag51
ag52
ag53
ag55
ag56
ag59
ag60
ag61
ag65
ag69
ag72
ag73
ag75
ag78
ag96
ag80
ag81
ag97
atbsg86
NstRp277
ag2
(g3
(dp278
g5
g6
(g7
(I0
tS'b'
tRp279
(I1
(I50
tg10
I00
(lp280
g15
ag16
ag19
ag20
ag21
ag104
ag26
ag27
ag28
ag29
ag91
ag31
ag32
ag111
ag33
ag34
ag36
ag38
ag128
ag40
ag41
ag43
ag46
ag170
ag94
ag49
ag50
ag95
ag51
ag52
ag53
ag55
ag59
ag105
ag60
ag61
ag63
ag64
ag67
ag69
ag72
ag73
ag78
ag96
ag80
ag81
ag98
ag99
ag139
ag201
atbsg86
NstRp281
ag2
(g3
(dp282
g5
g6
(g7
(I0
tS'b'
tRp283
(I1
(I77
tg10
I00
(lp284
g253
ag177
ag12
ag13
ag14
ag15
ag16
ag17
ag18
ag19
ag20
ag21
ag104
ag24
ag25
ag26
ag27
ag28
ag29
ag31
ag32
ag126
ag111
ag33
ag127
ag34
ag92
ag36
ag38
ag39
ag150
ag40
ag41
ag42
ag43
ag44
ag45
ag93
ag130
ag46
ag47
ag94
ag49
ag50
ag95
ag51
ag52
ag53
ag54
ag55
ag132
ag59
ag105
ag60
ag61
ag63
ag64
ag65
ag113
ag66
ag67
ag68
ag69
ag73
ag74
ag75
ag76
ag77
ag78
ag79
ag81
ag82
ag136
aS'EDINB004_2'
p285
ag99
ag156
ag140
atbsg86
NstRp286
ag2
(g3
(dp287
g5
g6
(g7
(I0
tS'b'
tRp288
(I1
(I74
tg10
I00
(lp289
g12
ag13
ag14
ag16
ag17
ag18
ag19
ag20
ag21
ag104
ag24
ag25
ag26
ag27
ag28
ag29
ag31
ag32
ag126
ag33
ag34
ag36
ag37
ag38
ag150
ag129
ag40
ag41
ag42
ag43
ag93
ag130
ag46
ag47
ag94
ag48
ag49
ag50
ag51
ag52
ag195
ag131
ag55
ag56
ag59
ag60
ag61
ag164
ag64
ag65
ag113
ag67
ag68
ag69
ag70
ag72
ag73
ag183
ag75
ag77
ag78
ag96
ag79
ag80
ag81
ag97
ag82
ag136
ag85
ag99
ag138
ag201
ag189
ag140
atbsg86
NstRp290
ag2
(g3
(dp291
g5
g6
(g7
(I0
tS'b'
tRp292
(I1
(I107
tg10
I00
(lp293
g169
ag177
ag13
ag119
ag14
ag15
ag16
ag17
ag121
ag18
ag19
ag20
ag21
ag104
ag22
ag162
ag124
ag23
ag24
ag179
ag25
ag26
ag27
ag28
ag29
ag30
ag31
ag32
ag180
ag126
ag111
ag33
ag127
ag34
ag92
ag35
ag36
ag37
ag38
ag39
ag128
ag129
ag40
ag41
ag42
ag43
ag44
ag45
ag93
ag46
ag47
ag170
ag94
ag48
ag49
ag50
aS'LIFE TOT'
p294
ag95
ag51
ag52
ag131
ag55
ag56
ag57
ag58
ag132
ag59
ag134
ag112
ag60
ag135
ag196
ag61
ag63
ag64
ag65
ag113
ag66
ag67
ag68
ag182
ag70
ag71
ag72
ag73
ag74
ag183
ag75
ag76
ag77
ag78
ag96
ag79
ag80
ag81
ag184
ag82
ag285
ag84
ag85
ag99
ag156
ag138
ag114
ag139
ag189
ag267
atbsg86
NstRp295
ag2
(g3
(dp296
g5
g6
(g7
(I0
tS'b'
tRp297
(I1
(I92
tg10
I00
(lp298
g177
ag12
ag13
ag14
ag16
ag120
ag17
ag121
ag18
ag19
ag20
ag21
ag104
ag162
ag124
ag23
ag24
ag179
ag244
ag25
ag26
ag27
ag28
ag29
ag30
ag31
ag32
ag180
ag33
ag127
ag34
ag35
ag36
ag38
ag39
ag129
ag40
ag41
ag42
ag43
ag45
ag93
ag46
ag47
ag94
ag49
ag50
ag95
ag51
ag52
ag181
ag195
ag53
ag131
ag55
ag56
ag58
ag59
ag134
ag105
ag60
ag135
ag61
ag62
ag63
ag64
ag65
ag113
ag66
ag67
ag68
ag70
ag72
ag73
ag183
ag75
ag77
ag78
ag96
ag106
ag80
ag81
ag97
ag82
ag83
ag285
ag98
ag99
ag138
ag189
ag140
ag141
atbsg86
NstRp299
ag2
(g3
(dp300
g5
g6
(g7
(I0
tS'b'
tRp301
(I1
(I77
tg10
I00
(lp302
g253
ag12
ag13
ag119
ag14
ag16
ag17
ag18
ag19
ag20
ag21
ag104
ag162
ag23
ag24
ag26
ag27
ag28
ag29
ag30
ag31
ag32
ag111
ag33
ag127
ag34
ag92
ag35
ag36
ag37
ag38
ag40
ag41
ag42
ag43
ag44
ag45
ag46
ag94
ag207
ag49
ag50
ag51
ag52
ag53
ag54
ag55
ag132
ag59
ag133
ag134
ag60
ag61
ag63
ag64
ag65
ag113
ag67
ag68
ag69
ag70
ag71
ag72
ag73
ag75
ag77
ag78
ag96
ag79
ag80
ag81
ag82
ag84
ag137
ag98
ag99
ag201
atbsg86
NstRp303
ag2
(g3
(dp304
g5
g6
(g7
(I0
tS'b'
tRp305
(I1
(I100
tg10
I00
(lp306
g169
ag12
ag13
ag119
ag14
ag15
ag16
ag17
ag121
ag18
ag19
ag20
ag21
ag104
ag22
ag23
ag24
ag179
ag25
ag26
ag27
ag28
ag29
ag30
ag31
ag32
ag180
ag126
ag111
ag33
ag127
ag34
ag92
ag35
ag36
ag37
ag38
ag150
ag40
ag41
ag42
ag43
ag45
ag93
ag130
ag46
ag47
ag94
ag49
ag50
ag294
ag95
ag51
ag52
ag53
ag54
ag131
ag55
ag56
ag58
ag132
ag59
ag133
ag105
ag112
ag60
ag61
ag164
ag62
ag64
ag65
ag113
ag66
ag67
ag68
ag69
ag182
ag70
ag72
ag73
ag74
ag183
ag75
ag77
ag78
ag96
ag79
ag80
ag81
ag97
ag82
ag136
ag285
ag84
ag98
ag99
ag156
ag138
ag139
ag141
atbsg86
NstRp307
ag2
(g3
(dp308
g5
g6
(g7
(I0
tS'b'
tRp309
(I1
(I68
tg10
I00
(lp310
g253
ag12
ag13
ag14
ag161
ag16
ag18
ag19
ag20
ag21
ag104
ag24
ag26
ag27
ag28
ag29
ag31
ag32
ag33
ag127
ag34
ag36
ag37
ag38
ag40
ag42
ag43
ag45
ag46
ag47
ag170
ag94
ag48
ag49
ag50
ag95
ag51
ag52
ag181
ag53
ag55
ag59
ag105
ag60
ag61
ag63
ag64
ag113
ag67
ag68
ag69
ag182
ag73
ag74
ag75
ag76
ag77
ag78
ag80
ag81
ag171
ag82
ag137
ag85
ag99
ag139
ag140
ag202
atbsg86
NstRp311
ag2
(g3
(dp312
g5
g6
(g7
(I0
tS'b'
tRp313
(I1
(I29
tg10
I00
(lp314
g13
ag16
ag19
ag28
ag29
ag31
ag32
ag33
ag34
ag36
ag38
ag43
ag46
ag207
ag49
ag95
ag51
ag52
ag53
ag55
ag59
ag105
ag60
ag113
ag68
ag74
ag78
ag80
ag81
atbsg86
NstRp315
ag2
(g3
(dp316
g5
g6
(g7
(I0
tS'b'
tRp317
(I1
(I110
tg10
I00
(lp318
g176
ag177
ag12
ag13
ag119
ag14
ag161
ag15
ag16
ag266
ag17
ag18
ag19
ag20
ag21
ag104
ag22
ag162
ag23
ag24
ag179
ag244
ag25
ag26
ag125
ag27
ag28
ag29
ag30
ag31
ag32
ag126
ag111
ag33
ag127
ag34
ag92
ag36
ag38
ag128
ag150
ag129
ag40
ag41
ag42
ag43
ag44
ag45
ag93
ag130
ag46
ag47
ag170
ag94
ag207
ag48
ag49
ag50
ag95
ag51
ag52
ag53
ag54
ag131
ag55
ag56
ag57
ag58
ag132
ag59
ag133
ag60
ag135
ag196
ag61
ag63
ag64
ag65
ag113
ag66
ag67
ag68
ag69
ag70
ag71
ag72
ag73
ag74
ag183
ag75
ag76
ag77
ag78
ag96
ag79
ag80
ag81
ag184
ag97
ag82
ag83
ag136
ag98
ag99
ag156
ag114
ag139
ag189
ag190
ag202
atbsg86
NstRp319
ag2
(g3
(dp320
g5
g6
(g7
(I0
tS'b'
tRp321
(I1
(I65
tg10
I00
(lp322
g13
ag119
ag14
ag15
ag16
ag18
ag19
ag21
ag104
ag22
ag26
ag27
ag28
ag29
ag91
ag31
ag32
ag33
ag127
ag34
ag36
ag38
ag150
ag40
ag41
ag42
ag43
ag44
ag45
ag93
ag46
ag47
ag49
ag50
ag95
ag51
ag52
ag53
ag131
ag55
ag56
ag59
ag105
ag60
ag196
ag61
ag64
ag65
ag67
ag68
ag69
ag72
ag73
ag183
ag76
ag77
ag78
ag96
ag106
ag80
ag81
ag82
ag98
ag99
ag114
atbsg86
NstRp323
ag2
(g3
(dp324
g5
g6
(g7
(I0
tS'b'
tRp325
(I1
(I47
tg10
I00
(lp326
g16
ag19
ag21
ag104
ag26
ag27
ag28
ag29
ag32
ag33
ag34
ag36
ag38
ag40
ag41
ag43
ag46
ag47
ag94
ag49
ag50
ag95
ag51
ag52
ag53
ag55
ag56
ag59
ag105
ag60
ag63
ag64
ag69
ag72
ag74
ag77
ag78
ag96
ag106
ag80
ag81
ag82
ag83
ag98
ag99
ag139
ag140
atbsg86
NstRp327
ag2
(g3
(dp328
g5
g6
(g7
(I0
tS'b'
tRp329
(I1
(I80
tg10
I00
(lp330
g12
ag13
ag14
ag161
ag16
ag17
ag121
ag19
ag20
ag21
ag24
ag25
ag26
ag27
ag28
ag29
ag31
ag32
ag126
ag33
ag127
ag34
ag92
ag36
ag38
ag150
ag129
ag40
ag41
ag42
ag43
ag44
ag45
ag93
ag46
ag170
ag94
ag49
ag50
ag294
ag95
ag51
ag52
ag195
ag53
ag55
ag56
ag132
ag59
ag60
ag61
ag164
ag64
ag113
ag66
ag67
ag68
ag69
ag70
ag72
ag73
ag74
ag183
ag76
ag78
ag96
ag79
ag80
ag81
ag97
ag82
ag136
ag84
ag98
ag99
ag156
ag138
ag114
ag189
ag140
atbsg86
NstRp331
ag2
(g3
(dp332
g5
g6
(g7
(I0
tS'b'
tRp333
(I1
(I63
tg10
I00
(lp334
g12
ag13
ag14
ag15
ag16
ag18
ag19
ag21
ag104
ag23
ag24
ag25
ag26
ag27
ag28
ag29
ag31
ag32
ag126
ag111
ag33
ag34
ag36
ag38
ag40
ag41
ag42
ag43
ag45
ag93
ag46
ag47
ag94
ag49
ag50
ag51
ag52
ag53
ag59
ag105
ag60
ag61
ag64
ag113
ag67
ag68
ag69
ag70
ag71
ag73
ag75
ag77
ag78
ag96
ag106
ag80
ag81
ag82
ag136
ag98
ag139
ag201
ag189
atbsg86
NstRp335
ag2
(g3
(dp336
g5
g6
(g7
(I0
tS'b'
tRp337
(I1
(I96
tg10
I00
(lp338
g177
ag12
ag13
ag119
ag14
ag161
ag15
ag16
ag120
ag17
ag121
ag18
ag19
ag20
ag21
ag104
ag22
ag124
ag24
ag25
ag26
ag27
ag28
ag29
ag91
ag30
ag31
ag32
ag126
ag33
ag127
ag34
ag92
ag35
ag36
ag37
ag38
ag39
ag128
ag150
ag40
ag41
ag42
ag43
ag45
ag130
ag46
ag47
ag170
ag94
ag207
ag48
ag49
ag50
ag95
ag51
ag52
ag53
ag54
ag56
ag57
ag58
ag59
ag134
ag105
ag112
ag60
ag135
ag163
ag61
ag62
ag64
ag65
ag113
ag67
ag68
ag69
ag70
ag71
ag72
ag73
ag74
ag183
ag78
ag96
ag106
ag80
ag81
ag171
ag82
ag83
ag136
ag84
ag99
ag114
ag141
atbsg86
NstRp339
ag2
(g3
(dp340
g5
g6
(g7
(I0
tS'b'
tRp341
(I1
(I49
tg10
I00
(lp342
g169
ag13
ag16
ag19
ag104
ag26
ag27
ag28
ag29
ag91
ag31
ag32
ag111
ag33
ag34
ag36
ag38
ag150
ag40
ag41
ag43
ag44
ag93
ag46
ag47
ag49
ag50
ag95
ag51
ag52
ag53
ag55
ag59
ag105
ag60
ag64
ag113
ag69
ag72
ag74
ag77
ag78
ag96
ag80
ag81
ag84
ag98
ag99
ag139
atbsg86
NstRp343
ag2
(g3
(dp344
g5
g6
(g7
(I0
tS'b'
tRp345
(I1
(I49
tg10
I00
(lp346
g13
ag14
ag16
ag19
ag104
ag24
ag26
ag27
ag28
ag29
ag91
ag32
ag33
ag34
ag36
ag38
ag40
ag41
ag42
ag43
ag93
ag46
ag47
ag94
ag48
ag49
ag95
ag51
ag52
ag53
ag55
ag56
ag59
ag196
ag62
ag64
ag69
ag72
ag74
ag76
ag77
ag78
ag96
ag79
ag80
ag81
ag97
ag82
ag98
atbsg86
NstRp347
ag2
(g3
(dp348
g5
g6
(g7
(I0
tS'b'
tRp349
(I1
(I77
tg10
I00
(lp350
g176
ag12
ag13
ag14
ag16
ag17
ag121
ag19
ag20
ag21
ag104
ag22
ag162
ag25
ag26
ag27
ag28
ag29
ag91
ag30
ag31
ag32
ag126
ag111
ag33
ag127
ag34
ag36
ag38
ag40
ag41
ag42
ag43
ag44
ag45
ag46
ag47
ag94
ag48
ag49
ag50
ag95
ag51
ag52
ag53
ag131
ag55
ag59
ag134
ag60
ag61
ag62
ag64
ag65
ag113
ag67
ag68
ag69
ag72
ag73
ag183
ag75
ag76
ag77
ag78
ag96
ag79
ag80
ag81
ag171
ag82
ag84
ag98
ag99
ag156
ag189
ag140
atbsg86
NstRp351
ag2
(g3
(dp352
g5
g6
(g7
(I0
tS'b'
tRp353
(I1
(I38
tg10
I00
(lp354
g13
ag16
ag19
ag104
ag24
ag26
ag28
ag29
ag91
ag32
ag33
ag34
ag36
ag38
ag39
ag40
ag41
ag43
ag44
ag46
ag94
ag49
ag95
ag51
ag52
ag55
ag56
ag59
ag65
ag113
ag73
ag74
ag75
ag77
ag78
ag96
ag80
ag139
atbsg86
NstRp355
ag2
(g3
(dp356
g5
g6
(g7
(I0
tS'b'
tRp357
(I1
(I40
tg10
I00
(lp358
g169
ag14
ag15
ag16
ag19
ag21
ag104
ag26
ag27
ag28
ag29
ag32
ag33
ag34
ag36
ag38
ag128
ag40
ag41
ag42
ag43
ag46
ag49
ag51
ag52
ag56
ag59
ag60
ag64
ag66
ag69
ag74
ag77
ag78
ag96
ag79
ag80
ag81
ag82
ag139
atbsg86
NstRp359
ag2
(g3
(dp360
g5
g6
(g7
(I0
tS'b'
tRp361
(I1
(I83
tg10
I00
(lp362
g12
ag13
ag14
ag161
ag16
ag17
ag18
ag19
ag21
ag104
ag22
ag162
ag23
ag24
ag25
ag26
ag27
ag28
ag29
ag91
ag30
ag31
ag32
ag126
ag33
ag127
ag34
ag92
ag36
ag37
ag38
ag39
ag150
ag40
ag41
ag42
ag43
ag45
ag93
ag46
ag47
ag170
ag94
ag48
ag49
ag50
ag95
ag51
ag52
ag53
ag131
ag55
ag58
ag59
ag105
ag60
ag61
ag62
ag64
ag65
ag113
ag67
ag68
ag69
ag70
ag72
ag73
ag74
ag183
ag77
ag78
ag96
ag80
ag81
ag171
ag82
ag83
ag85
ag156
ag138
ag139
ag201
ag140
atbsg86
NstRp363
ag2
(g3
(dp364
g5
g6
(g7
(I0
tS'b'
tRp365
(I1
(I25
tg10
I00
(lp366
g12
ag16
ag19
ag21
ag28
ag29
ag33
ag34
ag38
ag41
ag46
ag49
ag51
ag52
ag53
ag56
ag59
ag135
ag69
ag74
ag78
ag96
ag79
ag80
ag81
atbsg86
NstRp367
ag2
(g3
(dp368
g5
g6
(g7
(I0
tS'b'
tRp369
(I1
(I68
tg10
I00
(lp370
g169
ag253
ag12
ag13
ag119
ag14
ag16
ag19
ag21
ag104
ag24
ag26
ag28
ag29
ag31
ag32
ag111
ag33
ag127
ag34
ag36
ag37
ag38
ag128
ag40
ag41
ag42
ag43
ag45
ag46
ag47
ag170
ag94
ag48
ag49
ag50
ag51
ag52
ag53
ag54
ag55
ag56
ag59
ag134
ag105
ag60
ag61
ag64
ag65
ag68
ag69
ag72
ag73
ag76
ag77
ag78
ag96
ag79
ag80
ag81
ag82
ag83
ag136
ag98
ag99
ag114
ag139
ag140
atbsg86
NstRp371
ag2
(g3
(dp372
g5
g6
(g7
(I0
tS'b'
tRp373
(I1
(I60
tg10
I00
(lp374
g253
ag177
ag13
ag14
ag16
ag19
ag21
ag104
ag24
ag27
ag28
ag29
ag91
ag31
ag111
ag33
ag127
ag34
ag92
ag36
ag38
ag39
ag40
ag41
ag42
ag43
ag44
ag93
ag130
ag46
ag49
ag294
ag95
ag51
ag52
ag55
ag56
ag59
ag60
ag63
ag64
ag65
ag113
ag67
ag68
ag69
ag72
ag74
ag77
ag78
ag96
ag106
ag80
ag81
ag136
aS'EDINB005_1'
p375
ag98
ag99
ag189
ag140
atbsg86
NstRp376
ag2
(g3
(dp377
g5
g6
(g7
(I0
tS'b'
tRp378
(I1
(I46
tg10
I00
(lp379
g253
ag13
ag14
ag19
ag20
ag21
ag26
ag27
ag28
ag29
ag91
ag32
ag33
ag36
ag38
ag40
ag41
ag43
ag44
ag46
ag94
ag49
ag95
ag51
ag52
ag55
ag56
ag59
ag61
ag64
ag65
ag113
ag67
ag68
ag69
ag72
ag74
ag76
ag78
ag96
ag79
ag80
ag81
ag97
ag99
ag139
atbsg86
NstRp380
ag2
(g3
(dp381
g5
g6
(g7
(I0
tS'b'
tRp382
(I1
(I110
tg10
I00
(lp383
g177
ag12
ag13
ag119
ag14
ag15
ag16
ag120
ag17
ag121
ag19
ag20
ag21
ag104
ag22
ag162
ag23
ag24
ag179
ag25
ag26
ag125
ag27
ag28
ag29
ag91
ag30
ag31
ag32
ag126
ag33
ag127
ag34
ag35
ag36
ag37
ag38
ag39
ag128
ag150
ag129
ag40
ag41
ag42
ag43
ag44
ag45
ag93
ag46
ag47
ag170
ag94
ag207
ag48
ag49
ag50
ag95
ag51
ag52
ag181
ag53
ag54
ag131
ag55
ag56
ag58
ag132
ag59
ag105
ag60
ag135
ag196
ag61
ag62
ag63
ag64
ag65
ag113
ag66
ag67
ag68
ag69
ag182
ag70
ag72
ag73
ag183
ag75
ag76
ag77
ag78
ag96
ag79
ag80
ag81
ag171
ag82
ag83
ag136
ag84
ag137
ag98
ag99
ag156
ag114
ag139
ag189
ag267
ag140
ag141
atbsg86
NstRp384
ag2
(g3
(dp385
g5
g6
(g7
(I0
tS'b'
tRp386
(I1
(I100
tg10
I00
(lp387
g169
ag176
ag177
ag12
ag13
ag14
ag161
ag15
ag16
ag120
ag17
ag18
ag19
ag21
ag104
ag22
ag23
ag24
ag179
ag25
ag26
ag27
ag28
ag29
ag30
ag31
ag32
ag126
ag111
ag33
ag34
ag92
ag36
ag37
ag38
ag39
ag128
ag150
ag129
ag40
ag41
ag43
ag44
ag45
ag93
ag130
ag46
ag47
ag94
ag207
ag48
ag49
ag50
ag294
ag51
ag52
ag195
ag53
ag54
ag131
ag55
ag56
ag58
ag59
ag134
ag105
ag112
ag60
ag135
ag61
ag63
ag64
ag65
ag113
ag66
ag67
ag68
ag69
ag70
ag71
ag72
ag74
ag183
ag76
ag77
ag78
ag96
ag79
ag80
ag81
ag171
ag82
ag136
ag285
ag84
ag99
ag156
ag138
ag114
ag139
atbsg86
NstRp388
ag2
(g3
(dp389
g5
g6
(g7
(I0
tS'b'
tRp390
(I1
(I43
tg10
I00
(lp391
g13
ag14
ag15
ag16
ag19
ag21
ag26
ag28
ag29
ag91
ag32
ag33
ag34
ag36
ag38
ag40
ag41
ag42
ag43
ag46
ag49
ag50
ag95
ag51
ag52
ag53
ag56
ag59
ag64
ag65
ag69
ag72
ag74
ag76
ag77
ag78
ag96
ag80
ag97
ag82
ag136
ag99
ag139
atbsg86
NstRp392
ag2
(g3
(dp393
g5
g6
(g7
(I0
tS'b'
tRp394
(I1
(I63
tg10
I00
(lp395
g253
ag13
ag119
ag14
ag15
ag16
ag19
ag20
ag21
ag104
ag162
ag25
ag26
ag27
ag28
ag29
ag32
ag33
ag34
ag35
ag37
ag38
ag128
ag40
ag41
ag42
ag43
ag45
ag93
ag46
ag94
ag207
ag49
ag50
ag95
ag51
ag52
ag195
ag53
ag54
ag55
ag56
ag59
ag60
ag164
ag64
ag65
ag67
ag68
ag69
ag71
ag72
ag74
ag77
ag78
ag96
ag106
ag80
ag81
ag97
ag98
ag99
ag114
atbsg86
NstRp396
ag2
(g3
(dp397
g5
g6
(g7
(I0
tS'b'
tRp398
(I1
(I61
tg10
I00
(lp399
g169
ag13
ag14
ag15
ag16
ag18
ag19
ag20
ag21
ag22
ag24
ag26
ag28
ag29
ag31
ag32
ag126
ag33
ag127
ag34
ag38
ag40
ag41
ag42
ag43
ag45
ag93
ag130
ag46
ag94
ag48
ag49
ag50
ag95
ag51
ag52
ag53
ag59
ag60
ag61
ag62
ag64
ag65
ag67
ag68
ag69
ag72
ag73
ag74
ag77
ag78
ag96
ag79
ag80
ag81
ag97
ag82
ag136
ag285
ag99
ag114
atbsg86
NstRp400
ag2
(g3
(dp401
g5
g6
(g7
(I0
tS'b'
tRp402
(I1
(I94
tg10
I00
(lp403
g253
ag12
ag119
ag14
ag16
ag120
ag266
ag17
ag18
ag19
ag21
ag104
ag162
ag23
ag24
ag179
ag25
ag26
ag27
ag28
ag29
ag91
ag31
ag32
ag126
ag111
ag33
ag127
ag34
ag92
ag35
ag36
ag37
ag38
ag39
ag128
ag150
ag40
ag41
ag42
ag43
ag46
ag47
ag170
ag94
ag49
ag50
ag95
ag51
ag52
ag53
ag54
ag55
ag56
ag57
ag132
ag59
ag133
ag134
ag105
ag60
ag62
ag63
ag64
ag65
ag113
ag66
ag67
ag68
ag69
ag182
ag70
ag72
ag73
ag74
ag183
ag75
ag78
ag96
ag79
ag80
ag81
ag97
ag82
ag83
ag136
ag84
ag98
ag99
ag138
ag114
ag189
ag190
ag202
atbsg86
NstRp404
ag2
(g3
(dp405
g5
g6
(g7
(I0
tS'b'
tRp406
(I1
(I66
tg10
I00
(lp407
g253
ag13
ag14
ag15
ag16
ag17
ag121
ag18
ag19
ag20
ag21
ag104
ag22
ag26
ag27
ag28
ag29
ag31
ag32
ag126
ag33
ag34
ag36
ag38
ag128
ag150
ag40
ag41
ag42
ag43
ag46
ag47
ag170
ag94
ag49
ag50
ag95
ag51
ag52
ag55
ag56
ag59
ag60
ag61
ag62
ag64
ag65
ag67
ag69
ag70
ag72
ag73
ag74
ag77
ag78
ag96
ag79
ag81
ag97
ag83
ag136
ag98
ag99
ag156
ag138
ag189
atbsg86
NstRp408
ag2
(g3
(dp409
g5
g6
(g7
(I0
tS'b'
tRp410
(I1
(I63
tg10
I00
(lp411
g169
ag13
ag119
ag161
ag15
ag16
ag18
ag19
ag21
ag104
ag23
ag27
ag28
ag29
ag32
ag111
ag33
ag127
ag34
ag37
ag38
ag150
ag40
ag41
ag42
ag43
ag45
ag93
ag46
ag47
ag94
ag49
ag50
ag95
ag51
ag52
ag53
ag131
ag59
ag105
ag60
ag196
ag63
ag65
ag113
ag67
ag68
ag69
ag72
ag73
ag74
ag75
ag76
ag77
ag78
ag96
ag79
ag80
ag81
ag171
ag84
ag98
ag114
atbsg86
NstRp412
ag2
(g3
(dp413
g5
g6
(g7
(I0
tS'b'
tRp414
(I1
(I86
tg10
I00
(lp415
g169
ag253
ag12
ag13
ag14
ag15
ag16
ag18
ag19
ag20
ag21
ag104
ag22
ag23
ag24
ag179
ag25
ag26
ag27
ag28
ag29
ag30
ag31
ag32
ag111
ag33
ag34
ag35
ag37
ag38
ag39
ag40
ag41
ag42
ag43
ag44
ag93
ag46
ag49
ag50
ag95
ag51
ag52
ag195
ag53
ag54
ag55
ag56
ag58
ag59
ag133
ag60
ag135
ag196
ag61
ag62
ag64
ag65
ag113
ag66
ag67
ag68
ag69
ag182
ag70
ag72
ag73
ag74
ag183
ag75
ag77
ag78
ag96
ag79
ag80
ag81
ag82
ag136
ag285
ag84
ag99
ag156
ag139
ag190
ag140
ag141
atbsg86
NstRp416
ag2
(g3
(dp417
g5
g6
(g7
(I0
tS'b'
tRp418
(I1
(I56
tg10
I00
(lp419
g12
ag13
ag119
ag14
ag161
ag16
ag18
ag19
ag20
ag104
ag24
ag26
ag27
ag28
ag29
ag91
ag32
ag33
ag34
ag36
ag38
ag39
ag40
ag41
ag42
ag43
ag46
ag47
ag94
ag49
ag50
ag95
ag51
ag53
ag55
ag59
ag60
ag64
ag65
ag67
ag69
ag71
ag72
ag73
ag74
ag77
ag78
ag96
ag79
ag81
ag171
ag83
ag98
ag99
ag156
ag114
atbsg86
NstRp420
ag2
(g3
(dp421
g5
g6
(g7
(I0
tS'b'
tRp422
(I1
(I55
tg10
I00
(lp423
g177
ag13
ag14
ag161
ag16
ag19
ag21
ag104
ag26
ag27
ag28
ag29
ag91
ag31
ag32
ag126
ag33
ag34
ag36
ag38
ag128
ag150
ag40
ag41
ag42
ag43
ag93
ag46
ag49
ag50
ag95
ag51
ag52
ag53
ag55
ag132
ag59
ag61
ag64
ag65
ag67
ag69
ag72
ag73
ag78
ag96
ag79
ag80
ag81
ag97
ag83
ag136
ag85
ag114
ag140
atbsg86
NstRp424
ag2
(g3
(dp425
g5
g6
(g7
(I0
tS'b'
tRp426
(I1
(I68
tg10
I00
(lp427
g169
ag177
ag13
ag119
ag14
ag15
ag16
ag19
ag20
ag21
ag104
ag26
ag27
ag28
ag29
ag31
ag32
ag111
ag33
ag34
ag36
ag38
ag40
ag41
ag42
ag45
ag93
ag46
ag47
ag94
ag48
ag49
ag50
ag95
ag51
ag53
ag55
ag59
ag105
ag112
ag60
ag196
ag61
ag63
ag64
ag67
ag68
ag69
ag72
ag74
ag183
ag76
ag77
ag78
ag96
ag79
ag80
ag81
ag97
ag82
ag83
ag84
ag99
ag138
ag272
ag114
ag139
ag189
atbsg86
NstRp428
ag2
(g3
(dp429
g5
g6
(g7
(I0
tS'b'
tRp430
(I1
(I70
tg10
I00
(lp431
g253
ag12
ag13
ag14
ag16
ag19
ag21
ag104
ag162
ag23
ag24
ag25
ag26
ag27
ag28
ag29
ag31
ag32
ag126
ag111
ag33
ag127
ag34
ag36
ag37
ag38
ag40
ag41
ag42
ag43
ag46
ag47
ag94
ag49
ag50
ag95
ag51
ag52
ag195
ag131
ag55
ag56
ag57
ag58
ag59
ag134
ag60
ag135
ag61
ag64
ag65
ag67
ag68
ag69
ag72
ag74
ag77
ag78
ag96
ag106
ag79
ag81
ag97
ag82
ag85
ag99
ag156
ag114
ag201
ag140
atbsg86
NstRp432
ag2
(g3
(dp433
g5
g6
(g7
(I0
tS'b'
tRp434
(I1
(I62
tg10
I00
(lp435
g12
ag15
ag16
ag19
ag21
ag104
ag24
ag26
ag27
ag28
ag29
ag91
ag31
ag32
ag126
ag33
ag34
ag92
ag35
ag36
ag38
ag128
ag150
ag40
ag41
ag42
ag43
ag93
ag130
ag46
ag47
ag48
ag49
ag50
ag95
ag51
ag53
ag55
ag59
ag60
ag63
ag64
ag65
ag113
ag67
ag68
ag69
ag71
ag72
ag73
ag77
ag78
ag96
ag79
ag80
ag81
ag97
ag82
ag84
ag98
ag156
ag140
atbsg86
NstRp436
ag2
(g3
(dp437
g5
g6
(g7
(I0
tS'b'
tRp438
(I1
(I48
tg10
I00
(lp439
g12
ag14
ag16
ag19
ag21
ag104
ag26
ag27
ag28
ag29
ag32
ag33
ag34
ag36
ag38
ag40
ag41
ag43
ag93
ag46
ag47
ag170
ag94
ag49
ag50
ag51
ag52
ag53
ag55
ag56
ag59
ag60
ag164
ag64
ag65
ag67
ag68
ag69
ag72
ag73
ag77
ag78
ag96
ag106
ag80
ag81
ag97
ag156
atbsg86
NstRp440
ag2
(g3
(dp441
g5
g6
(g7
(I0
tS'b'
tRp442
(I1
(I68
tg10
I00
(lp443
g119
ag14
ag15
ag16
ag18
ag19
ag21
ag104
ag24
ag179
ag26
ag27
ag28
ag29
ag30
ag31
ag32
ag126
ag33
ag34
ag36
ag38
ag128
ag129
ag40
ag41
ag42
ag43
ag130
ag46
ag47
ag94
ag49
ag50
ag294
ag95
ag51
ag52
ag53
ag131
ag56
ag132
ag59
ag60
ag196
ag61
ag64
ag65
ag113
ag66
ag67
ag68
ag69
ag182
ag72
ag73
ag76
ag77
ag78
ag96
ag106
ag80
ag81
ag97
ag82
ag84
ag98
ag114
atbsg86
NstRp444
ag2
(g3
(dp445
g5
g6
(g7
(I0
tS'b'
tRp446
(I1
(I62
tg10
I00
(lp447
g13
ag16
ag19
ag20
ag21
ag104
ag23
ag24
ag26
ag27
ag28
ag29
ag31
ag32
ag33
ag34
ag36
ag37
ag38
ag128
ag40
ag41
ag42
ag43
ag45
ag46
ag170
ag49
ag50
ag95
ag51
ag52
ag53
ag131
ag55
ag59
ag105
ag60
ag62
ag64
ag65
ag113
ag67
ag68
ag69
ag72
ag73
ag74
ag183
ag77
ag78
ag79
ag80
ag81
ag82
ag136
ag84
ag98
ag99
ag272
ag114
ag140
atbsg86
NstRp448
ag2
(g3
(dp449
g5
g6
(g7
(I0
tS'b'
tRp450
(I1
(I67
tg10
I00
(lp451
g253
ag12
ag13
ag14
ag161
ag15
ag16
ag121
ag19
ag21
ag104
ag24
ag25
ag26
ag27
ag28
ag29
ag91
ag31
ag32
ag111
ag33
ag34
ag36
ag38
ag129
ag40
ag41
ag43
ag44
ag45
ag93
ag46
ag47
ag94
ag48
ag49
ag95
ag51
ag52
ag55
ag56
ag59
ag134
ag105
ag112
ag60
ag62
ag64
ag113
ag67
ag69
ag70
ag72
ag73
ag74
ag77
ag78
ag96
ag79
ag80
ag81
ag97
ag99
ag156
ag189
ag140
atbsg86
NstRp452
ag2
(g3
(dp453
g5
g6
(g7
(I0
tS'b'
tRp454
(I1
(I45
tg10
I00
(lp455
g13
ag14
ag16
ag19
ag21
ag26
ag28
ag29
ag31
ag32
ag33
ag34
ag36
ag38
ag128
ag40
ag41
ag42
ag43
ag93
ag46
ag49
ag50
ag95
ag51
ag52
ag53
ag55
ag59
ag64
ag66
ag67
ag69
ag72
ag73
ag77
ag78
ag96
ag79
ag80
ag81
ag97
ag82
ag85
ag99
atbsg86
NstRp456
ag2
(g3
(dp457
g5
g6
(g7
(I0
tS'b'
tRp458
(I1
(I60
tg10
I00
(lp459
g12
ag13
ag15
ag16
ag18
ag19
ag21
ag24
ag26
ag27
ag28
ag29
ag31
ag32
ag111
ag33
ag34
ag36
ag38
ag40
ag41
ag42
ag43
ag45
ag46
ag170
ag49
ag50
ag95
ag51
ag52
ag181
ag53
ag56
ag58
ag59
ag134
ag105
ag60
ag61
ag64
ag113
ag67
ag68
ag69
ag70
ag72
ag73
ag75
ag77
ag78
ag96
ag79
ag80
ag81
ag97
ag82
ag285
ag99
ag140
atbsg86
NstRp460
ag2
(g3
(dp461
g5
g6
(g7
(I0
tS'b'
tRp462
(I1
(I76
tg10
I00
(lp463
g169
ag253
ag13
ag119
ag14
ag15
ag16
ag18
ag19
ag20
ag21
ag104
ag23
ag24
ag26
ag27
ag28
ag29
ag31
ag32
ag33
ag127
ag34
ag92
ag36
ag37
ag38
ag39
ag128
ag129
ag40
ag41
ag42
ag43
ag44
ag93
ag46
ag47
ag94
ag49
ag50
ag51
ag52
ag181
ag53
ag55
ag56
ag58
ag59
ag60
ag196
ag61
ag64
ag65
ag67
ag68
ag69
ag72
ag73
ag74
ag183
ag75
ag77
ag78
ag96
ag79
ag80
ag81
ag171
ag82
ag285
ag84
ag98
ag99
ag189
ag140
atbsg86
NstRp464
ag2
(g3
(dp465
g5
g6
(g7
(I0
tS'b'
tRp466
(I1
(I30
tg10
I00
(lp467
g13
ag16
ag19
ag21
ag28
ag29
ag32
ag33
ag38
ag40
ag41
ag43
ag93
ag46
ag47
ag49
ag95
ag51
ag52
ag53
ag55
ag59
ag105
ag65
ag69
ag78
ag96
ag79
ag81
ag114
atbsg86
NstRp468
ag2
(g3
(dp469
g5
g6
(g7
(I0
tS'b'
tRp470
(I1
(I51
tg10
I00
(lp471
g178
ag12
ag13
ag161
ag16
ag19
ag104
ag24
ag26
ag28
ag29
ag31
ag32
ag33
ag34
ag36
ag38
ag40
ag41
ag42
ag43
ag44
ag45
ag93
ag46
ag47
ag49
ag95
ag51
ag52
ag53
ag55
ag56
ag59
ag196
ag61
ag64
ag113
ag66
ag68
ag69
ag72
ag73
ag77
ag78
ag96
ag80
ag81
ag97
ag99
ag139
atbsg86
NstRp472
ag2
(g3
(dp473
g5
g6
(g7
(I0
tS'b'
tRp474
(I1
(I44
tg10
I00
(lp475
g16
ag19
ag21
ag26
ag27
ag28
ag29
ag31
ag32
ag33
ag34
ag36
ag38
ag150
ag40
ag41
ag42
ag43
ag46
ag94
ag49
ag50
ag95
ag51
ag52
ag53
ag55
ag59
ag64
ag65
ag113
ag68
ag69
ag72
ag74
ag75
ag77
ag78
ag79
ag80
ag81
ag97
ag82
ag114
atbsg86
NstRp476
ag2
(g3
(dp477
g5
g6
(g7
(I0
tS'b'
tRp478
(I1
(I65
tg10
I00
(lp479
g177
ag13
ag16
ag19
ag20
ag21
ag104
ag22
ag27
ag28
ag29
ag91
ag31
ag32
ag126
ag33
ag127
ag34
ag36
ag38
ag39
ag40
ag41
ag43
ag93
ag46
ag47
ag207
ag49
ag50
ag95
ag51
ag52
ag55
ag56
ag59
ag105
ag60
ag196
ag61
ag63
ag64
ag65
ag67
ag68
ag69
ag73
ag75
ag76
ag77
ag78
ag96
ag79
ag80
ag81
ag97
ag82
ag83
ag136
ag84
ag85
ag99
ag139
ag201
ag140
atbsg86
NstRp480
ag2
(g3
(dp481
g5
g6
(g7
(I0
tS'b'
tRp482
(I1
(I61
tg10
I00
(lp483
g14
ag15
ag16
ag120
ag19
ag20
ag21
ag24
ag26
ag27
ag28
ag29
ag91
ag31
ag32
ag126
ag33
ag34
ag36
ag38
ag40
ag41
ag42
ag43
ag44
ag46
ag94
ag49
ag50
ag95
ag51
ag52
ag53
ag56
ag58
ag59
ag133
ag60
ag61
ag64
ag65
ag113
ag67
ag68
ag69
ag72
ag73
ag74
ag77
ag78
ag106
ag80
ag81
ag97
ag82
ag136
ag84
ag137
ag85
ag99
ag139
atbsg86
NstRp484
ag2
(g3
(dp485
g5
g6
(g7
(I0
tS'b'
tRp486
(I1
(I109
tg10
I00
(lp487
g169
ag178
ag12
ag13
ag14
ag15
ag16
ag120
ag17
ag121
ag18
ag19
ag20
ag21
ag104
ag162
ag124
ag23
ag24
ag179
ag25
ag26
ag125
ag27
ag28
ag29
ag91
ag30
ag31
ag32
ag180
ag126
ag111
ag33
ag127
ag34
ag92
ag35
ag36
ag37
ag38
ag150
ag129
ag40
ag41
ag42
ag43
ag44
ag45
ag130
ag46
ag47
ag94
ag48
ag49
ag50
ag294
ag95
ag51
ag52
ag54
ag55
ag56
ag57
ag58
ag132
ag59
ag134
ag112
ag60
ag196
ag61
ag164
ag62
ag63
ag64
ag65
ag113
ag67
ag68
ag69
ag70
ag71
ag72
ag73
ag74
ag183
ag75
ag76
ag77
ag78
ag96
ag106
ag80
ag81
ag184
ag97
ag82
ag83
ag136
ag84
ag98
ag99
ag156
ag138
ag114
ag201
ag190
ag140
atbsg86
NstRp488
ag2
(g3
(dp489
g5
g6
(g7
(I0
tS'b'
tRp490
(I1
(I64
tg10
I00
(lp491
g253
ag12
ag13
ag119
ag14
ag15
ag16
ag19
ag20
ag21
ag104
ag24
ag26
ag27
ag28
ag29
ag31
ag32
ag126
ag111
ag33
ag127
ag34
ag38
ag40
ag41
ag42
ag43
ag44
ag45
ag46
ag49
ag50
ag95
ag51
ag52
ag53
ag131
ag55
ag56
ag59
ag105
ag60
ag61
ag64
ag65
ag67
ag68
ag73
ag74
ag75
ag76
ag77
ag78
ag96
ag106
ag80
ag81
ag97
ag82
ag84
ag99
ag138
ag139
atbsg86
NstRp492
ag2
(g3
(dp493
g5
g6
(g7
(I0
tS'b'
tRp494
(I1
(I108
tg10
I00
(lp495
g253
ag177
ag178
ag12
ag13
ag119
ag14
ag161
ag15
ag16
ag17
ag121
ag18
ag19
ag20
ag21
ag104
ag162
ag122
ag123
ag23
ag24
ag244
ag25
ag26
ag125
ag27
ag28
ag29
ag91
ag30
ag31
ag32
ag180
ag126
ag33
ag127
ag34
ag92
ag35
ag36
ag38
ag39
ag128
ag150
ag129
ag40
ag41
ag42
ag43
ag45
ag93
ag130
ag46
ag47
ag94
ag207
ag48
ag49
ag50
ag95
ag51
ag52
ag53
ag131
ag55
ag56
ag57
ag58
ag132
ag59
ag133
ag105
ag60
ag196
ag61
ag62
ag64
ag65
ag113
ag67
ag68
ag69
ag182
ag70
ag72
ag74
ag183
ag75
ag76
ag77
ag78
ag96
ag106
ag80
ag81
ag171
ag82
ag136
ag285
ag84
ag137
ag99
ag156
ag138
ag114
ag139
ag140
atbsg86
NstRp496
ag2
(g3
(dp497
g5
g6
(g7
(I0
tS'b'
tRp498
(I1
(I60
tg10
I00
(lp499
g13
ag119
ag161
ag15
ag16
ag19
ag21
ag24
ag25
ag26
ag27
ag28
ag29
ag32
ag33
ag34
ag36
ag38
ag40
ag41
ag42
ag43
ag45
ag93
ag46
ag47
ag94
ag49
ag50
ag51
ag52
ag53
ag55
ag59
ag60
ag63
ag64
ag65
ag113
ag68
ag69
ag70
ag72
ag73
ag74
ag75
ag77
ag78
ag79
ag80
ag81
ag97
ag82
ag136
ag84
ag98
ag99
ag138
ag139
ag140
atbsg86
NstRp500
ag2
(g3
(dp501
g5
g6
(g7
(I0
tS'b'
tRp502
(I1
(I55
tg10
I00
(lp503
g177
ag13
ag14
ag15
ag16
ag19
ag20
ag22
ag26
ag27
ag28
ag29
ag91
ag32
ag126
ag33
ag34
ag35
ag36
ag37
ag38
ag128
ag129
ag40
ag41
ag42
ag43
ag93
ag46
ag47
ag49
ag95
ag51
ag52
ag53
ag55
ag59
ag60
ag61
ag64
ag65
ag113
ag67
ag69
ag72
ag73
ag74
ag77
ag78
ag79
ag81
ag171
ag82
ag98
ag140
atbsg86
NstRp504
ag2
(g3
(dp505
g5
g6
(g7
(I0
tS'b'
tRp506
(I1
(I60
tg10
I00
(lp507
g169
ag253
ag12
ag13
ag15
ag16
ag19
ag24
ag26
ag27
ag28
ag29
ag91
ag31
ag32
ag111
ag33
ag34
ag36
ag37
ag38
ag128
ag40
ag41
ag43
ag44
ag93
ag130
ag46
ag47
ag94
ag49
ag50
ag95
ag51
ag52
ag53
ag55
ag56
ag59
ag60
ag196
ag64
ag65
ag67
ag68
ag69
ag70
ag72
ag74
ag183
ag77
ag78
ag96
ag79
ag80
ag81
ag97
ag98
ag99
atbsg86
NstRp508
ag2
(g3
(dp509
g5
g6
(g7
(I0
tS'b'
tRp510
(I1
(I48
tg10
I00
(lp511
g169
ag12
ag16
ag19
ag20
ag21
ag26
ag28
ag29
ag91
ag31
ag32
ag33
ag34
ag36
ag38
ag40
ag41
ag43
ag45
ag93
ag46
ag47
ag94
ag49
ag50
ag95
ag51
ag52
ag53
ag59
ag135
ag64
ag65
ag68
ag69
ag72
ag73
ag78
ag96
ag79
ag80
ag81
ag171
ag82
ag285
ag98
ag114
atbsg86
NstRp512
ag2
(g3
(dp513
g5
g6
(g7
(I0
tS'b'
tRp514
(I1
(I95
tg10
I00
(lp515
g169
ag178
ag12
ag13
ag14
ag161
ag15
ag16
ag120
ag17
ag18
ag19
ag104
ag22
ag162
ag24
ag179
ag25
ag26
ag27
ag28
ag29
ag91
ag30
ag31
ag32
ag180
ag126
ag33
ag34
ag92
ag36
ag37
ag38
ag128
ag40
ag41
ag42
ag43
ag44
ag45
ag93
ag47
ag170
ag94
ag49
ag50
ag294
ag95
ag51
ag52
ag53
ag54
ag55
ag56
ag57
ag132
ag59
ag60
ag135
ag61
ag62
ag64
ag65
ag113
ag67
ag68
ag69
ag182
ag70
ag71
ag72
ag73
ag74
ag183
ag76
ag78
ag96
ag79
ag80
ag81
ag171
ag82
ag83
ag136
ag84
ag98
ag99
ag138
ag272
ag114
ag201
ag189
ag140
ag141
atbsg86
NstRp516
ag2
(g3
(dp517
g5
g6
(g7
(I0
tS'b'
tRp518
(I1
(I44
tg10
I00
(lp519
g13
ag15
ag16
ag19
ag21
ag26
ag28
ag29
ag31
ag32
ag111
ag33
ag34
ag36
ag38
ag40
ag41
ag42
ag43
ag93
ag46
ag49
ag95
ag51
ag52
ag55
ag59
ag105
ag60
ag65
ag68
ag69
ag72
ag73
ag74
ag77
ag78
ag96
ag80
ag81
ag97
ag99
ag114
ag139
atbsg86
NstRp520
ag2
(g3
(dp521
g5
g6
(g7
(I0
tS'b'
tRp522
(I1
(I87
tg10
I00
(lp523
g169
ag12
ag13
ag119
ag14
ag161
ag16
ag121
ag18
ag19
ag21
ag104
ag124
ag23
ag24
ag25
ag26
ag27
ag28
ag29
ag31
ag32
ag126
ag111
ag33
ag127
ag34
ag92
ag36
ag37
ag38
ag39
ag150
ag40
ag41
ag42
ag43
ag93
ag46
ag94
ag207
ag48
ag49
ag50
ag51
ag52
ag53
ag54
ag55
ag56
ag58
ag59
ag134
ag60
ag63
ag65
ag113
ag67
ag68
ag182
ag70
ag71
ag72
ag73
ag74
ag183
ag76
ag77
ag78
ag96
ag79
ag80
ag81
ag97
ag82
ag83
ag136
ag84
ag137
ag85
ag99
ag138
ag114
ag189
ag190
ag140
ag141
atbsg86
NstRp524
ag2
(g3
(dp525
g5
g6
(g7
(I0
tS'b'
tRp526
(I1
(I50
tg10
I00
(lp527
g12
ag16
ag19
ag21
ag104
ag24
ag27
ag28
ag29
ag91
ag31
ag32
ag111
ag33
ag34
ag36
ag38
ag40
ag41
ag43
ag44
ag93
ag46
ag47
ag94
ag49
ag50
ag95
ag51
ag52
ag53
ag56
ag59
ag105
ag60
ag63
ag64
ag65
ag113
ag68
ag69
ag74
ag77
ag78
ag106
ag80
ag81
ag97
ag136
ag99
atbsg86
NstRp528
ag2
(g3
(dp529
g5
g6
(g7
(I0
tS'b'
tRp530
(I1
(I74
tg10
I00
(lp531
g177
ag12
ag13
ag14
ag15
ag16
ag19
ag20
ag21
ag104
ag22
ag24
ag26
ag27
ag28
ag29
ag30
ag31
ag32
ag111
ag33
ag127
ag34
ag36
ag37
ag38
ag40
ag41
ag42
ag43
ag45
ag93
ag46
ag47
ag170
ag94
ag49
ag50
ag95
ag51
ag52
ag53
ag55
ag56
ag58
ag59
ag133
ag134
ag60
ag61
ag63
ag64
ag65
ag113
ag67
ag68
ag69
ag70
ag72
ag74
ag75
ag76
ag77
ag78
ag96
ag106
ag80
ag81
ag97
ag83
ag136
ag98
ag99
ag114
atbsg86
NstRp532
ag2
(g3
(dp533
g5
g6
(g7
(I0
tS'b'
tRp534
(I1
(I42
tg10
I00
(lp535
g169
ag161
ag16
ag19
ag21
ag28
ag29
ag32
ag33
ag34
ag92
ag36
ag38
ag40
ag42
ag43
ag44
ag46
ag207
ag49
ag95
ag51
ag52
ag53
ag55
ag56
ag59
ag60
ag68
ag69
ag72
ag74
ag77
ag78
ag96
ag79
ag80
ag82
ag137
ag85
ag99
ag114
atbsg86
NstRp536
ag2
(g3
(dp537
g5
g6
(g7
(I0
tS'b'
tRp538
(I1
(I90
tg10
I00
(lp539
g169
ag178
ag12
ag13
ag119
ag14
ag161
ag15
ag16
ag17
ag121
ag18
ag19
ag20
ag21
ag104
ag22
ag23
ag24
ag25
ag26
ag27
ag28
ag29
ag91
ag31
ag32
ag126
ag127
ag34
ag36
ag38
ag39
ag40
ag41
ag42
ag43
ag44
ag45
ag93
ag46
ag47
ag94
ag48
ag49
ag50
ag95
ag51
ag52
ag195
ag53
ag54
ag55
ag56
ag58
ag59
ag133
ag112
ag60
ag135
ag196
ag61
ag164
ag62
ag64
ag113
ag66
ag67
ag68
ag69
ag70
ag71
ag72
ag73
ag183
ag75
ag77
ag78
ag106
ag80
ag81
ag82
ag83
ag136
ag84
ag137
ag99
ag156
ag201
ag140
atbsg86
NstRp540
ag2
(g3
(dp541
g5
g6
(g7
(I0
tS'b'
tRp542
(I1
(I44
tg10
I00
(lp543
g12
ag13
ag15
ag16
ag19
ag21
ag28
ag29
ag31
ag32
ag33
ag34
ag36
ag38
ag40
ag41
ag43
ag93
ag94
ag49
ag50
ag95
ag51
ag52
ag53
ag55
ag59
ag105
ag60
ag61
ag64
ag65
ag67
ag68
ag69
ag72
ag73
ag78
ag96
ag79
ag80
ag81
ag84
ag98
atbsg86
NstRp544
ag2
(g3
(dp545
g5
g6
(g7
(I0
tS'b'
tRp546
(I1
(I65
tg10
I00
(lp547
g14
ag15
ag16
ag18
ag19
ag21
ag104
ag23
ag24
ag26
ag27
ag28
ag29
ag31
ag32
ag126
ag111
ag33
ag34
ag36
ag38
ag39
ag150
ag41
ag42
aS'HADS SUB2'
p548
ag43
ag44
ag46
ag47
ag94
ag49
ag50
ag51
ag52
ag53
ag55
ag56
ag59
ag133
ag112
ag60
ag196
ag64
ag65
ag113
ag67
ag68
ag69
ag72
ag74
ag183
ag75
ag77
ag78
ag96
ag80
ag81
ag97
ag82
ag136
ag85
ag114
ag139
ag140
atbsg86
NstRp549
ag2
(g3
(dp550
g5
g6
(g7
(I0
tS'b'
tRp551
(I1
(I83
tg10
I00
(lp552
g169
ag178
ag13
ag119
ag14
ag15
ag16
ag17
ag18
ag19
ag21
ag22
ag24
ag25
ag26
ag27
ag28
ag29
ag31
ag32
ag126
ag111
ag33
ag127
ag34
ag36
ag38
ag40
ag41
ag42
ag43
ag44
ag45
ag93
ag130
ag46
ag47
ag170
ag94
ag207
ag48
ag49
ag50
ag95
ag51
ag52
ag195
ag53
ag54
ag131
ag55
ag56
ag59
ag134
ag60
ag61
ag64
ag65
ag113
ag66
ag67
ag68
ag69
ag71
ag72
ag73
ag183
ag76
ag77
ag78
ag96
ag79
ag80
ag81
ag82
ag83
ag136
ag85
ag99
ag156
ag138
ag139
ag140
atbsg86
NstRp553
ag2
(g3
(dp554
g5
g6
(g7
(I0
tS'b'
tRp555
(I1
(I31
tg10
I00
(lp556
g13
ag16
ag19
ag27
ag28
ag29
ag32
ag33
ag34
ag36
ag38
ag40
ag41
ag43
ag46
ag94
ag51
ag52
ag53
ag59
ag105
ag64
ag69
ag72
ag73
ag77
ag78
ag96
ag106
ag80
ag83
atbsg86
NstRp557
a.