(lp1
cpandas.core.indexes.base
_new_Index
p2
(cpandas.core.indexes.base
Index
p3
(dp4
S'data'
p5
cnumpy.core.multiarray
_reconstruct
p6
(cnumpy
ndarray
p7
(I0
tS'b'
tRp8
(I1
(I79
tcnumpy
dtype
p9
(S'O8'
I0
I1
tRp10
(I3
S'|'
NNNI-1
I-1
I63
tbI00
(lp11
S'ABILH008'
p12
aS'ABILH009'
p13
aS'ABILH010'
p14
aS'ABILH012'
p15
aS'ABILH014'
p16
aS'ABILH015'
p17
aS'ABILH018'
p18
aS'ABILH020'
p19
aS'ABILH021'
p20
aS'FIM (001'
p21
aS'FIM (006'
p22
aS'FIM (008'
p23
aS'FIM (009'
p24
aS'FIM (011'
p25
aS'FIM (012'
p26
aS'FIM (014'
p27
aS'FIM (016'
p28
aS'FIM (017'
p29
aS'FIM (019'
p30
aS'FIM (SUB3'
p31
aS'FIM (SUB5'
p32
aS'HADS 001'
p33
aS'HADS 002'
p34
aS'HADS 004'
p35
aS'HADS 005'
p36
aS'HADS 007'
p37
aS'HADS 008'
p38
aS'HADS 009'
p39
aS'HADS 010'
p40
aS'HADS 012'
p41
aS'HADS 013'
p42
aS'HADS 014'
p43
aS'HEIG'
p44
aS'ISTRU'
p45
aS'LIFE 001'
p46
aS'LIFE 002'
p47
aS'LIFE 004'
p48
aS'LIFE 006'
p49
aS'LIFE 007'
p50
aS'LIFE 009'
p51
aS'LIFE 010'
p52
aS'LIFE 011'
p53
aS'MFIS 001'
p54
aS'MFIS 002'
p55
aS'MFIS 003'
p56
aS'MFIS 005'
p57
aS'MFIS 006'
p58
aS'MFIS 007'
p59
aS'MFIS 008'
p60
aS'MFIS 010'
p61
aS'MFIS 012'
p62
aS'MFIS 013'
p63
aS'MFIS 014'
p64
aS'MFIS 017'
p65
aS'MFIS 019'
p66
aS'MOCA 003'
p67
aS'MOCA 004'
p68
aS'MOCA 005'
p69
aS'MOCA 006'
p70
aS'MOCA 007'
p71
aS'MOCA 008'
p72
aS'MOCA 009'
p73
aS'MOCA 010'
p74
aS'MOCA 011'
p75
aS'OAB-Q003'
p76
aS'OAB-Q004'
p77
aS'OAB-Q005'
p78
aS'OAB-Q006'
p79
aS'OAB-Q008'
p80
aS'PASATTOT'
p81
aS'RELAPS'
p82
aS'SDMT TOT'
p83
aS'WEIG'
p84
aS'EDINB001_2'
p85
aS'EDINB002_0'
p86
aS'EDINB003_0'
p87
aS'EDINB003_2'
p88
aS'EDINB008_0'
p89
aS'EDINB008_1'
p90
atbsS'name'
p91
NstRp92
ag2
(g3
(dp93
g5
g6
(g7
(I0
tS'b'
tRp94
(I1
(I4
tg10
I00
(lp95
g25
ag26
ag27
ag32
atbsg91
NstRp96
ag2
(g3
(dp97
g5
g6
(g7
(I0
tS'b'
tRp98
(I1
(I84
tg10
I00
(lp99
S'ABILH001'
p100
aS'ABILH003'
p101
aS'ABILH004'
p102
aS'ABILH007'
p103
ag12
ag13
ag15
aS'ABILH013'
p104
aS'ABILH017'
p105
ag18
ag19
ag20
aS'FIM (003'
p106
aS'FIM (004'
p107
ag22
ag23
ag24
ag25
ag26
ag27
ag28
ag29
ag30
ag32
ag33
ag34
aS'HADS 003'
p108
ag36
aS'HADS 006'
p109
ag37
ag39
ag41
ag42
ag44
ag46
ag47
aS'LIFE 003'
p110
ag48
ag52
ag53
ag54
ag55
ag56
ag58
ag60
aS'MFIS 009'
p111
ag61
ag62
ag63
ag64
aS'MFIS 015'
p112
ag66
aS'MOCA 001'
p113
aS'MOCA 002'
p114
ag67
ag68
ag69
ag70
ag71
ag73
ag74
ag75
aS'OAB-Q002'
p115
ag76
ag77
ag78
ag79
ag80
ag82
ag83
ag84
aS'EDINB001_1'
p116
ag85
ag86
ag87
ag88
aS'EDINB004_0'
p117
aS'EDINB004_1'
p118
aS'EDINB005_0'
p119
aS'EDINB005_1'
p120
aS'EDINB006_0'
p121
ag89
ag90
aS'EDINB009_0'
p122
atbsg91
NstRp123
ag2
(g3
(dp124
g5
g6
(g7
(I0
tS'b'
tRp125
(I1
(I110
tg10
I00
(lp126
S'ABILH002'
p127
ag102
aS'ABILH005'
p128
aS'ABILH006'
p129
ag103
ag12
ag13
ag15
ag104
ag17
ag105
ag18
ag19
ag20
aS'ABILH023'
p130
aS'ABILHSUB1'
p131
aS'ABILHTOT'
p132
ag21
aS'FIM (002'
p133
ag106
ag107
ag22
ag23
ag24
aS'FIM (010'
p134
ag25
ag26
ag28
ag29
aS'FIM (018'
p135
ag30
ag31
ag32
ag33
ag34
ag108
ag35
ag36
ag109
ag37
ag38
ag39
ag40
ag41
ag42
ag43
ag44
ag46
ag47
ag48
ag49
ag50
aS'LIFE 008'
p136
ag51
ag52
ag53
ag54
ag55
ag56
aS'MFIS 004'
p137
ag58
ag59
ag60
ag111
ag61
aS'MFIS 011'
p138
ag63
ag64
ag112
ag66
aS'MFIS 020'
p139
ag113
ag67
ag68
ag69
ag70
ag71
ag72
ag73
ag74
ag75
aS'OAB-Q001'
p140
ag115
ag76
ag77
ag78
aS'OAB-Q007'
p141
ag80
ag81
ag82
ag83
ag84
ag116
ag85
ag86
aS'EDINB002_2'
p142
ag87
ag88
ag117
ag119
aS'EDINB005_2'
p143
ag121
aS'EDINB006_2'
p144
aS'EDINB007_0'
p145
aS'EDINB007_2'
p146
ag89
ag90
ag122
aS'EDINB009_2'
p147
aS'EDINB010_0'
p148
atbsg91
NstRp149
ag2
(g3
(dp150
g5
g6
(g7
(I0
tS'b'
tRp151
(I1
(I5
tg10
I00
(lp152
g25
ag26
ag27
ag32
ag83
atbsg91
NstRp153
ag2
(g3
(dp154
g5
g6
(g7
(I0
tS'b'
tRp155
(I1
(I111
tg10
I00
(lp156
g100
ag127
ag102
ag129
ag103
ag12
ag13
ag14
aS'ABILH011'
p157
ag15
ag104
ag16
aS'ABILH016'
p158
ag105
ag18
ag19
ag20
aS'ABILH022'
p159
ag130
ag21
ag106
ag107
aS'FIM (005'
p160
ag22
ag23
ag134
ag25
ag26
aS'FIM (013'
p161
ag27
ag28
ag29
ag30
ag31
ag32
aS'FIM (SUB6'
p162
ag33
ag34
ag108
ag35
ag36
ag109
ag37
ag38
ag39
ag40
ag41
ag42
ag43
aS'HADS SUB2'
p163
ag44
ag45
ag46
ag47
ag48
aS'LIFE 005'
p164
ag50
ag51
ag52
ag53
ag54
ag55
ag56
ag57
ag58
ag60
ag111
ag61
ag138
ag62
ag64
aS'MFIS 016'
p165
ag65
ag66
aS'MFIS 021'
p166
aS'MFIS SUB2'
p167
ag113
ag67
ag69
ag70
ag72
ag74
ag75
ag115
ag76
ag77
ag78
ag79
ag80
ag81
ag82
ag83
ag84
ag116
ag85
ag86
ag142
ag87
ag88
ag117
ag118
ag119
ag120
ag121
ag144
ag145
ag146
ag90
aS'EDINB008_2'
p168
ag122
ag148
atbsg91
NstRp169
ag2
(g3
(dp170
g5
g6
(g7
(I0
tS'b'
tRp171
(I1
(I4
tg10
I00
(lp172
g25
ag26
ag27
ag32
atbsg91
NstRp173
ag2
(g3
(dp174
g5
g6
(g7
(I0
tS'b'
tRp175
(I1
(I6
tg10
I00
(lp176
g25
ag26
ag27
ag32
ag162
ag83
atbsg91
NstRp177
ag2
(g3
(dp178
g5
g6
(g7
(I0
tS'b'
tRp179
(I1
(I5
tg10
I00
(lp180
g25
ag26
ag27
ag32
ag83
atbsg91
NstRp181
ag2
(g3
(dp182
g5
g6
(g7
(I0
tS'b'
tRp183
(I1
(I4
tg10
I00
(lp184
g25
ag26
ag27
ag32
atbsg91
NstRp185
ag2
(g3
(dp186
g5
g6
(g7
(I0
tS'b'
tRp187
(I1
(I78
tg10
I00
(lp188
g100
ag101
ag102
ag103
ag12
ag13
ag15
ag105
ag18
ag19
ag20
ag21
ag106
ag107
ag22
ag23
ag25
ag26
ag27
ag28
ag29
ag30
ag32
ag34
ag35
ag36
ag37
aS'HADS 011'
p189
ag41
ag42
ag43
ag44
ag45
ag46
ag47
ag110
ag48
ag50
ag136
ag51
ag52
ag53
ag55
ag56
ag58
ag111
ag61
ag138
ag62
ag63
ag64
ag66
ag166
ag69
ag70
ag72
ag73
ag74
ag75
ag115
ag76
ag77
ag78
ag79
ag80
ag81
ag82
ag83
ag84
ag85
ag86
ag87
ag118
ag119
ag145
ag89
ag90
ag148
atbsg91
NstRp190
ag2
(g3
(dp191
g5
g6
(g7
(I0
tS'b'
tRp192
(I1
(I70
tg10
I00
(lp193
g100
ag12
ag13
ag15
ag18
ag19
ag20
ag106
ag107
ag22
ag23
ag25
ag26
ag27
ag28
ag29
ag31
ag32
ag33
ag34
ag35
ag36
ag109
ag37
ag38
ag39
ag40
ag189
ag41
ag42
ag43
ag44
ag46
ag48
ag50
ag51
ag52
ag53
ag54
ag55
ag56
ag58
ag111
ag62
ag64
ag66
ag68
ag69
ag70
ag71
ag74
ag75
ag115
ag77
ag79
ag80
ag82
ag83
ag84
aS'EDINB001_0'
p194
ag85
ag86
ag87
ag88
ag119
ag121
ag144
ag89
ag90
aS'EDINB010_2'
p195
atbsg91
NstRp196
ag2
(g3
(dp197
g5
g6
(g7
(I0
tS'b'
tRp198
(I1
(I51
tg10
I00
(lp199
g102
ag13
ag15
ag18
ag21
ag106
ag22
ag23
ag25
ag26
ag27
ag28
ag29
ag31
ag32
ag34
ag36
ag37
ag38
ag41
ag44
ag45
ag48
ag50
ag52
ag54
ag55
ag56
ag58
ag61
ag64
ag167
ag68
ag69
ag70
ag71
ag74
ag75
ag115
ag76
ag77
ag78
ag79
ag81
ag83
ag84
ag116
ag86
ag87
ag88
ag148
atbsg91
NstRp200
ag2
(g3
(dp201
g5
g6
(g7
(I0
tS'b'
tRp202
(I1
(I4
tg10
I00
(lp203
g25
ag26
ag27
ag32
atbsg91
NstRp204
ag2
(g3
(dp205
g5
g6
(g7
(I0
tS'b'
tRp206
(I1
(I9
tg10
I00
(lp207
g106
ag160
ag25
ag26
ag27
ag32
ag162
aS'FIM (TOT'
p208
ag83
atbsg91
NstRp209
ag2
(g3
(dp210
g5
g6
(g7
(I0
tS'b'
tRp211
(I1
(I53
tg10
I00
(lp212
g12
ag13
ag15
ag18
ag20
ag106
ag22
ag23
ag25
ag26
ag27
ag28
ag29
ag30
ag31
ag32
ag34
ag36
ag37
ag39
ag41
ag42
ag43
aS'HADS SUB1'
p213
ag44
ag45
ag47
ag48
ag50
ag52
ag53
ag55
ag56
ag58
ag111
ag61
ag64
ag166
ag69
ag75
ag76
ag77
ag78
ag79
ag80
ag83
ag84
ag85
ag86
ag87
ag88
ag146
ag90
atbsg91
NstRp214
ag2
(g3
(dp215
g5
g6
(g7
(I0
tS'b'
tRp216
(I1
(I13
tg10
I00
(lp217
g15
ag106
ag160
ag24
ag134
ag25
ag26
ag27
aS'FIM (SUB4'
p218
ag32
ag162
ag208
ag83
atbsg91
NstRp219
ag2
(g3
(dp220
g5
g6
(g7
(I0
tS'b'
tRp221
(I1
(I85
tg10
I00
(lp222
g100
ag102
ag103
ag15
ag104
ag16
ag18
ag19
ag20
ag21
ag106
ag160
ag22
ag23
ag134
ag25
ag26
ag161
ag27
ag28
ag29
ag30
ag31
ag32
ag162
ag34
ag35
ag36
ag109
ag37
ag38
ag39
ag41
ag42
ag213
ag44
ag45
ag47
ag110
ag48
ag164
ag50
ag51
ag52
ag54
ag55
ag56
ag57
ag58
ag111
ag61
ag64
ag65
ag66
ag139
aS'MFIS SUB1'
p223
ag167
aS'MFIS SUB3'
p224
ag113
ag69
ag70
ag72
ag74
ag75
ag115
ag76
ag77
ag78
ag79
ag80
ag81
ag83
ag84
ag116
ag85
ag86
ag87
ag88
ag118
ag119
aS'EDINB006_1'
p225
ag144
ag145
ag90
ag168
atbsg91
NstRp226
ag2
(g3
(dp227
g5
g6
(g7
(I0
tS'b'
tRp228
(I1
(I10
tg10
I00
(lp229
g106
ag160
ag134
ag25
ag26
ag27
ag32
ag162
ag208
ag83
atbsg91
NstRp230
ag2
(g3
(dp231
g5
g6
(g7
(I0
tS'b'
tRp232
(I1
(I6
tg10
I00
(lp233
g25
ag26
ag27
ag32
ag162
ag83
atbsg91
NstRp234
ag2
(g3
(dp235
g5
g6
(g7
(I0
tS'b'
tRp236
(I1
(I37
tg10
I00
(lp237
g102
ag12
ag15
ag18
ag23
ag25
ag26
ag161
ag27
ag28
ag29
ag32
ag34
ag36
ag37
ag41
ag44
ag47
ag48
ag49
ag50
ag52
ag54
ag55
ag56
ag58
ag111
ag61
ag64
ag75
ag79
ag83
ag116
ag85
ag86
ag89
ag90
atbsg91
NstRp238
ag2
(g3
(dp239
g5
g6
(g7
(I0
tS'b'
tRp240
(I1
(I9
tg10
I00
(lp241
g106
ag160
ag25
ag26
ag27
ag32
ag162
ag208
ag83
atbsg91
NstRp242
ag2
(g3
(dp243
g5
g6
(g7
(I0
tS'b'
tRp244
(I1
(I5
tg10
I00
(lp245
g25
ag26
ag27
ag32
ag83
atbsg91
NstRp246
ag2
(g3
(dp247
g5
g6
(g7
(I0
tS'b'
tRp248
(I1
(I6
tg10
I00
(lp249
g25
ag26
ag27
ag32
ag162
ag83
atbsg91
NstRp250
ag2
(g3
(dp251
g5
g6
(g7
(I0
tS'b'
tRp252
(I1
(I9
tg10
I00
(lp253
g106
ag160
ag25
ag26
ag27
ag32
ag162
ag208
ag83
atbsg91
NstRp254
ag2
(g3
(dp255
g5
g6
(g7
(I0
tS'b'
tRp256
(I1
(I75
tg10
I00
(lp257
g100
ag102
ag103
ag12
ag13
ag14
ag15
ag104
ag105
ag18
aS'ABILH019'
p258
ag20
ag21
ag106
ag22
ag23
ag25
ag26
ag27
aS'FIM (015'
p259
ag28
ag29
ag30
ag31
ag32
ag34
ag35
ag36
ag109
ag37
ag39
ag41
ag42
ag43
ag44
ag46
ag47
ag48
ag50
ag52
ag53
ag55
ag56
ag58
ag111
ag61
ag138
ag64
ag66
ag166
ag67
ag69
ag70
ag71
ag72
ag73
ag74
ag75
ag76
ag77
ag78
ag79
ag81
ag82
ag83
ag84
ag116
ag85
ag86
ag87
ag88
ag117
ag118
ag90
ag168
atbsg91
NstRp260
ag2
(g3
(dp261
g5
g6
(g7
(I0
tS'b'
tRp262
(I1
(I8
tg10
I00
(lp263
g106
ag160
ag25
ag26
ag27
ag32
ag162
ag83
atbsg91
NstRp264
ag2
(g3
(dp265
g5
g6
(g7
(I0
tS'b'
tRp266
(I1
(I58
tg10
I00
(lp267
g102
ag12
ag13
ag15
ag16
ag105
ag18
ag20
ag106
ag107
ag22
ag23
ag25
ag26
ag27
ag28
ag29
ag32
ag34
ag35
ag36
ag37
ag38
ag39
ag41
ag42
ag43
ag44
ag47
ag48
ag50
ag51
ag52
ag53
ag55
ag56
ag58
ag111
ag61
ag64
ag70
ag72
ag74
ag75
ag76
ag79
ag80
ag81
ag82
ag83
ag84
ag116
ag85
ag86
ag87
ag144
ag89
ag90
atbsg91
NstRp268
ag2
(g3
(dp269
g5
g6
(g7
(I0
tS'b'
tRp270
(I1
(I9
tg10
I00
(lp271
g106
ag160
ag25
ag26
ag27
ag32
ag162
ag208
ag83
atbsg91
NstRp272
ag2
(g3
(dp273
g5
g6
(g7
(I0
tS'b'
tRp274
(I1
(I4
tg10
I00
(lp275
g25
ag26
ag27
ag32
atbsg91
NstRp276
ag2
(g3
(dp277
g5
g6
(g7
(I0
tS'b'
tRp278
(I1
(I4
tg10
I00
(lp279
g25
ag26
ag27
ag32
atbsg91
NstRp280
ag2
(g3
(dp281
g5
g6
(g7
(I0
tS'b'
tRp282
(I1
(I5
tg10
I00
(lp283
g25
ag26
ag27
ag32
ag83
atbsg91
NstRp284
ag2
(g3
(dp285
g5
g6
(g7
(I0
tS'b'
tRp286
(I1
(I6
tg10
I00
(lp287
g25
ag26
ag27
ag32
ag162
ag83
atbsg91
NstRp288
ag2
(g3
(dp289
g5
g6
(g7
(I0
tS'b'
tRp290
(I1
(I72
tg10
I00
(lp291
g102
ag129
ag12
ag13
ag15
ag104
ag18
ag20
ag21
ag22
ag23
ag25
ag26
ag161
ag27
ag28
ag29
ag31
ag32
ag33
ag34
ag36
ag37
ag38
ag39
ag189
ag41
ag42
ag44
ag46
ag47
ag48
ag50
ag51
ag52
ag53
ag54
ag55
ag56
ag58
ag111
ag61
ag64
ag65
aS'MFIS 018'
p292
ag66
ag113
ag69
ag70
ag72
ag74
ag75
ag140
ag115
ag77
ag79
ag80
ag81
ag82
ag83
ag84
ag116
ag85
ag86
ag120
ag143
ag121
ag144
ag90
ag168
ag122
ag148
atbsg91
NstRp293
ag2
(g3
(dp294
g5
g6
(g7
(I0
tS'b'
tRp295
(I1
(I5
tg10
I00
(lp296
g25
ag26
ag27
ag32
ag83
atbsg91
NstRp297
ag2
(g3
(dp298
g5
g6
(g7
(I0
tS'b'
tRp299
(I1
(I52
tg10
I00
(lp300
g12
ag15
ag104
ag18
ag20
ag106
ag22
ag23
ag25
ag26
ag27
ag28
ag30
ag31
ag32
ag34
ag108
ag36
ag37
ag41
ag42
ag213
ag44
ag47
ag48
ag50
ag51
ag52
ag54
ag55
ag56
ag58
ag111
ag64
ag66
ag69
ag70
ag71
ag72
ag74
ag75
ag76
ag77
ag79
ag82
ag83
ag84
ag116
ag85
ag87
ag117
ag118
atbsg91
NstRp301
ag2
(g3
(dp302
g5
g6
(g7
(I0
tS'b'
tRp303
(I1
(I6
tg10
I00
(lp304
g25
ag26
ag27
ag32
ag162
ag83
atbsg91
NstRp305
ag2
(g3
(dp306
g5
g6
(g7
(I0
tS'b'
tRp307
(I1
(I53
tg10
I00
(lp308
g12
ag13
ag15
ag16
ag18
ag106
ag22
ag23
ag25
ag26
ag27
ag28
ag29
ag30
ag31
ag32
ag34
ag36
ag109
ag37
ag38
ag39
ag41
ag43
ag44
ag45
ag46
ag48
ag52
ag54
ag55
ag56
ag58
ag60
ag111
ag61
ag64
ag65
ag167
ag69
ag70
ag115
ag76
ag78
ag79
ag82
ag83
ag116
ag85
ag86
ag88
ag118
ag89
atbsg91
NstRp309
ag2
(g3
(dp310
g5
g6
(g7
(I0
tS'b'
tRp311
(I1
(I60
tg10
I00
(lp312
g100
ag12
ag13
ag15
ag16
ag18
ag20
ag130
ag106
ag22
ag23
ag25
ag26
ag27
ag28
ag29
ag32
ag34
ag35
ag109
ag37
ag39
ag41
ag43
ag44
ag45
ag46
ag47
ag48
ag50
ag52
ag53
ag54
ag55
ag56
ag137
ag58
ag111
ag61
ag64
ag65
ag66
ag139
ag69
ag70
ag74
ag75
ag115
ag76
ag77
ag78
ag79
ag83
ag84
ag85
ag86
ag87
ag88
ag121
ag145
atbsg91
NstRp313
ag2
(g3
(dp314
g5
g6
(g7
(I0
tS'b'
tRp315
(I1
(I5
tg10
I00
(lp316
g25
ag26
ag27
ag32
ag83
atbsg91
NstRp317
ag2
(g3
(dp318
g5
g6
(g7
(I0
tS'b'
tRp319
(I1
(I8
tg10
I00
(lp320
g106
ag160
ag25
ag26
ag27
ag32
ag162
ag83
atbsg91
NstRp321
ag2
(g3
(dp322
g5
g6
(g7
(I0
tS'b'
tRp323
(I1
(I51
tg10
I00
(lp324
g12
ag13
ag15
ag18
ag20
ag22
ag23
ag25
ag26
ag27
ag28
ag29
ag31
ag32
ag34
ag35
ag36
ag37
ag41
ag42
ag44
ag45
ag46
ag47
ag48
ag50
ag52
ag54
ag55
ag56
ag58
ag111
ag61
ag64
ag65
ag69
ag75
ag79
ag80
ag83
ag84
ag116
ag85
ag86
aS'EDINB003_1'
p325
ag88
ag117
ag118
ag145
ag89
ag148
atbsg91
NstRp326
ag2
(g3
(dp327
g5
g6
(g7
(I0
tS'b'
tRp328
(I1
(I37
tg10
I00
(lp329
g15
ag18
ag22
ag23
ag25
ag26
ag27
ag28
ag29
ag32
ag36
ag37
ag38
ag39
ag41
ag42
ag44
ag45
ag48
ag51
ag52
ag54
ag55
ag56
ag58
ag64
ag66
ag139
ag69
ag75
ag78
ag79
ag82
ag83
ag84
ag85
ag121
atbsg91
NstRp330
ag2
(g3
(dp331
g5
g6
(g7
(I0
tS'b'
tRp332
(I1
(I3
tg10
I00
(lp333
g26
ag27
ag32
atbsg91
NstRp334
ag2
(g3
(dp335
g5
g6
(g7
(I0
tS'b'
tRp336
(I1
(I3
tg10
I00
(lp337
g26
ag27
ag32
atbsg91
NstRp338
ag2
(g3
(dp339
g5
g6
(g7
(I0
tS'b'
tRp340
(I1
(I162
tg10
I00
(lp341
g100
ag127
ag101
ag102
ag128
ag129
ag103
ag12
ag13
ag14
ag157
ag15
ag104
ag16
ag17
ag158
ag105
ag18
ag258
ag19
ag20
ag159
ag130
ag131
ag132
ag21
ag133
ag106
ag107
ag160
ag22
aS'FIM (007'
p342
ag23
ag24
ag134
ag25
ag26
ag161
ag27
ag259
ag28
ag29
ag135
ag30
aS'FIM (SUB1'
p343
aS'FIM (SUB2'
p344
ag31
ag218
ag32
ag162
ag208
ag33
ag34
ag108
ag35
ag36
ag109
ag37
ag38
ag39
ag40
ag189
ag41
ag42
ag43
ag213
ag163
aS'HADS TOT'
p345
ag44
ag45
ag46
ag47
ag110
ag48
ag164
ag49
ag50
ag136
ag52
ag53
aS'LIFE TOT'
p346
ag54
ag55
ag56
ag137
ag57
ag58
ag59
ag60
ag111
ag61
ag138
ag62
ag63
ag64
ag112
ag165
ag65
ag292
ag66
ag139
ag166
ag223
ag167
ag224
aS'MFIS TOT'
p347
ag113
ag114
ag67
ag68
ag69
ag70
ag71
ag72
ag73
ag74
ag75
aS'MOCA SUB1'
p348
aS'MOCA TOT'
p349
ag140
ag115
ag76
ag77
ag78
ag79
ag141
ag80
aS'OAB-QTOT'
p350
ag81
ag82
ag83
ag84
ag194
ag116
ag85
ag86
aS'EDINB002_1'
p351
ag142
ag87
ag325
ag88
ag117
ag118
aS'EDINB004_2'
p352
ag119
ag120
ag143
ag121
ag225
ag144
ag145
aS'EDINB007_1'
p353
ag146
ag89
ag90
ag168
ag122
aS'EDINB009_1'
p354
ag147
ag148
aS'EDINB010_1'
p355
ag195
atbsg91
NstRp356
ag2
(g3
(dp357
g5
g6
(g7
(I0
tS'b'
tRp358
(I1
(I84
tg10
I00
(lp359
g100
ag102
ag129
ag103
ag12
ag13
ag14
ag15
ag16
ag18
ag19
ag20
ag159
ag106
ag107
ag22
ag23
ag25
ag26
ag161
ag27
ag28
ag29
ag30
ag32
ag33
ag34
ag35
ag36
ag109
ag37
ag38
ag39
ag40
ag41
ag42
ag43
ag44
ag45
ag46
ag47
ag48
ag50
ag51
ag52
ag54
ag55
ag56
ag58
ag111
ag61
ag64
ag165
ag66
ag166
ag113
ag67
ag69
ag71
ag72
ag73
ag75
ag115
ag77
ag78
ag79
ag80
ag81
ag82
ag83
ag84
ag116
ag85
ag86
ag87
ag88
ag117
ag118
ag121
ag144
ag146
ag89
ag90
ag148
atbsg91
NstRp360
ag2
(g3
(dp361
g5
g6
(g7
(I0
tS'b'
tRp362
(I1
(I9
tg10
I00
(lp363
g106
ag160
ag25
ag26
ag27
ag32
ag162
ag208
ag83
atbsg91
NstRp364
ag2
(g3
(dp365
g5
g6
(g7
(I0
tS'b'
tRp366
(I1
(I11
tg10
I00
(lp367
g106
ag160
ag24
ag134
ag25
ag26
ag27
ag32
ag162
ag208
ag83
atbsg91
NstRp368
ag2
(g3
(dp369
g5
g6
(g7
(I0
tS'b'
tRp370
(I1
(I4
tg10
I00
(lp371
g25
ag26
ag27
ag32
atbsg91
NstRp372
ag2
(g3
(dp373
g5
g6
(g7
(I0
tS'b'
tRp374
(I1
(I6
tg10
I00
(lp375
g25
ag26
ag27
ag32
ag162
ag83
atbsg91
NstRp376
ag2
(g3
(dp377
g5
g6
(g7
(I0
tS'b'
tRp378
(I1
(I59
tg10
I00
(lp379
g103
ag15
ag104
ag16
ag18
ag20
ag22
ag23
ag25
ag26
ag27
ag28
ag29
ag135
ag30
ag31
ag32
ag34
ag35
ag36
ag37
ag39
ag41
ag42
ag43
ag44
ag46
ag47
ag48
ag51
ag52
ag53
ag54
ag55
ag56
ag58
ag111
ag61
ag64
ag66
ag70
ag74
ag75
ag115
ag76
ag77
ag78
ag79
ag83
ag84
ag116
ag85
ag86
ag87
ag118
ag121
ag89
ag90
ag148
atbsg91
NstRp380
ag2
(g3
(dp381
g5
g6
(g7
(I0
tS'b'
tRp382
(I1
(I96
tg10
I00
(lp383
g100
ag102
ag129
ag103
ag12
ag13
ag15
ag104
ag158
ag105
ag18
ag19
ag130
ag21
ag106
ag160
ag22
ag342
ag23
ag134
ag25
ag26
ag161
ag27
ag28
ag29
ag30
ag31
ag32
ag162
ag33
ag34
ag36
ag109
ag37
ag38
ag39
ag41
ag42
ag43
ag44
ag45
ag46
ag47
ag48
ag50
ag136
ag51
ag52
ag53
ag54
ag55
ag56
ag57
ag58
ag60
ag111
ag61
ag64
ag65
ag66
ag139
ag166
ag167
ag113
ag68
ag69
ag70
ag71
ag74
ag75
ag115
ag76
ag77
ag78
ag79
ag81
ag82
ag83
ag84
ag194
ag116
ag85
ag86
ag87
ag88
ag117
ag118
ag143
ag144
ag353
ag146
ag90
ag168
ag148
ag355
atbsg91
NstRp384
ag2
(g3
(dp385
g5
g6
(g7
(I0
tS'b'
tRp386
(I1
(I5
tg10
I00
(lp387
g25
ag26
ag27
ag32
ag83
atbsg91
NstRp388
ag2
(g3
(dp389
g5
g6
(g7
(I0
tS'b'
tRp390
(I1
(I27
tg10
I00
(lp391
g12
ag15
ag18
ag106
ag23
ag25
ag26
ag161
ag27
ag32
ag36
ag37
ag42
ag213
ag48
ag52
ag55
ag56
ag58
ag111
ag61
ag64
ag79
ag81
ag83
ag116
ag85
atbsg91
NstRp392
ag2
(g3
(dp393
g5
g6
(g7
(I0
tS'b'
tRp394
(I1
(I164
tg10
I00
(lp395
g100
ag127
ag101
ag102
ag128
ag129
ag103
ag12
ag13
ag14
ag157
ag15
ag104
ag16
ag17
ag158
ag105
ag18
ag258
ag19
ag20
ag159
ag130
ag131
ag132
aS'EDINBSUB1'
p396
aS'EDINBTOT'
p397
ag21
ag133
ag106
ag107
ag160
ag22
ag342
ag23
ag24
ag134
ag25
ag26
ag161
ag27
ag259
ag28
ag29
ag135
ag30
ag343
ag344
ag31
ag218
ag32
ag162
ag208
ag34
ag108
ag35
ag36
ag109
ag37
ag38
ag39
ag40
ag189
ag41
ag42
ag43
ag213
ag163
ag345
ag44
ag45
ag46
ag47
ag110
ag48
ag164
ag49
ag50
ag136
ag51
ag52
ag53
ag346
ag54
ag55
ag56
ag137
ag57
ag58
ag59
ag60
ag111
ag61
ag138
ag62
ag63
ag64
ag112
ag165
ag65
ag292
ag66
ag139
ag166
ag223
ag167
ag224
ag347
ag113
ag114
ag67
ag68
ag69
ag70
ag71
ag72
ag73
ag74
ag75
ag348
ag349
ag140
ag115
ag76
ag77
ag78
ag79
ag141
ag80
ag350
ag81
ag82
ag83
ag84
ag194
ag116
ag85
ag86
ag351
ag142
ag87
ag325
ag88
ag117
ag118
ag352
ag119
ag120
ag143
ag121
ag225
ag144
ag145
ag353
ag146
ag89
ag90
ag168
ag122
ag354
ag147
ag148
ag355
ag195
atbsg91
NstRp398
ag2
(g3
(dp399
g5
g6
(g7
(I0
tS'b'
tRp400
(I1
(I12
tg10
I00
(lp401
g106
ag160
ag24
ag134
ag25
ag26
ag27
ag218
ag32
ag162
ag208
ag83
atbsg91
NstRp402
ag2
(g3
(dp403
g5
g6
(g7
(I0
tS'b'
tRp404
(I1
(I160
tg10
I00
(lp405
g100
ag127
ag101
ag102
ag128
ag129
ag103
ag12
ag13
ag14
ag157
ag15
ag104
ag16
ag17
ag158
ag105
ag18
ag258
ag19
ag20
ag159
ag130
ag131
ag132
ag396
ag397
ag21
ag133
ag106
ag107
ag160
ag22
ag342
ag23
ag24
ag134
ag25
ag26
ag161
ag27
ag259
ag28
ag29
ag135
ag30
ag343
ag344
ag31
ag218
ag32
ag162
ag208
ag33
ag34
ag108
ag35
ag36
ag109
ag37
ag38
ag39
ag40
ag189
ag41
ag42
ag43
ag213
ag163
ag345
ag44
ag45
ag46
ag47
ag110
ag48
ag164
ag49
ag50
ag136
ag52
ag53
ag346
ag54
ag55
ag56
ag137
ag57
ag58
ag59
ag60
ag111
ag61
ag138
ag62
ag63
ag64
ag112
ag165
ag65
ag292
ag66
ag139
ag166
ag223
ag167
ag224
ag347
ag113
ag114
ag67
ag68
ag69
ag70
ag71
ag73
ag74
ag75
ag348
ag140
ag115
ag76
ag77
ag78
ag79
ag141
ag80
ag350
ag81
ag82
ag83
ag84
ag194
ag116
ag85
ag86
ag142
ag87
ag325
ag88
ag117
ag118
ag352
ag119
ag120
ag143
ag121
ag225
ag144
ag145
ag146
ag89
ag90
ag168
ag122
ag354
ag147
ag148
ag355
ag195
atbsg91
NstRp406
ag2
(g3
(dp407
g5
g6
(g7
(I0
tS'b'
tRp408
(I1
(I3
tg10
I00
(lp409
g26
ag27
ag32
atbsg91
NstRp410
ag2
(g3
(dp411
g5
g6
(g7
(I0
tS'b'
tRp412
(I1
(I3
tg10
I00
(lp413
g26
ag27
ag32
atbsg91
NstRp414
ag2
(g3
(dp415
g5
g6
(g7
(I0
tS'b'
tRp416
(I1
(I8
tg10
I00
(lp417
g106
ag160
ag25
ag26
ag27
ag32
ag162
ag83
atbsg91
NstRp418
ag2
(g3
(dp419
g5
g6
(g7
(I0
tS'b'
tRp420
(I1
(I5
tg10
I00
(lp421
g25
ag26
ag27
ag32
ag83
atbsg91
NstRp422
ag2
(g3
(dp423
g5
g6
(g7
(I0
tS'b'
tRp424
(I1
(I5
tg10
I00
(lp425
g25
ag26
ag27
ag32
ag83
atbsg91
NstRp426
ag2
(g3
(dp427
g5
g6
(g7
(I0
tS'b'
tRp428
(I1
(I55
tg10
I00
(lp429
g103
ag12
ag13
ag15
ag104
ag16
ag18
ag22
ag23
ag25
ag26
ag27
ag28
ag29
ag31
ag32
ag34
ag35
ag37
ag41
ag42
ag44
ag45
ag47
ag110
ag48
ag164
ag51
ag52
ag55
ag56
ag58
ag111
ag61
ag64
ag65
ag167
ag69
ag70
ag75
ag115
ag77
ag79
ag81
ag82
ag83
ag84
ag194
ag85
ag86
ag87
ag88
ag145
ag90
ag148
atbsg91
NstRp430
ag2
(g3
(dp431
g5
g6
(g7
(I0
tS'b'
tRp432
(I1
(I52
tg10
I00
(lp433
g102
ag12
ag15
ag16
ag18
ag130
ag21
ag106
ag22
ag23
ag25
ag26
ag27
ag28
ag29
ag31
ag32
ag34
ag35
ag36
ag37
ag38
ag41
ag44
ag45
ag47
ag48
ag50
ag51
ag52
ag53
ag54
ag55
ag56
ag57
ag58
ag111
ag61
ag64
ag69
ag70
ag75
ag77
ag79
ag81
ag83
ag84
ag194
ag85
ag86
ag143
ag144
atbsg91
NstRp434
ag2
(g3
(dp435
g5
g6
(g7
(I0
tS'b'
tRp436
(I1
(I5
tg10
I00
(lp437
g25
ag26
ag27
ag32
ag83
atbsg91
NstRp438
ag2
(g3
(dp439
g5
g6
(g7
(I0
tS'b'
tRp440
(I1
(I84
tg10
I00
(lp441
g100
ag102
ag103
ag12
ag13
ag14
ag15
ag104
ag16
ag105
ag18
ag258
ag19
ag20
ag106
ag107
ag22
ag23
ag24
ag25
ag26
ag27
ag28
ag29
ag30
ag32
ag33
ag34
ag108
ag35
ag36
ag109
ag37
ag38
ag39
ag41
ag42
ag43
ag44
ag46
ag47
ag48
ag164
ag50
ag51
ag52
ag53
ag54
ag55
ag56
ag137
ag58
ag60
ag111
ag61
ag138
ag64
ag166
ag69
ag70
ag71
ag74
ag75
ag115
ag76
ag77
ag79
ag80
ag82
ag83
ag116
ag85
ag86
ag88
ag118
ag119
ag121
ag144
ag145
ag146
ag89
ag90
ag148
ag355
atbsg91
NstRp442
ag2
(g3
(dp443
g5
g6
(g7
(I0
tS'b'
tRp444
(I1
(I7
tg10
I00
(lp445
g106
ag25
ag26
ag27
ag32
ag162
ag83
atbsg91
NstRp446
ag2
(g3
(dp447
g5
g6
(g7
(I0
tS'b'
tRp448
(I1
(I162
tg10
I00
(lp449
g100
ag127
ag101
ag102
ag128
ag129
ag103
ag12
ag13
ag14
ag15
ag104
ag16
ag17
ag158
ag105
ag18
ag258
ag19
ag20
ag159
ag130
ag131
ag132
ag396
ag397
ag21
ag133
ag106
ag107
ag160
ag22
ag342
ag23
ag134
ag25
ag26
ag161
ag27
ag259
ag28
ag29
ag135
ag30
ag343
ag344
ag31
ag218
ag32
ag162
ag208
ag33
ag34
ag108
ag35
ag36
ag109
ag37
ag38
ag39
ag40
ag189
ag41
ag42
ag43
ag213
ag163
ag345
ag44
ag45
ag46
ag47
ag110
ag48
ag164
ag49
ag50
ag136
ag51
ag52
ag53
ag346
ag54
ag55
ag56
ag137
ag57
ag58
ag59
ag60
ag111
ag61
ag138
ag62
ag63
ag64
ag112
ag165
ag65
ag292
ag66
ag139
ag166
ag223
ag167
ag224
ag347
ag113
ag114
ag67
ag68
ag69
ag70
ag71
ag72
ag73
ag74
ag75
ag348
ag349
ag140
ag115
ag76
ag77
ag78
ag79
ag141
ag80
ag350
ag81
ag82
ag83
ag84
ag194
ag116
ag85
ag86
ag351
ag142
ag87
ag325
ag88
ag117
ag118
ag352
ag119
ag120
ag143
ag121
ag225
ag144
ag145
ag353
ag146
ag89
ag90
ag168
ag122
ag354
ag147
ag148
ag355
atbsg91
NstRp450
ag2
(g3
(dp451
g5
g6
(g7
(I0
tS'b'
tRp452
(I1
(I69
tg10
I00
(lp453
g100
ag102
ag103
ag12
ag13
ag14
ag157
ag15
ag16
ag105
ag18
ag20
ag106
ag107
ag22
ag23
ag25
ag26
ag27
ag28
ag29
ag30
ag31
ag32
ag33
ag34
ag108
ag35
ag36
ag37
ag189
ag41
ag42
ag43
ag44
ag45
ag47
ag110
ag48
ag50
ag52
ag55
ag56
ag58
ag111
ag64
ag66
ag69
ag70
ag71
ag72
ag74
ag115
ag78
ag79
ag82
ag83
ag84
ag194
ag85
ag86
ag88
ag117
ag118
ag143
ag144
ag145
ag89
ag90
atbsg91
NstRp454
ag2
(g3
(dp455
g5
g6
(g7
(I0
tS'b'
tRp456
(I1
(I72
tg10
I00
(lp457
g100
ag101
ag102
ag12
ag13
ag15
ag16
ag18
ag20
ag21
ag106
ag107
ag22
ag23
ag25
ag26
ag27
ag28
ag29
ag30
ag32
ag34
ag36
ag37
ag38
ag39
ag40
ag41
ag42
ag43
ag44
ag47
ag110
ag48
ag164
ag50
ag52
ag53
ag55
ag56
ag137
ag57
ag58
ag111
ag61
ag63
ag64
ag65
ag66
ag166
ag69
ag70
ag71
ag74
ag75
ag115
ag76
ag78
ag79
ag80
ag81
ag82
ag83
ag84
ag116
ag85
ag86
ag325
ag88
ag117
ag118
ag168
atbsg91
NstRp458
ag2
(g3
(dp459
g5
g6
(g7
(I0
tS'b'
tRp460
(I1
(I80
tg10
I00
(lp461
g100
ag102
ag129
ag103
ag12
ag13
ag15
ag18
ag258
ag19
ag20
ag159
ag106
ag22
ag342
ag23
ag25
ag26
ag161
ag27
ag28
ag29
ag30
ag31
ag32
ag33
ag34
ag35
ag36
ag109
ag37
ag41
ag42
ag43
ag44
ag46
ag47
ag110
ag48
ag50
ag136
ag51
ag52
ag53
ag54
ag55
ag56
ag137
ag58
ag111
ag61
ag62
ag64
ag65
ag166
ag167
ag67
ag68
ag69
ag70
ag72
ag74
ag75
ag78
ag79
ag141
ag80
ag81
ag82
ag83
ag84
ag116
ag85
ag86
ag87
ag88
ag145
ag146
ag89
ag148
atbsg91
NstRp462
ag2
(g3
(dp463
g5
g6
(g7
(I0
tS'b'
tRp464
(I1
(I32
tg10
I00
(lp465
g15
ag18
ag23
ag25
ag26
ag27
ag28
ag29
ag32
ag36
ag37
ag42
ag213
ag44
ag47
ag48
ag52
ag55
ag56
ag58
ag111
ag61
ag64
ag65
ag66
ag167
ag75
ag78
ag79
ag83
ag85
ag86
atbsg91
NstRp466
ag2
(g3
(dp467
g5
g6
(g7
(I0
tS'b'
tRp468
(I1
(I5
tg10
I00
(lp469
g25
ag26
ag27
ag32
ag83
atbsg91
NstRp470
ag2
(g3
(dp471
g5
g6
(g7
(I0
tS'b'
tRp472
(I1
(I59
tg10
I00
(lp473
g102
ag103
ag12
ag15
ag105
ag18
ag20
ag22
ag23
ag25
ag26
ag27
ag28
ag29
ag32
ag34
ag36
ag37
ag38
ag41
ag42
ag43
ag44
ag46
ag47
ag48
ag50
ag52
ag54
ag55
ag56
ag58
ag111
ag61
ag64
ag65
ag114
ag68
ag69
ag70
ag71
ag75
ag76
ag79
ag81
ag83
ag84
ag116
ag85
ag86
ag325
ag88
ag117
ag121
ag145
ag89
ag168
ag122
ag148
atbsg91
NstRp474
ag2
(g3
(dp475
g5
g6
(g7
(I0
tS'b'
tRp476
(I1
(I5
tg10
I00
(lp477
g25
ag26
ag27
ag32
ag83
atbsg91
NstRp478
ag2
(g3
(dp479
g5
g6
(g7
(I0
tS'b'
tRp480
(I1
(I6
tg10
I00
(lp481
g25
ag26
ag27
ag32
ag162
ag83
atbsg91
NstRp482
ag2
(g3
(dp483
g5
g6
(g7
(I0
tS'b'
tRp484
(I1
(I3
tg10
I00
(lp485
g26
ag27
ag32
atbsg91
NstRp486
ag2
(g3
(dp487
g5
g6
(g7
(I0
tS'b'
tRp488
(I1
(I4
tg10
I00
(lp489
g25
ag26
ag27
ag32
atbsg91
NstRp490
ag2
(g3
(dp491
g5
g6
(g7
(I0
tS'b'
tRp492
(I1
(I5
tg10
I00
(lp493
g25
ag26
ag27
ag32
ag83
atbsg91
NstRp494
ag2
(g3
(dp495
g5
g6
(g7
(I0
tS'b'
tRp496
(I1
(I126
tg10
I00
(lp497
g100
ag102
ag128
ag129
ag103
ag12
ag13
ag14
ag157
ag15
ag104
ag16
ag158
ag105
ag18
ag258
ag19
ag20
ag131
ag132
ag21
ag133
ag106
ag107
ag160
ag22
ag342
ag23
ag24
ag134
ag25
ag26
ag161
ag27
ag259
ag28
ag29
ag135
ag30
ag31
ag32
ag162
ag33
ag34
ag108
ag35
ag36
ag109
ag37
ag38
ag39
ag41
ag42
ag43
ag44
ag45
ag46
ag47
ag110
ag48
ag164
ag50
ag136
ag51
ag52
ag53
ag54
ag55
ag56
ag137
ag57
ag58
ag59
ag60
ag111
ag61
ag62
ag63
ag64
ag112
ag165
ag66
ag166
ag223
ag167
ag113
ag114
ag67
ag68
ag69
ag70
ag71
ag72
ag73
ag74
ag75
ag140
ag115
ag76
ag77
ag78
ag79
ag141
ag80
ag81
ag82
ag83
ag84
ag194
ag116
ag85
ag86
ag325
ag88
ag117
ag119
ag121
ag144
ag145
ag146
ag89
ag90
ag168
ag122
ag148
ag355
atbsg91
NstRp498
ag2
(g3
(dp499
g5
g6
(g7
(I0
tS'b'
tRp500
(I1
(I55
tg10
I00
(lp501
g100
ag12
ag13
ag15
ag105
ag18
ag20
ag130
ag106
ag22
ag23
ag25
ag26
ag27
ag28
ag29
ag32
ag34
ag36
ag37
ag38
ag39
ag41
ag42
ag43
ag44
ag48
ag49
ag50
ag52
ag53
ag55
ag56
ag58
ag60
ag111
ag64
ag65
ag68
ag69
ag72
ag74
ag75
ag115
ag76
ag78
ag79
ag82
ag83
ag84
ag85
ag86
ag88
ag118
ag168
atbsg91
NstRp502
ag2
(g3
(dp503
g5
g6
(g7
(I0
tS'b'
tRp504
(I1
(I55
tg10
I00
(lp505
g12
ag13
ag15
ag18
ag20
ag21
ag106
ag22
ag23
ag25
ag26
ag28
ag29
ag31
ag32
ag34
ag37
ag41
ag43
ag44
ag45
ag47
ag110
ag48
ag164
ag50
ag51
ag52
ag53
ag54
ag55
ag56
ag58
ag111
ag64
ag139
ag166
ag68
ag69
ag70
ag72
ag73
ag74
ag76
ag77
ag79
ag82
ag83
ag84
ag85
ag86
ag117
ag118
ag121
ag90
atbsg91
NstRp506
ag2
(g3
(dp507
g5
g6
(g7
(I0
tS'b'
tRp508
(I1
(I5
tg10
I00
(lp509
g25
ag26
ag27
ag32
ag83
atbsg91
NstRp510
ag2
(g3
(dp511
g5
g6
(g7
(I0
tS'b'
tRp512
(I1
(I6
tg10
I00
(lp513
g25
ag26
ag27
ag32
ag162
ag83
atbsg91
NstRp514
ag2
(g3
(dp515
g5
g6
(g7
(I0
tS'b'
tRp516
(I1
(I35
tg10
I00
(lp517
g103
ag15
ag18
ag106
ag23
ag25
ag26
ag27
ag29
ag31
ag32
ag34
ag36
ag37
ag39
ag41
ag42
ag44
ag47
ag48
ag52
ag54
ag55
ag56
ag58
ag64
ag65
ag115
ag78
ag79
ag81
ag83
ag116
ag85
ag86
atbsg91
NstRp518
ag2
(g3
(dp519
g5
g6
(g7
(I0
tS'b'
tRp520
(I1
(I4
tg10
I00
(lp521
g25
ag26
ag27
ag32
atbsg91
NstRp522
ag2
(g3
(dp523
g5
g6
(g7
(I0
tS'b'
tRp524
(I1
(I42
tg10
I00
(lp525
g15
ag18
ag130
ag22
ag23
ag25
ag26
ag27
ag28
ag29
ag31
ag32
ag34
ag36
ag37
ag42
ag43
ag44
ag45
ag47
ag48
ag51
ag52
ag55
ag56
ag58
ag111
ag61
ag64
ag65
ag66
ag69
ag70
ag75
ag78
ag79
ag83
ag84
ag116
ag85
ag86
ag88
atbsg91
NstRp526
ag2
(g3
(dp527
g5
g6
(g7
(I0
tS'b'
tRp528
(I1
(I4
tg10
I00
(lp529
g25
ag26
ag27
ag32
atbsg91
NstRp530
ag2
(g3
(dp531
g5
g6
(g7
(I0
tS'b'
tRp532
(I1
(I5
tg10
I00
(lp533
g25
ag26
ag27
ag32
ag83
atbsg91
NstRp534
ag2
(g3
(dp535
g5
g6
(g7
(I0
tS'b'
tRp536
(I1
(I48
tg10
I00
(lp537
g12
ag15
ag16
ag18
ag20
ag106
ag22
ag23
ag25
ag26
ag161
ag27
ag28
ag29
ag31
ag32
ag34
ag36
ag37
ag38
ag41
ag42
ag43
ag44
ag48
ag51
ag52
ag53
ag54
ag55
ag56
ag58
ag111
ag64
ag66
ag167
ag69
ag75
ag79
ag80
ag81
ag82
ag83
ag194
ag116
ag85
ag86
ag168
atbsg91
NstRp538
ag2
(g3
(dp539
g5
g6
(g7
(I0
tS'b'
tRp540
(I1
(I22
tg10
I00
(lp541
g15
ag18
ag23
ag25
ag26
ag27
ag32
ag37
ag48
ag52
ag54
ag55
ag56
ag111
ag64
ag65
ag139
ag140
ag78
ag79
ag83
ag85
atbsg91
NstRp542
ag2
(g3
(dp543
g5
g6
(g7
(I0
tS'b'
tRp544
(I1
(I5
tg10
I00
(lp545
g25
ag26
ag27
ag32
ag83
atbsg91
NstRp546
ag2
(g3
(dp547
g5
g6
(g7
(I0
tS'b'
tRp548
(I1
(I50
tg10
I00
(lp549
g103
ag12
ag15
ag16
ag18
ag106
ag22
ag23
ag25
ag26
ag161
ag27
ag29
ag32
ag34
ag35
ag36
ag37
ag38
ag39
ag41
ag43
ag44
ag45
ag48
ag49
ag52
ag346
ag54
ag55
ag56
ag58
ag111
ag61
ag64
ag66
ag67
ag69
ag75
ag115
ag78
ag81
ag82
ag83
ag194
ag85
ag86
ag88
ag145
ag90
atbsg91
NstRp550
ag2
(g3
(dp551
g5
g6
(g7
(I0
tS'b'
tRp552
(I1
(I5
tg10
I00
(lp553
g25
ag26
ag27
ag32
ag83
atbsg91
NstRp554
ag2
(g3
(dp555
g5
g6
(g7
(I0
tS'b'
tRp556
(I1
(I85
tg10
I00
(lp557
g100
ag102
ag129
ag103
ag12
ag15
ag104
ag16
ag158
ag105
ag18
ag20
ag159
ag21
ag106
ag160
ag22
ag23
ag134
ag25
ag26
ag161
ag27
ag28
ag29
ag30
ag31
ag32
ag162
ag34
ag35
ag36
ag37
ag38
ag39
ag41
ag42
ag213
ag44
ag45
ag47
ag48
ag50
ag51
ag52
ag53
ag54
ag55
ag56
ag58
ag111
ag61
ag64
ag65
ag292
ag66
ag223
ag167
ag113
ag67
ag68
ag69
ag70
ag74
ag75
ag115
ag76
ag78
ag79
ag80
ag81
ag82
ag83
ag84
ag116
ag85
ag86
ag87
ag325
ag88
ag118
ag121
ag90
ag168
ag148
atbsg91
NstRp558
ag2
(g3
(dp559
g5
g6
(g7
(I0
tS'b'
tRp560
(I1
(I5
tg10
I00
(lp561
g25
ag26
ag27
ag32
ag83
atbsg91
NstRp562
ag2
(g3
(dp563
g5
g6
(g7
(I0
tS'b'
tRp564
(I1
(I4
tg10
I00
(lp565
g25
ag26
ag27
ag32
atbsg91
NstRp566
ag2
(g3
(dp567
g5
g6
(g7
(I0
tS'b'
tRp568
(I1
(I5
tg10
I00
(lp569
g25
ag26
ag27
ag32
ag83
atbsg91
NstRp570
ag2
(g3
(dp571
g5
g6
(g7
(I0
tS'b'
tRp572
(I1
(I6
tg10
I00
(lp573
g25
ag26
ag27
ag32
ag162
ag83
atbsg91
NstRp574
a.