(lp1
cpandas.core.indexes.base
_new_Index
p2
(cpandas.core.indexes.base
Index
p3
(dp4
S'data'
p5
cnumpy.core.multiarray
_reconstruct
p6
(cnumpy
ndarray
p7
(I0
tS'b'
tRp8
(I1
(I48
tcnumpy
dtype
p9
(S'O8'
I0
I1
tRp10
(I3
S'|'
NNNI-1
I-1
I63
tbI00
(lp11
S'ABILH001'
p12
ag12
ag12
ag12
ag12
ag12
ag12
ag12
ag12
ag12
ag12
ag12
ag12
ag12
ag12
ag12
ag12
ag12
ag12
ag12
ag12
ag12
ag12
ag12
ag12
ag12
ag12
ag12
ag12
ag12
ag12
ag12
ag12
ag12
ag12
ag12
ag12
ag12
ag12
ag12
ag12
ag12
ag12
ag12
ag12
ag12
ag12
ag12
atbsS'name'
p13
NstRp14
ag2
(g3
(dp15
g5
g6
(g7
(I0
tS'b'
tRp16
(I1
(I10
tg10
I00
(lp17
g12
ag12
ag12
ag12
ag12
ag12
ag12
ag12
ag12
ag12
atbsg13
NstRp18
ag2
(g3
(dp19
g5
g6
(g7
(I0
tS'b'
tRp20
(I1
(I47
tg10
I00
(lp21
g12
ag12
ag12
ag12
ag12
ag12
ag12
ag12
ag12
ag12
ag12
ag12
ag12
ag12
ag12
ag12
ag12
ag12
ag12
ag12
ag12
ag12
ag12
ag12
ag12
ag12
ag12
ag12
ag12
ag12
ag12
ag12
ag12
ag12
ag12
ag12
ag12
ag12
ag12
ag12
ag12
ag12
ag12
ag12
ag12
ag12
ag12
atbsg13
NstRp22
ag2
(g3
(dp23
g5
g6
(g7
(I0
tS'b'
tRp24
(I1
(I66
tg10
I00
(lp25
g12
ag12
ag12
ag12
ag12
ag12
ag12
ag12
ag12
ag12
ag12
ag12
ag12
ag12
ag12
ag12
ag12
ag12
ag12
ag12
ag12
ag12
ag12
ag12
ag12
ag12
ag12
ag12
ag12
ag12
ag12
ag12
ag12
ag12
ag12
ag12
ag12
ag12
ag12
ag12
ag12
ag12
ag12
ag12
ag12
ag12
ag12
ag12
ag12
ag12
ag12
ag12
ag12
ag12
ag12
ag12
ag12
ag12
ag12
ag12
ag12
ag12
ag12
ag12
ag12
ag12
atbsg13
NstRp26
ag2
(g3
(dp27
g5
g6
(g7
(I0
tS'b'
tRp28
(I1
(I7
tg10
I00
(lp29
g12
ag12
ag12
ag12
ag12
ag12
ag12
atbsg13
NstRp30
ag2
(g3
(dp31
g5
g6
(g7
(I0
tS'b'
tRp32
(I1
(I5
tg10
I00
(lp33
g12
ag12
ag12
ag12
ag12
atbsg13
NstRp34
ag2
(g3
(dp35
g5
g6
(g7
(I0
tS'b'
tRp36
(I1
(I74
tg10
I00
(lp37
g12
ag12
ag12
ag12
ag12
ag12
ag12
ag12
ag12
ag12
ag12
ag12
ag12
ag12
ag12
ag12
ag12
ag12
ag12
ag12
ag12
ag12
ag12
ag12
ag12
ag12
ag12
ag12
ag12
ag12
ag12
ag12
ag12
ag12
ag12
ag12
ag12
ag12
ag12
ag12
ag12
ag12
ag12
ag12
ag12
ag12
ag12
ag12
ag12
ag12
ag12
ag12
ag12
ag12
ag12
ag12
ag12
ag12
ag12
ag12
ag12
ag12
ag12
ag12
ag12
ag12
ag12
ag12
ag12
ag12
ag12
ag12
ag12
ag12
atbsg13
NstRp38
ag2
(g3
(dp39
g5
g6
(g7
(I0
tS'b'
tRp40
(I1
(I5
tg10
I00
(lp41
g12
ag12
ag12
ag12
ag12
atbsg13
NstRp42
ag2
(g3
(dp43
g5
g6
(g7
(I0
tS'b'
tRp44
(I1
(I59
tg10
I00
(lp45
g12
ag12
ag12
ag12
ag12
ag12
ag12
ag12
ag12
ag12
ag12
ag12
ag12
ag12
ag12
ag12
ag12
ag12
ag12
ag12
ag12
ag12
ag12
ag12
ag12
ag12
ag12
ag12
ag12
ag12
ag12
ag12
ag12
ag12
ag12
ag12
ag12
ag12
ag12
ag12
ag12
ag12
ag12
ag12
ag12
ag12
ag12
ag12
ag12
ag12
ag12
ag12
ag12
ag12
ag12
ag12
ag12
ag12
ag12
atbsg13
NstRp46
ag2
(g3
(dp47
g5
g6
(g7
(I0
tS'b'
tRp48
(I1
(I4
tg10
I00
(lp49
g12
ag12
ag12
ag12
atbsg13
NstRp50
ag2
(g3
(dp51
g5
g6
(g7
(I0
tS'b'
tRp52
(I1
(I4
tg10
I00
(lp53
g12
ag12
ag12
ag12
atbsg13
NstRp54
ag2
(g3
(dp55
g5
g6
(g7
(I0
tS'b'
tRp56
(I1
(I30
tg10
I00
(lp57
g12
ag12
ag12
ag12
ag12
ag12
ag12
ag12
ag12
ag12
ag12
ag12
ag12
ag12
ag12
ag12
ag12
ag12
ag12
ag12
ag12
ag12
ag12
ag12
ag12
ag12
ag12
ag12
ag12
ag12
atbsg13
NstRp58
ag2
(g3
(dp59
g5
g6
(g7
(I0
tS'b'
tRp60
(I1
(I6
tg10
I00
(lp61
g12
ag12
ag12
ag12
ag12
ag12
atbsg13
NstRp62
ag2
(g3
(dp63
g5
g6
(g7
(I0
tS'b'
tRp64
(I1
(I4
tg10
I00
(lp65
g12
ag12
ag12
ag12
atbsg13
NstRp66
ag2
(g3
(dp67
g5
g6
(g7
(I0
tS'b'
tRp68
(I1
(I89
tg10
I00
(lp69
g12
ag12
ag12
ag12
ag12
ag12
ag12
ag12
ag12
ag12
ag12
ag12
ag12
ag12
ag12
ag12
ag12
ag12
ag12
ag12
ag12
ag12
ag12
ag12
ag12
ag12
ag12
ag12
ag12
ag12
ag12
ag12
ag12
ag12
ag12
ag12
ag12
ag12
ag12
ag12
ag12
ag12
ag12
ag12
ag12
ag12
ag12
ag12
ag12
ag12
ag12
ag12
ag12
ag12
ag12
ag12
ag12
ag12
ag12
ag12
ag12
ag12
ag12
ag12
ag12
ag12
ag12
ag12
ag12
ag12
ag12
ag12
ag12
ag12
ag12
ag12
ag12
ag12
ag12
ag12
ag12
ag12
ag12
ag12
ag12
ag12
ag12
ag12
ag12
atbsg13
NstRp70
ag2
(g3
(dp71
g5
g6
(g7
(I0
tS'b'
tRp72
(I1
(I4
tg10
I00
(lp73
g12
ag12
ag12
ag12
atbsg13
NstRp74
ag2
(g3
(dp75
g5
g6
(g7
(I0
tS'b'
tRp76
(I1
(I6
tg10
I00
(lp77
g12
ag12
ag12
ag12
ag12
ag12
atbsg13
NstRp78
ag2
(g3
(dp79
g5
g6
(g7
(I0
tS'b'
tRp80
(I1
(I53
tg10
I00
(lp81
g12
ag12
ag12
ag12
ag12
ag12
ag12
ag12
ag12
ag12
ag12
ag12
ag12
ag12
ag12
ag12
ag12
ag12
ag12
ag12
ag12
ag12
ag12
ag12
ag12
ag12
ag12
ag12
ag12
ag12
ag12
ag12
ag12
ag12
ag12
ag12
ag12
ag12
ag12
ag12
ag12
ag12
ag12
ag12
ag12
ag12
ag12
ag12
ag12
ag12
ag12
ag12
ag12
atbsg13
NstRp82
ag2
(g3
(dp83
g5
g6
(g7
(I0
tS'b'
tRp84
(I1
(I5
tg10
I00
(lp85
g12
ag12
ag12
ag12
ag12
atbsg13
NstRp86
ag2
(g3
(dp87
g5
g6
(g7
(I0
tS'b'
tRp88
(I1
(I37
tg10
I00
(lp89
g12
ag12
ag12
ag12
ag12
ag12
ag12
ag12
ag12
ag12
ag12
ag12
ag12
ag12
ag12
ag12
ag12
ag12
ag12
ag12
ag12
ag12
ag12
ag12
ag12
ag12
ag12
ag12
ag12
ag12
ag12
ag12
ag12
ag12
ag12
ag12
ag12
atbsg13
NstRp90
ag2
(g3
(dp91
g5
g6
(g7
(I0
tS'b'
tRp92
(I1
(I5
tg10
I00
(lp93
g12
ag12
ag12
ag12
ag12
atbsg13
NstRp94
ag2
(g3
(dp95
g5
g6
(g7
(I0
tS'b'
tRp96
(I1
(I5
tg10
I00
(lp97
g12
ag12
ag12
ag12
ag12
atbsg13
NstRp98
ag2
(g3
(dp99
g5
g6
(g7
(I0
tS'b'
tRp100
(I1
(I2
tg10
I00
(lp101
g12
ag12
atbsg13
NstRp102
ag2
(g3
(dp103
g5
g6
(g7
(I0
tS'b'
tRp104
(I1
(I71
tg10
I00
(lp105
g12
ag12
ag12
ag12
ag12
ag12
ag12
ag12
ag12
ag12
ag12
ag12
ag12
ag12
ag12
ag12
ag12
ag12
ag12
ag12
ag12
ag12
ag12
ag12
ag12
ag12
ag12
ag12
ag12
ag12
ag12
ag12
ag12
ag12
ag12
ag12
ag12
ag12
ag12
ag12
ag12
ag12
ag12
ag12
ag12
ag12
ag12
ag12
ag12
ag12
ag12
ag12
ag12
ag12
ag12
ag12
ag12
ag12
ag12
ag12
ag12
ag12
ag12
ag12
ag12
ag12
ag12
ag12
ag12
ag12
ag12
atbsg13
NstRp106
ag2
(g3
(dp107
g5
g6
(g7
(I0
tS'b'
tRp108
(I1
(I4
tg10
I00
(lp109
g12
ag12
ag12
ag12
atbsg13
NstRp110
ag2
(g3
(dp111
g5
g6
(g7
(I0
tS'b'
tRp112
(I1
(I52
tg10
I00
(lp113
g12
ag12
ag12
ag12
ag12
ag12
ag12
ag12
ag12
ag12
ag12
ag12
ag12
ag12
ag12
ag12
ag12
ag12
ag12
ag12
ag12
ag12
ag12
ag12
ag12
ag12
ag12
ag12
ag12
ag12
ag12
ag12
ag12
ag12
ag12
ag12
ag12
ag12
ag12
ag12
ag12
ag12
ag12
ag12
ag12
ag12
ag12
ag12
ag12
ag12
ag12
ag12
atbsg13
NstRp114
ag2
(g3
(dp115
g5
g6
(g7
(I0
tS'b'
tRp116
(I1
(I20
tg10
I00
(lp117
g12
ag12
ag12
ag12
ag12
ag12
ag12
ag12
ag12
ag12
ag12
ag12
ag12
ag12
ag12
ag12
ag12
ag12
ag12
ag12
atbsg13
NstRp118
ag2
(g3
(dp119
g5
g6
(g7
(I0
tS'b'
tRp120
(I1
(I10
tg10
I00
(lp121
g12
ag12
ag12
ag12
ag12
ag12
ag12
ag12
ag12
ag12
atbsg13
NstRp122
ag2
(g3
(dp123
g5
g6
(g7
(I0
tS'b'
tRp124
(I1
(I82
tg10
I00
(lp125
g12
ag12
ag12
ag12
ag12
ag12
ag12
ag12
ag12
ag12
ag12
ag12
ag12
ag12
ag12
ag12
ag12
ag12
ag12
ag12
ag12
ag12
ag12
ag12
ag12
ag12
ag12
ag12
ag12
ag12
ag12
ag12
ag12
ag12
ag12
ag12
ag12
ag12
ag12
ag12
ag12
ag12
ag12
ag12
ag12
ag12
ag12
ag12
ag12
ag12
ag12
ag12
ag12
ag12
ag12
ag12
ag12
ag12
ag12
ag12
ag12
ag12
ag12
ag12
ag12
ag12
ag12
ag12
ag12
ag12
ag12
ag12
ag12
ag12
ag12
ag12
ag12
ag12
ag12
ag12
ag12
ag12
atbsg13
NstRp126
ag2
(g3
(dp127
g5
g6
(g7
(I0
tS'b'
tRp128
(I1
(I60
tg10
I00
(lp129
g12
ag12
ag12
ag12
ag12
ag12
ag12
ag12
ag12
ag12
ag12
ag12
ag12
ag12
ag12
ag12
ag12
ag12
ag12
ag12
ag12
ag12
ag12
ag12
ag12
ag12
ag12
ag12
ag12
ag12
ag12
ag12
ag12
ag12
ag12
ag12
ag12
ag12
ag12
ag12
ag12
ag12
ag12
ag12
ag12
ag12
ag12
ag12
ag12
ag12
ag12
ag12
ag12
ag12
ag12
ag12
ag12
ag12
ag12
ag12
atbsg13
NstRp130
ag2
(g3
(dp131
g5
g6
(g7
(I0
tS'b'
tRp132
(I1
(I33
tg10
I00
(lp133
g12
ag12
ag12
ag12
ag12
ag12
ag12
ag12
ag12
ag12
ag12
ag12
ag12
ag12
ag12
ag12
ag12
ag12
ag12
ag12
ag12
ag12
ag12
ag12
ag12
ag12
ag12
ag12
ag12
ag12
ag12
ag12
ag12
atbsg13
NstRp134
ag2
(g3
(dp135
g5
g6
(g7
(I0
tS'b'
tRp136
(I1
(I31
tg10
I00
(lp137
g12
ag12
ag12
ag12
ag12
ag12
ag12
ag12
ag12
ag12
ag12
ag12
ag12
ag12
ag12
ag12
ag12
ag12
ag12
ag12
ag12
ag12
ag12
ag12
ag12
ag12
ag12
ag12
ag12
ag12
ag12
atbsg13
NstRp138
ag2
(g3
(dp139
g5
g6
(g7
(I0
tS'b'
tRp140
(I1
(I8
tg10
I00
(lp141
g12
ag12
ag12
ag12
ag12
ag12
ag12
ag12
atbsg13
NstRp142
ag2
(g3
(dp143
g5
g6
(g7
(I0
tS'b'
tRp144
(I1
(I4
tg10
I00
(lp145
g12
ag12
ag12
ag12
atbsg13
NstRp146
ag2
(g3
(dp147
g5
g6
(g7
(I0
tS'b'
tRp148
(I1
(I5
tg10
I00
(lp149
g12
ag12
ag12
ag12
ag12
atbsg13
NstRp150
ag2
(g3
(dp151
g5
g6
(g7
(I0
tS'b'
tRp152
(I1
(I66
tg10
I00
(lp153
g12
ag12
ag12
ag12
ag12
ag12
ag12
ag12
ag12
ag12
ag12
ag12
ag12
ag12
ag12
ag12
ag12
ag12
ag12
ag12
ag12
ag12
ag12
ag12
ag12
ag12
ag12
ag12
ag12
ag12
ag12
ag12
ag12
ag12
ag12
ag12
ag12
ag12
ag12
ag12
ag12
ag12
ag12
ag12
ag12
ag12
ag12
ag12
ag12
ag12
ag12
ag12
ag12
ag12
ag12
ag12
ag12
ag12
ag12
ag12
ag12
ag12
ag12
ag12
ag12
ag12
atbsg13
NstRp154
ag2
(g3
(dp155
g5
g6
(g7
(I0
tS'b'
tRp156
(I1
(I4
tg10
I00
(lp157
g12
ag12
ag12
ag12
atbsg13
NstRp158
ag2
(g3
(dp159
g5
g6
(g7
(I0
tS'b'
tRp160
(I1
(I70
tg10
I00
(lp161
g12
ag12
ag12
ag12
ag12
ag12
ag12
ag12
ag12
ag12
ag12
ag12
ag12
ag12
ag12
ag12
ag12
ag12
ag12
ag12
ag12
ag12
ag12
ag12
ag12
ag12
ag12
ag12
ag12
ag12
ag12
ag12
ag12
ag12
ag12
ag12
ag12
ag12
ag12
ag12
ag12
ag12
ag12
ag12
ag12
ag12
ag12
ag12
ag12
ag12
ag12
ag12
ag12
ag12
ag12
ag12
ag12
ag12
ag12
ag12
ag12
ag12
ag12
ag12
ag12
ag12
ag12
ag12
ag12
ag12
atbsg13
NstRp162
ag2
(g3
(dp163
g5
g6
(g7
(I0
tS'b'
tRp164
(I1
(I9
tg10
I00
(lp165
g12
ag12
ag12
ag12
ag12
ag12
ag12
ag12
ag12
atbsg13
NstRp166
ag2
(g3
(dp167
g5
g6
(g7
(I0
tS'b'
tRp168
(I1
(I6
tg10
I00
(lp169
g12
ag12
ag12
ag12
ag12
ag12
atbsg13
NstRp170
ag2
(g3
(dp171
g5
g6
(g7
(I0
tS'b'
tRp172
(I1
(I4
tg10
I00
(lp173
g12
ag12
ag12
ag12
atbsg13
NstRp174
ag2
(g3
(dp175
g5
g6
(g7
(I0
tS'b'
tRp176
(I1
(I59
tg10
I00
(lp177
g12
ag12
ag12
ag12
ag12
ag12
ag12
ag12
ag12
ag12
ag12
ag12
ag12
ag12
ag12
ag12
ag12
ag12
ag12
ag12
ag12
ag12
ag12
ag12
ag12
ag12
ag12
ag12
ag12
ag12
ag12
ag12
ag12
ag12
ag12
ag12
ag12
ag12
ag12
ag12
ag12
ag12
ag12
ag12
ag12
ag12
ag12
ag12
ag12
ag12
ag12
ag12
ag12
ag12
ag12
ag12
ag12
ag12
ag12
atbsg13
NstRp178
ag2
(g3
(dp179
g5
g6
(g7
(I0
tS'b'
tRp180
(I1
(I56
tg10
I00
(lp181
g12
ag12
ag12
ag12
ag12
ag12
ag12
ag12
ag12
ag12
ag12
ag12
ag12
ag12
ag12
ag12
ag12
ag12
ag12
ag12
ag12
ag12
ag12
ag12
ag12
ag12
ag12
ag12
ag12
ag12
ag12
ag12
ag12
ag12
ag12
ag12
ag12
ag12
ag12
ag12
ag12
ag12
ag12
ag12
ag12
ag12
ag12
ag12
ag12
ag12
ag12
ag12
ag12
ag12
ag12
ag12
atbsg13
NstRp182
ag2
(g3
(dp183
g5
g6
(g7
(I0
tS'b'
tRp184
(I1
(I42
tg10
I00
(lp185
g12
ag12
ag12
ag12
ag12
ag12
ag12
ag12
ag12
ag12
ag12
ag12
ag12
ag12
ag12
ag12
ag12
ag12
ag12
ag12
ag12
ag12
ag12
ag12
ag12
ag12
ag12
ag12
ag12
ag12
ag12
ag12
ag12
ag12
ag12
ag12
ag12
ag12
ag12
ag12
ag12
ag12
atbsg13
NstRp186
ag2
(g3
(dp187
g5
g6
(g7
(I0
tS'b'
tRp188
(I1
(I75
tg10
I00
(lp189
g12
ag12
ag12
ag12
ag12
ag12
ag12
ag12
ag12
ag12
ag12
ag12
ag12
ag12
ag12
ag12
ag12
ag12
ag12
ag12
ag12
ag12
ag12
ag12
ag12
ag12
ag12
ag12
ag12
ag12
ag12
ag12
ag12
ag12
ag12
ag12
ag12
ag12
ag12
ag12
ag12
ag12
ag12
ag12
ag12
ag12
ag12
ag12
ag12
ag12
ag12
ag12
ag12
ag12
ag12
ag12
ag12
ag12
ag12
ag12
ag12
ag12
ag12
ag12
ag12
ag12
ag12
ag12
ag12
ag12
ag12
ag12
ag12
ag12
ag12
atbsg13
NstRp190
ag2
(g3
(dp191
g5
g6
(g7
(I0
tS'b'
tRp192
(I1
(I3
tg10
I00
(lp193
g12
ag12
ag12
atbsg13
NstRp194
ag2
(g3
(dp195
g5
g6
(g7
(I0
tS'b'
tRp196
(I1
(I55
tg10
I00
(lp197
g12
ag12
ag12
ag12
ag12
ag12
ag12
ag12
ag12
ag12
ag12
ag12
ag12
ag12
ag12
ag12
ag12
ag12
ag12
ag12
ag12
ag12
ag12
ag12
ag12
ag12
ag12
ag12
ag12
ag12
ag12
ag12
ag12
ag12
ag12
ag12
ag12
ag12
ag12
ag12
ag12
ag12
ag12
ag12
ag12
ag12
ag12
ag12
ag12
ag12
ag12
ag12
ag12
ag12
ag12
atbsg13
NstRp198
ag2
(g3
(dp199
g5
g6
(g7
(I0
tS'b'
tRp200
(I1
(I53
tg10
I00
(lp201
g12
ag12
ag12
ag12
ag12
ag12
ag12
ag12
ag12
ag12
ag12
ag12
ag12
ag12
ag12
ag12
ag12
ag12
ag12
ag12
ag12
ag12
ag12
ag12
ag12
ag12
ag12
ag12
ag12
ag12
ag12
ag12
ag12
ag12
ag12
ag12
ag12
ag12
ag12
ag12
ag12
ag12
ag12
ag12
ag12
ag12
ag12
ag12
ag12
ag12
ag12
ag12
ag12
atbsg13
NstRp202
ag2
(g3
(dp203
g5
g6
(g7
(I0
tS'b'
tRp204
(I1
(I46
tg10
I00
(lp205
g12
ag12
ag12
ag12
ag12
ag12
ag12
ag12
ag12
ag12
ag12
ag12
ag12
ag12
ag12
ag12
ag12
ag12
ag12
ag12
ag12
ag12
ag12
ag12
ag12
ag12
ag12
ag12
ag12
ag12
ag12
ag12
ag12
ag12
ag12
ag12
ag12
ag12
ag12
ag12
ag12
ag12
ag12
ag12
ag12
ag12
atbsg13
NstRp206
ag2
(g3
(dp207
g5
g6
(g7
(I0
tS'b'
tRp208
(I1
(I49
tg10
I00
(lp209
g12
ag12
ag12
ag12
ag12
ag12
ag12
ag12
ag12
ag12
ag12
ag12
ag12
ag12
ag12
ag12
ag12
ag12
ag12
ag12
ag12
ag12
ag12
ag12
ag12
ag12
ag12
ag12
ag12
ag12
ag12
ag12
ag12
ag12
ag12
ag12
ag12
ag12
ag12
ag12
ag12
ag12
ag12
ag12
ag12
ag12
ag12
ag12
ag12
atbsg13
NstRp210
ag2
(g3
(dp211
g5
g6
(g7
(I0
tS'b'
tRp212
(I1
(I4
tg10
I00
(lp213
g12
ag12
ag12
ag12
atbsg13
NstRp214
ag2
(g3
(dp215
g5
g6
(g7
(I0
tS'b'
tRp216
(I1
(I4
tg10
I00
(lp217
g12
ag12
ag12
ag12
atbsg13
NstRp218
ag2
(g3
(dp219
g5
g6
(g7
(I0
tS'b'
tRp220
(I1
(I60
tg10
I00
(lp221
g12
ag12
ag12
ag12
ag12
ag12
ag12
ag12
ag12
ag12
ag12
ag12
ag12
ag12
ag12
ag12
ag12
ag12
ag12
ag12
ag12
ag12
ag12
ag12
ag12
ag12
ag12
ag12
ag12
ag12
ag12
ag12
ag12
ag12
ag12
ag12
ag12
ag12
ag12
ag12
ag12
ag12
ag12
ag12
ag12
ag12
ag12
ag12
ag12
ag12
ag12
ag12
ag12
ag12
ag12
ag12
ag12
ag12
ag12
ag12
atbsg13
NstRp222
ag2
(g3
(dp223
g5
g6
(g7
(I0
tS'b'
tRp224
(I1
(I6
tg10
I00
(lp225
g12
ag12
ag12
ag12
ag12
ag12
atbsg13
NstRp226
ag2
(g3
(dp227
g5
g6
(g7
(I0
tS'b'
tRp228
(I1
(I5
tg10
I00
(lp229
g12
ag12
ag12
ag12
ag12
atbsg13
NstRp230
ag2
(g3
(dp231
g5
g6
(g7
(I0
tS'b'
tRp232
(I1
(I6
tg10
I00
(lp233
g12
ag12
ag12
ag12
ag12
ag12
atbsg13
NstRp234
ag2
(g3
(dp235
g5
g6
(g7
(I0
tS'b'
tRp236
(I1
(I89
tg10
I00
(lp237
g12
ag12
ag12
ag12
ag12
ag12
ag12
ag12
ag12
ag12
ag12
ag12
ag12
ag12
ag12
ag12
ag12
ag12
ag12
ag12
ag12
ag12
ag12
ag12
ag12
ag12
ag12
ag12
ag12
ag12
ag12
ag12
ag12
ag12
ag12
ag12
ag12
ag12
ag12
ag12
ag12
ag12
ag12
ag12
ag12
ag12
ag12
ag12
ag12
ag12
ag12
ag12
ag12
ag12
ag12
ag12
ag12
ag12
ag12
ag12
ag12
ag12
ag12
ag12
ag12
ag12
ag12
ag12
ag12
ag12
ag12
ag12
ag12
ag12
ag12
ag12
ag12
ag12
ag12
ag12
ag12
ag12
ag12
ag12
ag12
ag12
ag12
ag12
ag12
atbsg13
NstRp238
ag2
(g3
(dp239
g5
g6
(g7
(I0
tS'b'
tRp240
(I1
(I4
tg10
I00
(lp241
g12
ag12
ag12
ag12
atbsg13
NstRp242
ag2
(g3
(dp243
g5
g6
(g7
(I0
tS'b'
tRp244
(I1
(I5
tg10
I00
(lp245
g12
ag12
ag12
ag12
ag12
atbsg13
NstRp246
ag2
(g3
(dp247
g5
g6
(g7
(I0
tS'b'
tRp248
(I1
(I14
tg10
I00
(lp249
g12
ag12
ag12
ag12
ag12
ag12
ag12
ag12
ag12
ag12
ag12
ag12
ag12
ag12
atbsg13
NstRp250
ag2
(g3
(dp251
g5
g6
(g7
(I0
tS'b'
tRp252
(I1
(I5
tg10
I00
(lp253
g12
ag12
ag12
ag12
ag12
atbsg13
NstRp254
ag2
(g3
(dp255
g5
g6
(g7
(I0
tS'b'
tRp256
(I1
(I67
tg10
I00
(lp257
g12
ag12
ag12
ag12
ag12
ag12
ag12
ag12
ag12
ag12
ag12
ag12
ag12
ag12
ag12
ag12
ag12
ag12
ag12
ag12
ag12
ag12
ag12
ag12
ag12
ag12
ag12
ag12
ag12
ag12
ag12
ag12
ag12
ag12
ag12
ag12
ag12
ag12
ag12
ag12
ag12
ag12
ag12
ag12
ag12
ag12
ag12
ag12
ag12
ag12
ag12
ag12
ag12
ag12
ag12
ag12
ag12
ag12
ag12
ag12
ag12
ag12
ag12
ag12
ag12
ag12
ag12
atbsg13
NstRp258
ag2
(g3
(dp259
g5
g6
(g7
(I0
tS'b'
tRp260
(I1
(I4
tg10
I00
(lp261
g12
ag12
ag12
ag12
atbsg13
NstRp262
ag2
(g3
(dp263
g5
g6
(g7
(I0
tS'b'
tRp264
(I1
(I76
tg10
I00
(lp265
g12
ag12
ag12
ag12
ag12
ag12
ag12
ag12
ag12
ag12
ag12
ag12
ag12
ag12
ag12
ag12
ag12
ag12
ag12
ag12
ag12
ag12
ag12
ag12
ag12
ag12
ag12
ag12
ag12
ag12
ag12
ag12
ag12
ag12
ag12
ag12
ag12
ag12
ag12
ag12
ag12
ag12
ag12
ag12
ag12
ag12
ag12
ag12
ag12
ag12
ag12
ag12
ag12
ag12
ag12
ag12
ag12
ag12
ag12
ag12
ag12
ag12
ag12
ag12
ag12
ag12
ag12
ag12
ag12
ag12
ag12
ag12
ag12
ag12
ag12
ag12
atbsg13
NstRp266
ag2
(g3
(dp267
g5
g6
(g7
(I0
tS'b'
tRp268
(I1
(I5
tg10
I00
(lp269
g12
ag12
ag12
ag12
ag12
atbsg13
NstRp270
ag2
(g3
(dp271
g5
g6
(g7
(I0
tS'b'
tRp272
(I1
(I6
tg10
I00
(lp273
g12
ag12
ag12
ag12
ag12
ag12
atbsg13
NstRp274
ag2
(g3
(dp275
g5
g6
(g7
(I0
tS'b'
tRp276
(I1
(I56
tg10
I00
(lp277
g12
ag12
ag12
ag12
ag12
ag12
ag12
ag12
ag12
ag12
ag12
ag12
ag12
ag12
ag12
ag12
ag12
ag12
ag12
ag12
ag12
ag12
ag12
ag12
ag12
ag12
ag12
ag12
ag12
ag12
ag12
ag12
ag12
ag12
ag12
ag12
ag12
ag12
ag12
ag12
ag12
ag12
ag12
ag12
ag12
ag12
ag12
ag12
ag12
ag12
ag12
ag12
ag12
ag12
ag12
ag12
atbsg13
NstRp278
ag2
(g3
(dp279
g5
g6
(g7
(I0
tS'b'
tRp280
(I1
(I4
tg10
I00
(lp281
g12
ag12
ag12
ag12
atbsg13
NstRp282
ag2
(g3
(dp283
g5
g6
(g7
(I0
tS'b'
tRp284
(I1
(I48
tg10
I00
(lp285
g12
ag12
ag12
ag12
ag12
ag12
ag12
ag12
ag12
ag12
ag12
ag12
ag12
ag12
ag12
ag12
ag12
ag12
ag12
ag12
ag12
ag12
ag12
ag12
ag12
ag12
ag12
ag12
ag12
ag12
ag12
ag12
ag12
ag12
ag12
ag12
ag12
ag12
ag12
ag12
ag12
ag12
ag12
ag12
ag12
ag12
ag12
ag12
atbsg13
NstRp286
ag2
(g3
(dp287
g5
g6
(g7
(I0
tS'b'
tRp288
(I1
(I5
tg10
I00
(lp289
g12
ag12
ag12
ag12
ag12
atbsg13
NstRp290
ag2
(g3
(dp291
g5
g6
(g7
(I0
tS'b'
tRp292
(I1
(I5
tg10
I00
(lp293
g12
ag12
ag12
ag12
ag12
atbsg13
NstRp294
ag2
(g3
(dp295
g5
g6
(g7
(I0
tS'b'
tRp296
(I1
(I5
tg10
I00
(lp297
g12
ag12
ag12
ag12
ag12
atbsg13
NstRp298
ag2
(g3
(dp299
g5
g6
(g7
(I0
tS'b'
tRp300
(I1
(I85
tg10
I00
(lp301
g12
ag12
ag12
ag12
ag12
ag12
ag12
ag12
ag12
ag12
ag12
ag12
ag12
ag12
ag12
ag12
ag12
ag12
ag12
ag12
ag12
ag12
ag12
ag12
ag12
ag12
ag12
ag12
ag12
ag12
ag12
ag12
ag12
ag12
ag12
ag12
ag12
ag12
ag12
ag12
ag12
ag12
ag12
ag12
ag12
ag12
ag12
ag12
ag12
ag12
ag12
ag12
ag12
ag12
ag12
ag12
ag12
ag12
ag12
ag12
ag12
ag12
ag12
ag12
ag12
ag12
ag12
ag12
ag12
ag12
ag12
ag12
ag12
ag12
ag12
ag12
ag12
ag12
ag12
ag12
ag12
ag12
ag12
ag12
ag12
atbsg13
NstRp302
ag2
(g3
(dp303
g5
g6
(g7
(I0
tS'b'
tRp304
(I1
(I105
tg10
I00
(lp305
g12
ag12
ag12
ag12
ag12
ag12
ag12
ag12
ag12
ag12
ag12
ag12
ag12
ag12
ag12
ag12
ag12
ag12
ag12
ag12
ag12
ag12
ag12
ag12
ag12
ag12
ag12
ag12
ag12
ag12
ag12
ag12
ag12
ag12
ag12
ag12
ag12
ag12
ag12
ag12
ag12
ag12
ag12
ag12
ag12
ag12
ag12
ag12
ag12
ag12
ag12
ag12
ag12
ag12
ag12
ag12
ag12
ag12
ag12
ag12
ag12
ag12
ag12
ag12
ag12
ag12
ag12
ag12
ag12
ag12
ag12
ag12
ag12
ag12
ag12
ag12
ag12
ag12
ag12
ag12
ag12
ag12
ag12
ag12
ag12
ag12
ag12
ag12
ag12
ag12
ag12
ag12
ag12
ag12
ag12
ag12
ag12
ag12
ag12
ag12
ag12
ag12
ag12
ag12
ag12
atbsg13
NstRp306
ag2
(g3
(dp307
g5
g6
(g7
(I0
tS'b'
tRp308
(I1
(I4
tg10
I00
(lp309
g12
ag12
ag12
ag12
atbsg13
NstRp310
ag2
(g3
(dp311
g5
g6
(g7
(I0
tS'b'
tRp312
(I1
(I4
tg10
I00
(lp313
g12
ag12
ag12
ag12
atbsg13
NstRp314
ag2
(g3
(dp315
g5
g6
(g7
(I0
tS'b'
tRp316
(I1
(I104
tg10
I00
(lp317
g12
ag12
ag12
ag12
ag12
ag12
ag12
ag12
ag12
ag12
ag12
ag12
ag12
ag12
ag12
ag12
ag12
ag12
ag12
ag12
ag12
ag12
ag12
ag12
ag12
ag12
ag12
ag12
ag12
ag12
ag12
ag12
ag12
ag12
ag12
ag12
ag12
ag12
ag12
ag12
ag12
ag12
ag12
ag12
ag12
ag12
ag12
ag12
ag12
ag12
ag12
ag12
ag12
ag12
ag12
ag12
ag12
ag12
ag12
ag12
ag12
ag12
ag12
ag12
ag12
ag12
ag12
ag12
ag12
ag12
ag12
ag12
ag12
ag12
ag12
ag12
ag12
ag12
ag12
ag12
ag12
ag12
ag12
ag12
ag12
ag12
ag12
ag12
ag12
ag12
ag12
ag12
ag12
ag12
ag12
ag12
ag12
ag12
ag12
ag12
ag12
ag12
ag12
ag12
atbsg13
NstRp318
ag2
(g3
(dp319
g5
g6
(g7
(I0
tS'b'
tRp320
(I1
(I80
tg10
I00
(lp321
g12
ag12
ag12
ag12
ag12
ag12
ag12
ag12
ag12
ag12
ag12
ag12
ag12
ag12
ag12
ag12
ag12
ag12
ag12
ag12
ag12
ag12
ag12
ag12
ag12
ag12
ag12
ag12
ag12
ag12
ag12
ag12
ag12
ag12
ag12
ag12
ag12
ag12
ag12
ag12
ag12
ag12
ag12
ag12
ag12
ag12
ag12
ag12
ag12
ag12
ag12
ag12
ag12
ag12
ag12
ag12
ag12
ag12
ag12
ag12
ag12
ag12
ag12
ag12
ag12
ag12
ag12
ag12
ag12
ag12
ag12
ag12
ag12
ag12
ag12
ag12
ag12
ag12
ag12
ag12
atbsg13
NstRp322
ag2
(g3
(dp323
g5
g6
(g7
(I0
tS'b'
tRp324
(I1
(I5
tg10
I00
(lp325
g12
ag12
ag12
ag12
ag12
atbsg13
NstRp326
ag2
(g3
(dp327
g5
g6
(g7
(I0
tS'b'
tRp328
(I1
(I5
tg10
I00
(lp329
g12
ag12
ag12
ag12
ag12
atbsg13
NstRp330
ag2
(g3
(dp331
g5
g6
(g7
(I0
tS'b'
tRp332
(I1
(I4
tg10
I00
(lp333
g12
ag12
ag12
ag12
atbsg13
NstRp334
ag2
(g3
(dp335
g5
g6
(g7
(I0
tS'b'
tRp336
(I1
(I70
tg10
I00
(lp337
g12
ag12
ag12
ag12
ag12
ag12
ag12
ag12
ag12
ag12
ag12
ag12
ag12
ag12
ag12
ag12
ag12
ag12
ag12
ag12
ag12
ag12
ag12
ag12
ag12
ag12
ag12
ag12
ag12
ag12
ag12
ag12
ag12
ag12
ag12
ag12
ag12
ag12
ag12
ag12
ag12
ag12
ag12
ag12
ag12
ag12
ag12
ag12
ag12
ag12
ag12
ag12
ag12
ag12
ag12
ag12
ag12
ag12
ag12
ag12
ag12
ag12
ag12
ag12
ag12
ag12
ag12
ag12
ag12
ag12
atbsg13
NstRp338
ag2
(g3
(dp339
g5
g6
(g7
(I0
tS'b'
tRp340
(I1
(I7
tg10
I00
(lp341
g12
ag12
ag12
ag12
ag12
ag12
ag12
atbsg13
NstRp342
ag2
(g3
(dp343
g5
g6
(g7
(I0
tS'b'
tRp344
(I1
(I5
tg10
I00
(lp345
g12
ag12
ag12
ag12
ag12
atbsg13
NstRp346
ag2
(g3
(dp347
g5
g6
(g7
(I0
tS'b'
tRp348
(I1
(I4
tg10
I00
(lp349
g12
ag12
ag12
ag12
atbsg13
NstRp350
ag2
(g3
(dp351
g5
g6
(g7
(I0
tS'b'
tRp352
(I1
(I5
tg10
I00
(lp353
g12
ag12
ag12
ag12
ag12
atbsg13
NstRp354
ag2
(g3
(dp355
g5
g6
(g7
(I0
tS'b'
tRp356
(I1
(I6
tg10
I00
(lp357
g12
ag12
ag12
ag12
ag12
ag12
atbsg13
NstRp358
ag2
(g3
(dp359
g5
g6
(g7
(I0
tS'b'
tRp360
(I1
(I5
tg10
I00
(lp361
g12
ag12
ag12
ag12
ag12
atbsg13
NstRp362
ag2
(g3
(dp363
g5
g6
(g7
(I0
tS'b'
tRp364
(I1
(I76
tg10
I00
(lp365
g12
ag12
ag12
ag12
ag12
ag12
ag12
ag12
ag12
ag12
ag12
ag12
ag12
ag12
ag12
ag12
ag12
ag12
ag12
ag12
ag12
ag12
ag12
ag12
ag12
ag12
ag12
ag12
ag12
ag12
ag12
ag12
ag12
ag12
ag12
ag12
ag12
ag12
ag12
ag12
ag12
ag12
ag12
ag12
ag12
ag12
ag12
ag12
ag12
ag12
ag12
ag12
ag12
ag12
ag12
ag12
ag12
ag12
ag12
ag12
ag12
ag12
ag12
ag12
ag12
ag12
ag12
ag12
ag12
ag12
ag12
ag12
ag12
ag12
ag12
ag12
atbsg13
NstRp366
ag2
(g3
(dp367
g5
g6
(g7
(I0
tS'b'
tRp368
(I1
(I2
tg10
I00
(lp369
g12
ag12
atbsg13
NstRp370
ag2
(g3
(dp371
g5
g6
(g7
(I0
tS'b'
tRp372
(I1
(I78
tg10
I00
(lp373
g12
ag12
ag12
ag12
ag12
ag12
ag12
ag12
ag12
ag12
ag12
ag12
ag12
ag12
ag12
ag12
ag12
ag12
ag12
ag12
ag12
ag12
ag12
ag12
ag12
ag12
ag12
ag12
ag12
ag12
ag12
ag12
ag12
ag12
ag12
ag12
ag12
ag12
ag12
ag12
ag12
ag12
ag12
ag12
ag12
ag12
ag12
ag12
ag12
ag12
ag12
ag12
ag12
ag12
ag12
ag12
ag12
ag12
ag12
ag12
ag12
ag12
ag12
ag12
ag12
ag12
ag12
ag12
ag12
ag12
ag12
ag12
ag12
ag12
ag12
ag12
ag12
ag12
atbsg13
NstRp374
ag2
(g3
(dp375
g5
g6
(g7
(I0
tS'b'
tRp376
(I1
(I62
tg10
I00
(lp377
g12
ag12
ag12
ag12
ag12
ag12
ag12
ag12
ag12
ag12
ag12
ag12
ag12
ag12
ag12
ag12
ag12
ag12
ag12
ag12
ag12
ag12
ag12
ag12
ag12
ag12
ag12
ag12
ag12
ag12
ag12
ag12
ag12
ag12
ag12
ag12
ag12
ag12
ag12
ag12
ag12
ag12
ag12
ag12
ag12
ag12
ag12
ag12
ag12
ag12
ag12
ag12
ag12
ag12
ag12
ag12
ag12
ag12
ag12
ag12
ag12
ag12
atbsg13
NstRp378
ag2
(g3
(dp379
g5
g6
(g7
(I0
tS'b'
tRp380
(I1
(I8
tg10
I00
(lp381
g12
ag12
ag12
ag12
ag12
ag12
ag12
ag12
atbsg13
NstRp382
ag2
(g3
(dp383
g5
g6
(g7
(I0
tS'b'
tRp384
(I1
(I12
tg10
I00
(lp385
g12
ag12
ag12
ag12
ag12
ag12
ag12
ag12
ag12
ag12
ag12
ag12
atbsg13
NstRp386
ag2
(g3
(dp387
g5
g6
(g7
(I0
tS'b'
tRp388
(I1
(I37
tg10
I00
(lp389
g12
ag12
ag12
ag12
ag12
ag12
ag12
ag12
ag12
ag12
ag12
ag12
ag12
ag12
ag12
ag12
ag12
ag12
ag12
ag12
ag12
ag12
ag12
ag12
ag12
ag12
ag12
ag12
ag12
ag12
ag12
ag12
ag12
ag12
ag12
ag12
ag12
atbsg13
NstRp390
ag2
(g3
(dp391
g5
g6
(g7
(I0
tS'b'
tRp392
(I1
(I5
tg10
I00
(lp393
g12
ag12
ag12
ag12
ag12
atbsg13
NstRp394
ag2
(g3
(dp395
g5
g6
(g7
(I0
tS'b'
tRp396
(I1
(I39
tg10
I00
(lp397
g12
ag12
ag12
ag12
ag12
ag12
ag12
ag12
ag12
ag12
ag12
ag12
ag12
ag12
ag12
ag12
ag12
ag12
ag12
ag12
ag12
ag12
ag12
ag12
ag12
ag12
ag12
ag12
ag12
ag12
ag12
ag12
ag12
ag12
ag12
ag12
ag12
ag12
ag12
atbsg13
NstRp398
ag2
(g3
(dp399
g5
g6
(g7
(I0
tS'b'
tRp400
(I1
(I12
tg10
I00
(lp401
g12
ag12
ag12
ag12
ag12
ag12
ag12
ag12
ag12
ag12
ag12
ag12
atbsg13
NstRp402
ag2
(g3
(dp403
g5
g6
(g7
(I0
tS'b'
tRp404
(I1
(I46
tg10
I00
(lp405
g12
ag12
ag12
ag12
ag12
ag12
ag12
ag12
ag12
ag12
ag12
ag12
ag12
ag12
ag12
ag12
ag12
ag12
ag12
ag12
ag12
ag12
ag12
ag12
ag12
ag12
ag12
ag12
ag12
ag12
ag12
ag12
ag12
ag12
ag12
ag12
ag12
ag12
ag12
ag12
ag12
ag12
ag12
ag12
ag12
ag12
atbsg13
NstRp406
ag2
(g3
(dp407
g5
g6
(g7
(I0
tS'b'
tRp408
(I1
(I5
tg10
I00
(lp409
g12
ag12
ag12
ag12
ag12
atbsg13
NstRp410
a.