(lp1
cpandas.core.indexes.base
_new_Index
p2
(cpandas.core.indexes.base
Index
p3
(dp4
S'data'
p5
cnumpy.core.multiarray
_reconstruct
p6
(cnumpy
ndarray
p7
(I0
tS'b'
tRp8
(I1
(I23
tcnumpy
dtype
p9
(S'O8'
I0
I1
tRp10
(I3
S'|'
NNNI-1
I-1
I63
tbI00
(lp11
S'ABILH012'
p12
aS'ABILH018'
p13
aS'FIM (008'
p14
aS'FIM (011'
p15
aS'FIM (012'
p16
aS'FIM (014'
p17
aS'FIM (SUB5'
p18
aS'HADS 007'
p19
aS'HADS 013'
p20
aS'HEIG'
p21
aS'ISTRU'
p22
aS'LIFE 004'
p23
aS'LIFE 010'
p24
aS'MFIS 002'
p25
aS'MFIS 003'
p26
aS'MFIS 006'
p27
aS'MFIS 010'
p28
aS'MFIS 014'
p29
aS'OAB-Q006'
p30
aS'PASATTOT'
p31
aS'SDMT TOT'
p32
aS'EDINB001_1'
p33
aS'EDINB002_0'
p34
atbsS'name'
p35
NstRp36
ag2
(g3
(dp37
g5
g6
(g7
(I0
tS'b'
tRp38
(I1
(I90
tg10
I00
(lp39
S'ABILH001'
p40
aS'ABILH002'
p41
aS'ABILH003'
p42
aS'ABILH004'
p43
aS'ABILH006'
p44
aS'ABILH007'
p45
aS'ABILH008'
p46
aS'ABILH009'
p47
aS'ABILH010'
p48
aS'ABILH011'
p49
ag12
aS'ABILH013'
p50
aS'ABILH014'
p51
ag13
aS'ABILH020'
p52
aS'ABILH021'
p53
aS'ABILH022'
p54
aS'FIM (003'
p55
aS'FIM (004'
p56
aS'FIM (006'
p57
ag14
ag15
ag16
ag17
aS'FIM (016'
p58
aS'FIM (017'
p59
aS'FIM (019'
p60
ag18
aS'HADS 001'
p61
aS'HADS 002'
p62
aS'HADS 003'
p63
aS'HADS 004'
p64
aS'HADS 005'
p65
aS'HADS 006'
p66
ag19
aS'HADS 008'
p67
aS'HADS 009'
p68
aS'HADS 011'
p69
aS'HADS 012'
p70
ag20
aS'HADS 014'
p71
ag21
aS'LIFE 001'
p72
aS'LIFE 002'
p73
ag23
aS'LIFE 007'
p74
ag24
aS'LIFE 011'
p75
aS'MFIS 001'
p76
ag25
ag26
ag27
aS'MFIS 009'
p77
ag28
aS'MFIS 012'
p78
ag29
aS'MFIS 016'
p79
aS'MFIS 019'
p80
aS'MFIS 021'
p81
aS'MOCA 002'
p82
aS'MOCA 004'
p83
aS'MOCA 005'
p84
aS'MOCA 006'
p85
aS'MOCA 007'
p86
aS'MOCA 008'
p87
aS'MOCA 009'
p88
aS'MOCA 010'
p89
aS'MOCA 011'
p90
aS'OAB-Q002'
p91
aS'OAB-Q003'
p92
aS'OAB-Q004'
p93
ag30
aS'OAB-Q007'
p94
aS'OAB-Q008'
p95
ag31
aS'RELAPS'
p96
ag32
aS'WEIG'
p97
ag33
aS'EDINB001_2'
p98
ag34
aS'EDINB003_0'
p99
aS'EDINB003_2'
p100
aS'EDINB005_0'
p101
aS'EDINB006_0'
p102
aS'EDINB007_1'
p103
aS'EDINB007_2'
p104
aS'EDINB008_0'
p105
aS'EDINB008_2'
p106
aS'EDINB009_0'
p107
atbsg35
NstRp108
ag2
(g3
(dp109
g5
g6
(g7
(I0
tS'b'
tRp110
(I1
(I6
tg10
I00
(lp111
g15
ag16
ag17
ag18
aS'FIM (SUB6'
p112
ag32
atbsg35
NstRp113
ag2
(g3
(dp114
g5
g6
(g7
(I0
tS'b'
tRp115
(I1
(I30
tg10
I00
(lp116
g12
ag13
ag53
ag57
ag14
ag15
ag16
ag17
ag59
aS'FIM (SUB3'
p117
ag18
ag65
ag19
ag20
ag21
ag22
ag73
ag23
ag24
ag76
ag25
ag27
ag28
ag29
aS'MFIS 017'
p118
ag90
ag30
ag32
ag33
ag105
atbsg35
NstRp119
ag2
(g3
(dp120
g5
g6
(g7
(I0
tS'b'
tRp121
(I1
(I6
tg10
I00
(lp122
g15
ag16
ag17
ag18
ag112
ag32
atbsg35
NstRp123
ag2
(g3
(dp124
g5
g6
(g7
(I0
tS'b'
tRp125
(I1
(I40
tg10
I00
(lp126
g12
ag13
ag57
ag14
ag15
ag16
ag17
ag58
ag59
ag117
ag18
ag62
ag64
ag65
ag19
ag67
ag70
ag21
ag73
ag23
ag24
ag76
ag25
ag26
ag27
ag77
ag29
aS'MFIS 020'
p127
aS'MFIS SUB2'
p128
ag83
ag85
aS'OAB-Q005'
p129
ag30
ag31
ag96
ag32
ag97
ag33
ag98
ag34
atbsg35
NstRp130
ag2
(g3
(dp131
g5
g6
(g7
(I0
tS'b'
tRp132
(I1
(I8
tg10
I00
(lp133
g55
aS'FIM (005'
p134
ag15
ag16
ag17
ag18
ag112
ag32
atbsg35
NstRp135
ag2
(g3
(dp136
g5
g6
(g7
(I0
tS'b'
tRp137
(I1
(I90
tg10
I00
(lp138
g40
ag42
ag43
ag45
ag46
ag47
ag48
ag49
ag12
ag50
ag51
aS'ABILH017'
p139
ag13
ag52
ag53
aS'FIM (001'
p140
ag55
ag56
ag57
ag14
ag15
ag16
ag17
aS'FIM (015'
p141
ag58
ag59
ag60
ag117
ag18
ag61
ag62
ag64
ag65
ag19
ag67
ag68
ag70
ag20
ag71
ag21
ag72
aS'LIFE 003'
p142
ag23
aS'LIFE 005'
p143
ag24
ag75
ag76
ag25
ag26
aS'MFIS 005'
p144
ag27
ag77
ag28
aS'MFIS 011'
p145
ag29
ag80
ag81
aS'MOCA 003'
p146
ag83
ag84
ag85
ag86
ag87
ag88
ag89
ag90
aS'OAB-Q001'
p147
ag91
ag92
ag93
ag129
ag30
ag94
ag96
ag32
ag97
aS'EDINB001_0'
p148
ag98
ag34
aS'EDINB002_2'
p149
ag99
ag100
aS'EDINB004_1'
p150
aS'EDINB005_1'
p151
aS'EDINB005_2'
p152
ag102
aS'EDINB006_2'
p153
aS'EDINB007_0'
p154
ag105
aS'EDINB010_0'
p155
atbsg35
NstRp156
ag2
(g3
(dp157
g5
g6
(g7
(I0
tS'b'
tRp158
(I1
(I3
tg10
I00
(lp159
g16
ag17
ag18
atbsg35
NstRp160
ag2
(g3
(dp161
g5
g6
(g7
(I0
tS'b'
tRp162
(I1
(I51
tg10
I00
(lp163
g12
ag50
ag51
ag139
ag13
ag54
ag55
ag57
ag14
ag15
ag16
ag17
ag58
ag59
ag117
ag18
ag62
ag65
ag66
ag19
ag68
ag70
ag20
ag71
ag21
ag73
ag23
ag74
aS'LIFE 009'
p164
ag24
ag75
ag25
ag27
ag77
ag29
ag83
ag84
ag85
ag88
ag90
ag91
ag129
ag30
ag96
ag32
ag97
ag98
ag34
ag100
aS'EDINB004_0'
p165
aS'EDINB008_1'
p166
atbsg35
NstRp167
ag2
(g3
(dp168
g5
g6
(g7
(I0
tS'b'
tRp169
(I1
(I9
tg10
I00
(lp170
g55
ag134
ag15
ag16
ag17
ag18
ag112
aS'FIM (TOT'
p171
ag32
atbsg35
NstRp172
ag2
(g3
(dp173
g5
g6
(g7
(I0
tS'b'
tRp174
(I1
(I59
tg10
I00
(lp175
g40
ag45
ag46
ag47
ag12
ag50
ag13
ag53
ag55
ag56
ag57
ag14
ag15
ag16
ag17
ag58
ag59
ag60
ag117
ag18
ag62
ag65
ag66
ag19
ag67
aS'HADS 010'
p176
ag70
ag20
ag71
ag21
ag22
ag73
ag23
ag24
ag75
ag76
ag25
ag26
ag27
ag77
ag28
ag29
ag118
ag84
ag85
ag87
ag89
ag90
ag91
ag92
ag129
ag30
ag95
ag96
ag32
ag97
ag98
ag34
ag166
atbsg35
NstRp177
ag2
(g3
(dp178
g5
g6
(g7
(I0
tS'b'
tRp179
(I1
(I31
tg10
I00
(lp180
g12
ag57
ag14
ag15
ag16
ag17
ag59
ag18
ag62
ag19
ag70
ag20
aS'HADS SUB1'
p181
ag21
ag23
ag25
ag26
ag27
ag77
ag28
ag29
ag84
ag85
ag90
ag129
ag30
ag96
ag32
ag33
ag98
ag34
atbsg35
NstRp182
ag2
(g3
(dp183
g5
g6
(g7
(I0
tS'b'
tRp184
(I1
(I66
tg10
I00
(lp185
g43
ag44
ag45
ag47
ag12
ag50
ag51
ag13
ag53
ag55
ag56
ag57
ag14
ag15
ag16
ag17
ag59
ag18
ag61
ag62
ag64
ag65
ag19
ag67
ag68
ag70
ag20
ag71
ag21
ag72
ag73
ag142
ag23
ag143
ag74
ag164
ag24
ag75
ag76
ag25
ag26
ag27
ag77
ag29
ag118
ag81
ag84
ag85
ag86
ag88
ag89
ag90
ag91
ag92
ag93
ag30
ag31
ag96
ag32
ag97
ag98
ag34
ag99
ag100
ag106
ag155
atbsg35
NstRp186
ag2
(g3
(dp187
g5
g6
(g7
(I0
tS'b'
tRp188
(I1
(I72
tg10
I00
(lp189
g42
ag44
ag45
ag46
ag47
ag12
ag50
ag51
ag139
ag13
ag52
ag53
ag140
ag55
ag56
ag57
ag14
ag15
ag16
ag17
ag58
ag59
ag60
ag18
ag61
ag62
ag64
ag65
ag66
ag19
ag67
ag68
ag176
ag70
ag20
ag71
ag21
ag73
ag23
ag74
ag24
ag75
ag25
ag26
aS'MFIS 004'
p190
ag27
ag78
ag29
aS'MFIS 015'
p191
ag79
ag84
ag86
ag88
ag89
ag90
ag93
ag30
ag31
ag96
ag32
ag97
ag148
ag98
ag34
ag99
ag100
ag165
ag150
ag102
ag153
ag105
ag166
atbsg35
NstRp192
ag2
(g3
(dp193
g5
g6
(g7
(I0
tS'b'
tRp194
(I1
(I87
tg10
I00
(lp195
g40
ag42
ag46
ag47
ag12
ag51
aS'ABILH015'
p196
aS'ABILH016'
p197
ag139
ag13
ag52
ag53
ag54
ag140
ag55
ag57
ag14
aS'FIM (010'
p198
ag15
ag16
ag17
ag141
ag58
ag59
ag60
ag18
ag61
ag62
ag64
ag65
ag66
ag19
ag68
ag70
ag20
ag71
ag21
ag22
ag72
ag73
ag142
ag23
ag74
ag164
ag24
ag75
ag25
ag26
ag27
aS'MFIS 008'
p199
ag77
ag28
ag78
ag29
aS'MFIS 018'
p200
ag80
ag81
ag146
ag84
ag86
ag87
ag88
ag89
ag90
ag92
ag93
ag30
ag94
ag95
ag96
ag32
ag97
ag33
ag98
ag34
ag99
ag100
ag150
ag101
ag151
ag102
ag154
ag103
ag166
ag107
aS'EDINB009_1'
p201
ag155
atbsg35
NstRp202
ag2
(g3
(dp203
g5
g6
(g7
(I0
tS'b'
tRp204
(I1
(I13
tg10
I00
(lp205
g13
ag55
ag134
aS'FIM (009'
p206
ag198
ag15
ag16
ag17
aS'FIM (SUB4'
p207
ag18
ag112
ag171
ag32
atbsg35
NstRp208
ag2
(g3
(dp209
g5
g6
(g7
(I0
tS'b'
tRp210
(I1
(I36
tg10
I00
(lp211
g46
ag12
ag13
ag140
ag57
ag14
ag15
ag16
ag17
ag59
ag18
ag63
ag65
ag19
ag67
ag70
ag20
ag181
ag23
ag164
ag24
ag25
ag26
ag27
ag77
ag29
ag118
ag84
ag90
ag30
ag96
ag32
ag97
ag33
ag98
ag106
atbsg35
NstRp212
ag2
(g3
(dp213
g5
g6
(g7
(I0
tS'b'
tRp214
(I1
(I115
tg10
I00
(lp215
g41
ag42
ag43
aS'ABILH005'
p216
ag45
ag46
ag47
ag49
ag12
ag50
ag51
ag196
ag139
ag13
aS'ABILH019'
p217
ag52
ag53
aS'ABILHSUB1'
p218
aS'ABILHTOT'
p219
ag140
aS'FIM (002'
p220
ag55
ag56
ag57
ag14
ag206
ag198
ag15
ag16
ag17
ag141
ag58
ag59
aS'FIM (018'
p221
ag60
ag117
ag18
ag61
ag62
ag63
ag64
ag65
ag66
ag19
ag67
ag176
ag69
ag70
ag20
ag71
ag21
ag22
ag72
ag73
ag23
ag143
aS'LIFE 006'
p222
aS'LIFE 008'
p223
ag24
ag75
ag76
ag25
ag26
ag190
ag27
ag199
ag77
ag28
ag78
aS'MFIS 013'
p224
ag29
ag191
ag79
ag200
ag80
ag128
aS'MOCA 001'
p225
ag146
ag84
ag85
ag86
ag87
ag88
ag89
ag90
ag147
ag91
ag92
ag129
ag30
ag94
ag95
ag31
ag96
ag32
ag97
ag33
ag98
ag34
ag149
ag99
ag100
ag165
ag150
ag101
ag152
ag102
ag153
ag154
ag105
ag166
ag107
aS'EDINB009_2'
p226
ag155
aS'EDINB010_1'
p227
atbsg35
NstRp228
ag2
(g3
(dp229
g5
g6
(g7
(I0
tS'b'
tRp230
(I1
(I5
tg10
I00
(lp231
g15
ag16
ag17
ag18
ag32
atbsg35
NstRp232
ag2
(g3
(dp233
g5
g6
(g7
(I0
tS'b'
tRp234
(I1
(I7
tg10
I00
(lp235
g134
ag15
ag16
ag17
ag18
ag112
ag32
atbsg35
NstRp236
ag2
(g3
(dp237
g5
g6
(g7
(I0
tS'b'
tRp238
(I1
(I4
tg10
I00
(lp239
g15
ag16
ag17
ag18
atbsg35
NstRp240
ag2
(g3
(dp241
g5
g6
(g7
(I0
tS'b'
tRp242
(I1
(I5
tg10
I00
(lp243
g15
ag16
ag17
ag18
ag32
atbsg35
NstRp244
ag2
(g3
(dp245
g5
g6
(g7
(I0
tS'b'
tRp246
(I1
(I6
tg10
I00
(lp247
g15
ag16
ag17
ag18
ag112
ag32
atbsg35
NstRp248
ag2
(g3
(dp249
g5
g6
(g7
(I0
tS'b'
tRp250
(I1
(I51
tg10
I00
(lp251
g45
ag12
ag196
ag197
ag13
ag55
ag134
ag14
ag206
ag198
ag15
ag16
aS'FIM (013'
p252
ag17
ag18
ag112
ag171
ag62
ag65
ag19
ag68
ag176
ag20
ag181
ag21
ag22
ag23
ag223
ag24
ag76
ag25
ag26
ag27
ag77
ag28
ag29
ag118
ag80
ag127
aS'MFIS SUB1'
p253
ag128
ag225
ag90
ag129
ag30
ag31
ag32
ag97
ag33
ag98
ag166
atbsg35
NstRp254
ag2
(g3
(dp255
g5
g6
(g7
(I0
tS'b'
tRp256
(I1
(I6
tg10
I00
(lp257
g15
ag16
ag17
ag18
ag112
ag32
atbsg35
NstRp258
ag2
(g3
(dp259
g5
g6
(g7
(I0
tS'b'
tRp260
(I1
(I5
tg10
I00
(lp261
g15
ag16
ag17
ag18
ag32
atbsg35
NstRp262
ag2
(g3
(dp263
g5
g6
(g7
(I0
tS'b'
tRp264
(I1
(I73
tg10
I00
(lp265
g43
ag46
ag47
ag12
ag51
ag197
ag13
ag52
ag53
ag140
ag55
ag56
ag57
ag14
ag15
ag16
ag17
ag141
ag58
ag59
ag60
ag117
ag18
ag62
ag64
ag65
ag19
ag67
ag68
ag70
ag71
ag21
ag72
ag73
ag23
ag74
ag223
ag24
ag75
ag25
ag26
ag144
ag27
ag77
ag28
ag224
ag29
ag80
ag81
ag83
ag84
ag85
ag86
ag87
ag90
ag91
ag92
ag93
ag129
ag30
ag95
ag31
ag96
ag32
ag97
ag33
ag34
ag99
ag100
ag151
ag102
ag153
ag105
atbsg35
NstRp266
ag2
(g3
(dp267
g5
g6
(g7
(I0
tS'b'
tRp268
(I1
(I63
tg10
I00
(lp269
g45
ag47
ag12
ag50
ag51
ag13
ag53
ag140
ag57
ag14
ag15
ag16
ag17
ag58
ag59
ag117
ag18
ag62
ag64
ag65
ag66
ag19
ag67
ag68
ag70
ag20
ag21
ag72
ag73
ag23
ag143
ag74
ag24
ag75
ag76
ag25
ag26
ag27
ag77
ag29
ag118
ag80
ag225
ag83
ag84
ag85
ag90
ag91
ag93
ag129
ag30
ag95
ag31
ag32
ag97
ag148
ag98
ag34
ag100
ag165
ag150
ag101
ag102
atbsg35
NstRp270
ag2
(g3
(dp271
g5
g6
(g7
(I0
tS'b'
tRp272
(I1
(I9
tg10
I00
(lp273
g55
ag134
ag15
ag16
ag17
ag18
ag112
ag171
ag32
atbsg35
NstRp274
ag2
(g3
(dp275
g5
g6
(g7
(I0
tS'b'
tRp276
(I1
(I6
tg10
I00
(lp277
g15
ag16
ag17
ag18
ag112
ag32
atbsg35
NstRp278
ag2
(g3
(dp279
g5
g6
(g7
(I0
tS'b'
tRp280
(I1
(I6
tg10
I00
(lp281
g15
ag16
ag17
ag18
ag112
ag32
atbsg35
NstRp282
ag2
(g3
(dp283
g5
g6
(g7
(I0
tS'b'
tRp284
(I1
(I5
tg10
I00
(lp285
g15
ag16
ag17
ag18
ag32
atbsg35
NstRp286
ag2
(g3
(dp287
g5
g6
(g7
(I0
tS'b'
tRp288
(I1
(I73
tg10
I00
(lp289
g43
ag44
ag45
ag46
ag47
ag12
ag50
ag51
ag13
ag53
ag54
ag55
ag57
ag14
ag15
ag16
ag252
ag17
ag58
ag59
ag60
ag117
ag18
ag62
ag64
ag65
ag66
ag19
ag68
ag176
ag69
ag70
ag20
ag71
ag21
ag73
ag23
ag143
ag222
ag74
ag164
ag24
ag75
ag25
ag26
ag27
ag77
ag28
ag29
ag80
ag146
ag84
ag85
ag86
ag88
ag89
ag90
ag91
ag129
ag30
ag95
ag31
ag96
ag32
ag97
ag33
ag98
ag34
ag99
ag100
ag150
ag166
ag107
atbsg35
NstRp290
ag2
(g3
(dp291
g5
g6
(g7
(I0
tS'b'
tRp292
(I1
(I86
tg10
I00
(lp293
g40
ag45
ag46
ag47
ag48
ag12
ag139
ag13
ag217
ag53
ag140
ag55
ag56
ag57
ag14
ag15
ag16
ag17
ag58
ag59
ag60
ag117
ag18
ag61
ag62
ag64
ag65
ag66
ag19
ag67
ag68
ag176
ag69
ag70
ag20
ag71
ag21
ag22
ag72
ag73
ag23
ag143
ag222
ag74
ag164
ag24
ag75
ag76
ag25
ag26
ag199
ag77
ag28
ag78
ag29
ag81
ag83
ag84
ag85
ag86
ag87
ag88
ag89
ag90
ag91
ag92
ag93
ag129
ag30
ag94
ag31
ag96
ag32
ag97
ag98
ag34
ag99
ag100
ag165
aS'EDINB004_2'
p294
ag102
ag153
ag105
ag166
ag107
ag226
atbsg35
NstRp295
ag2
(g3
(dp296
g5
g6
(g7
(I0
tS'b'
tRp297
(I1
(I64
tg10
I00
(lp298
g43
ag45
ag12
ag50
ag51
ag139
ag13
ag52
ag53
ag54
ag140
ag55
ag57
ag14
ag15
ag16
ag17
ag58
ag59
ag60
ag117
ag18
ag62
ag65
ag66
ag19
ag68
ag70
ag20
ag71
ag21
ag22
ag72
ag73
ag23
ag74
ag24
ag76
ag25
ag26
ag27
ag77
ag28
ag29
ag80
ag83
ag84
ag85
ag88
ag91
ag129
ag95
ag96
ag32
ag97
ag148
ag98
ag34
ag99
ag100
ag102
ag104
ag105
ag155
atbsg35
NstRp299
ag2
(g3
(dp300
g5
g6
(g7
(I0
tS'b'
tRp301
(I1
(I82
tg10
I00
(lp302
g40
ag42
ag44
ag45
ag46
ag47
ag12
ag50
ag51
ag139
ag13
ag53
ag140
ag55
ag56
ag57
ag14
ag206
ag15
ag16
ag17
ag141
ag58
ag59
ag60
ag117
ag18
ag62
ag63
ag65
ag66
ag19
ag68
ag69
ag70
ag20
ag71
ag21
ag22
ag72
ag73
ag23
ag74
ag223
ag164
ag24
ag75
ag25
ag26
ag27
ag77
ag145
ag224
ag29
ag191
ag79
ag80
ag146
ag83
ag84
ag85
ag86
ag87
ag88
ag89
ag90
ag91
ag92
ag129
ag30
ag95
ag96
ag32
ag97
ag33
ag98
ag34
aS'EDINB003_1'
p303
ag100
ag165
ag101
ag102
atbsg35
NstRp304
ag2
(g3
(dp305
g5
g6
(g7
(I0
tS'b'
tRp306
(I1
(I4
tg10
I00
(lp307
g15
ag16
ag17
ag18
atbsg35
NstRp308
ag2
(g3
(dp309
g5
g6
(g7
(I0
tS'b'
tRp310
(I1
(I5
tg10
I00
(lp311
g15
ag16
ag17
ag18
ag32
atbsg35
NstRp312
ag2
(g3
(dp313
g5
g6
(g7
(I0
tS'b'
tRp314
(I1
(I9
tg10
I00
(lp315
g55
ag134
ag15
ag16
ag17
ag18
ag112
ag171
ag32
atbsg35
NstRp316
ag2
(g3
(dp317
g5
g6
(g7
(I0
tS'b'
tRp318
(I1
(I3
tg10
I00
(lp319
g15
ag17
ag18
atbsg35
NstRp320
ag2
(g3
(dp321
g5
g6
(g7
(I0
tS'b'
tRp322
(I1
(I99
tg10
I00
(lp323
g40
ag41
ag43
ag44
ag45
ag46
ag47
ag12
ag50
ag51
ag139
ag13
ag52
ag53
ag55
ag57
ag14
ag198
ag15
ag16
ag252
ag17
ag58
ag59
ag221
ag60
ag117
ag18
ag112
ag62
ag64
ag65
ag66
ag19
ag67
ag68
ag176
ag69
ag70
ag20
ag71
ag181
aS'HADS SUB2'
p324
ag21
ag22
ag72
ag73
ag142
ag23
ag74
ag24
ag75
ag76
ag25
ag26
ag144
ag27
ag199
ag77
ag28
ag78
ag29
ag80
ag127
ag81
ag253
ag128
ag225
ag146
ag84
ag85
ag86
ag89
ag90
ag147
ag91
ag92
ag93
ag129
ag30
ag95
ag31
ag96
ag32
ag97
ag33
ag98
ag34
ag99
ag100
ag165
ag150
ag102
ag154
ag104
ag105
ag166
ag107
ag155
atbsg35
NstRp325
ag2
(g3
(dp326
g5
g6
(g7
(I0
tS'b'
tRp327
(I1
(I5
tg10
I00
(lp328
g15
ag16
ag17
ag18
ag32
atbsg35
NstRp329
ag2
(g3
(dp330
g5
g6
(g7
(I0
tS'b'
tRp331
(I1
(I53
tg10
I00
(lp332
g46
ag47
ag12
ag50
ag13
ag55
ag57
ag14
ag15
ag16
ag17
ag58
ag59
ag60
ag18
ag61
ag62
ag64
ag66
ag19
ag68
ag70
ag20
ag71
ag21
ag72
ag142
ag23
ag74
ag24
ag75
ag76
ag25
ag26
ag144
ag27
ag77
ag28
ag29
ag80
ag84
ag89
ag90
ag129
ag30
ag32
ag97
ag98
ag34
ag150
ag102
ag105
ag155
atbsg35
NstRp333
ag2
(g3
(dp334
g5
g6
(g7
(I0
tS'b'
tRp335
(I1
(I37
tg10
I00
(lp336
g43
ag45
ag12
ag13
ag57
ag14
ag15
ag16
ag17
ag59
ag18
ag65
ag19
ag67
ag70
ag21
ag73
ag142
ag23
ag24
ag25
ag26
ag27
ag29
ag118
ag88
ag91
ag30
ag96
ag32
ag97
ag148
ag98
ag34
ag100
ag150
ag166
atbsg35
NstRp337
ag2
(g3
(dp338
g5
g6
(g7
(I0
tS'b'
tRp339
(I1
(I5
tg10
I00
(lp340
g15
ag16
ag17
ag18
ag32
atbsg35
NstRp341
ag2
(g3
(dp342
g5
g6
(g7
(I0
tS'b'
tRp343
(I1
(I6
tg10
I00
(lp344
g15
ag16
ag17
ag18
ag112
ag32
atbsg35
NstRp345
ag2
(g3
(dp346
g5
g6
(g7
(I0
tS'b'
tRp347
(I1
(I72
tg10
I00
(lp348
g41
ag42
ag45
ag46
ag47
ag12
ag51
ag13
ag53
ag55
ag57
ag14
ag15
ag16
ag252
ag17
ag58
ag59
ag60
ag117
ag18
ag62
ag64
ag65
ag66
ag19
ag70
ag20
ag71
ag21
ag73
ag142
ag23
ag74
ag164
ag24
ag76
ag25
ag26
ag27
ag77
ag28
ag29
ag79
ag118
ag80
ag81
ag82
ag146
ag84
ag85
ag87
ag90
ag92
ag93
ag129
ag30
ag31
ag96
ag32
ag97
ag33
ag98
ag34
ag99
ag100
ag150
ag102
ag106
ag107
ag155
aS'EDINB010_2'
p349
atbsg35
NstRp350
ag2
(g3
(dp351
g5
g6
(g7
(I0
tS'b'
tRp352
(I1
(I97
tg10
I00
(lp353
g40
ag43
ag44
ag45
ag46
ag47
ag48
ag12
ag50
ag51
ag197
ag139
ag13
ag52
ag53
ag54
aS'ABILH023'
p354
ag140
ag56
ag57
ag14
ag206
ag15
ag16
ag17
ag141
ag58
ag59
ag60
ag117
ag18
ag61
ag62
ag64
ag65
ag66
ag19
ag67
ag68
ag70
ag20
ag71
ag21
ag22
ag72
ag73
ag23
ag143
ag222
ag74
ag164
ag24
ag75
ag76
ag25
ag26
ag190
ag144
ag27
ag199
ag77
ag28
ag78
ag224
ag29
ag79
ag80
ag127
ag146
ag83
ag84
ag85
ag86
ag89
ag90
ag91
ag92
ag93
ag129
ag30
ag95
ag31
ag96
ag32
ag97
ag33
ag98
ag34
ag100
ag101
ag102
ag153
ag105
ag166
ag107
ag226
ag227
atbsg35
NstRp355
ag2
(g3
(dp356
g5
g6
(g7
(I0
tS'b'
tRp357
(I1
(I39
tg10
I00
(lp358
g12
ag13
ag57
ag14
ag15
ag16
ag17
ag58
ag59
ag18
ag62
ag65
ag19
ag67
ag70
ag21
ag23
ag24
ag76
ag25
ag26
ag27
ag77
ag28
ag29
ag80
ag84
ag90
ag92
ag129
ag30
ag95
ag96
ag32
ag97
ag98
ag154
ag106
ag107
atbsg35
NstRp359
ag2
(g3
(dp360
g5
g6
(g7
(I0
tS'b'
tRp361
(I1
(I31
tg10
I00
(lp362
g12
ag13
ag55
ag14
ag15
ag16
ag17
ag59
ag18
ag19
ag68
ag20
ag181
ag21
ag23
ag24
ag25
ag26
ag27
ag28
ag29
ag118
ag80
ag127
ag92
ag30
ag32
ag33
ag98
ag34
ag166
atbsg35
NstRp363
ag2
(g3
(dp364
g5
g6
(g7
(I0
tS'b'
tRp365
(I1
(I4
tg10
I00
(lp366
g15
ag16
ag17
ag18
atbsg35
NstRp367
ag2
(g3
(dp368
g5
g6
(g7
(I0
tS'b'
tRp369
(I1
(I4
tg10
I00
(lp370
g15
ag16
ag17
ag18
atbsg35
NstRp371
ag2
(g3
(dp372
g5
g6
(g7
(I0
tS'b'
tRp373
(I1
(I51
tg10
I00
(lp374
g43
ag46
ag12
ag13
ag53
ag55
ag57
ag14
ag15
ag16
ag17
ag58
ag59
ag117
ag18
ag62
ag65
ag19
ag68
ag70
ag20
ag71
ag21
ag23
ag74
ag164
ag24
ag75
ag25
ag26
ag27
ag77
ag28
ag29
ag118
ag127
ag84
ag85
ag90
ag129
ag30
ag31
ag96
ag32
ag98
ag34
ag100
ag102
ag105
ag166
ag155
atbsg35
NstRp375
ag2
(g3
(dp376
g5
g6
(g7
(I0
tS'b'
tRp377
(I1
(I49
tg10
I00
(lp378
g43
ag47
ag12
ag50
ag13
ag140
ag57
ag14
ag15
ag16
ag17
ag58
ag117
ag18
ag62
ag64
ag65
ag19
ag68
ag70
ag20
ag21
ag22
ag73
ag142
ag23
ag24
ag76
ag25
ag26
ag27
ag77
ag28
ag29
ag118
ag84
ag85
ag86
ag90
ag92
ag30
ag96
ag32
ag97
ag148
ag98
ag101
ag102
ag107
atbsg35
NstRp379
ag2
(g3
(dp380
g5
g6
(g7
(I0
tS'b'
tRp381
(I1
(I6
tg10
I00
(lp382
g15
ag16
ag17
ag18
ag112
ag32
atbsg35
NstRp383
ag2
(g3
(dp384
g5
g6
(g7
(I0
tS'b'
tRp385
(I1
(I4
tg10
I00
(lp386
g15
ag16
ag17
ag18
atbsg35
NstRp387
ag2
(g3
(dp388
g5
g6
(g7
(I0
tS'b'
tRp389
(I1
(I5
tg10
I00
(lp390
g15
ag16
ag17
ag18
ag32
atbsg35
NstRp391
ag2
(g3
(dp392
g5
g6
(g7
(I0
tS'b'
tRp393
(I1
(I5
tg10
I00
(lp394
g15
ag16
ag17
ag18
ag32
atbsg35
NstRp395
ag2
(g3
(dp396
g5
g6
(g7
(I0
tS'b'
tRp397
(I1
(I57
tg10
I00
(lp398
g45
ag46
ag47
ag12
ag139
ag13
ag53
ag55
ag57
ag14
ag15
ag16
ag17
ag59
ag117
ag18
ag62
ag64
ag66
ag19
ag67
ag68
ag176
ag70
ag71
ag21
ag22
ag72
ag73
ag23
ag74
ag24
ag75
ag76
ag25
ag26
ag144
ag27
ag77
ag28
ag29
ag80
ag84
ag85
ag89
ag90
ag147
ag92
ag93
ag30
ag31
ag96
ag32
ag97
ag98
ag34
ag105
atbsg35
NstRp399
ag2
(g3
(dp400
g5
g6
(g7
(I0
tS'b'
tRp401
(I1
(I6
tg10
I00
(lp402
g15
ag16
ag17
ag18
ag112
ag32
atbsg35
NstRp403
ag2
(g3
(dp404
g5
g6
(g7
(I0
tS'b'
tRp405
(I1
(I95
tg10
I00
(lp406
g40
ag41
ag43
ag44
ag46
ag47
ag49
ag12
ag139
ag13
ag52
ag53
ag354
ag140
ag55
ag56
ag57
ag14
ag198
ag15
ag16
ag17
ag58
ag59
ag60
ag117
ag18
ag61
ag62
ag64
ag65
ag66
ag19
ag67
ag68
ag176
ag70
ag20
ag71
ag21
ag22
ag72
ag23
ag74
ag24
ag75
ag76
ag25
ag26
ag190
ag27
ag199
ag77
ag28
ag224
ag29
ag191
ag79
ag80
ag146
ag84
ag85
ag86
ag87
ag88
ag89
ag90
ag147
ag91
ag92
ag93
ag129
ag30
ag94
ag95
ag31
ag32
ag97
ag33
ag98
ag34
ag99
ag100
ag165
ag150
ag101
ag102
ag153
ag103
ag104
ag105
ag107
ag201
ag155
ag349
atbsg35
NstRp407
ag2
(g3
(dp408
g5
g6
(g7
(I0
tS'b'
tRp409
(I1
(I34
tg10
I00
(lp410
g12
ag13
ag57
ag14
ag15
ag16
ag17
ag58
ag59
ag18
ag62
ag65
ag19
ag68
ag176
ag20
ag21
ag23
ag74
ag24
ag25
ag26
ag77
ag28
ag29
ag80
ag90
ag91
ag129
ag30
ag32
ag33
ag34
ag165
atbsg35
NstRp411
ag2
(g3
(dp412
g5
g6
(g7
(I0
tS'b'
tRp413
(I1
(I36
tg10
I00
(lp414
g43
ag12
ag13
ag53
ag57
ag14
ag15
ag16
ag17
ag59
ag117
ag18
ag19
ag70
ag20
ag21
ag22
ag73
ag23
ag24
ag76
ag25
ag26
ag27
ag29
ag118
ag85
ag129
ag30
ag31
ag96
ag32
ag97
ag33
ag101
ag102
atbsg35
NstRp415
ag2
(g3
(dp416
g5
g6
(g7
(I0
tS'b'
tRp417
(I1
(I7
tg10
I00
(lp418
g55
ag15
ag16
ag17
ag18
ag112
ag32
atbsg35
NstRp419
ag2
(g3
(dp420
g5
g6
(g7
(I0
tS'b'
tRp421
(I1
(I5
tg10
I00
(lp422
g15
ag16
ag17
ag18
ag32
atbsg35
NstRp423
ag2
(g3
(dp424
g5
g6
(g7
(I0
tS'b'
tRp425
(I1
(I162
tg10
I00
(lp426
g40
ag41
ag42
ag43
ag216
ag44
ag45
ag46
ag47
ag48
ag49
ag12
ag50
ag51
ag196
ag197
ag139
ag13
ag217
ag52
ag53
ag54
ag354
ag218
ag219
aS'EDINBSUB1'
p427
aS'EDINBTOT'
p428
ag140
ag220
ag55
ag56
ag134
ag57
aS'FIM (007'
p429
ag14
ag206
ag198
ag15
ag16
ag252
ag17
ag141
ag58
ag59
ag221
ag60
aS'FIM (SUB1'
p430
aS'FIM (SUB2'
p431
ag117
ag207
ag18
ag112
ag171
ag61
ag62
ag63
ag64
ag65
ag66
ag19
ag67
ag68
ag176
ag69
ag70
ag20
ag71
ag181
ag324
ag21
ag22
ag72
ag73
ag142
ag23
ag143
ag222
ag74
ag223
ag164
ag24
ag75
aS'LIFE TOT'
p432
ag76
ag25
ag26
ag190
ag144
ag27
aS'MFIS 007'
p433
ag199
ag77
ag28
ag145
ag78
ag224
ag29
ag191
ag79
ag118
ag200
ag80
ag127
ag81
ag253
ag128
aS'MFIS TOT'
p434
ag225
ag82
ag146
ag83
ag84
ag85
ag86
ag87
ag88
ag89
ag90
aS'MOCA SUB1'
p435
aS'MOCA TOT'
p436
ag147
ag91
ag92
ag93
ag129
ag30
ag94
ag95
aS'OAB-QTOT'
p437
ag31
ag96
ag32
ag97
ag148
ag33
ag98
ag34
aS'EDINB002_1'
p438
ag149
ag99
ag303
ag100
ag165
ag150
ag294
ag101
ag151
ag152
ag102
aS'EDINB006_1'
p439
ag153
ag154
ag103
ag104
ag105
ag166
ag107
ag201
ag226
ag155
ag227
ag349
atbsg35
NstRp440
ag2
(g3
(dp441
g5
g6
(g7
(I0
tS'b'
tRp442
(I1
(I42
tg10
I00
(lp443
g43
ag46
ag12
ag13
ag57
ag14
ag15
ag16
ag17
ag59
ag117
ag18
ag62
ag65
ag19
ag67
ag70
ag71
ag23
ag24
ag75
ag76
ag25
ag26
ag27
ag77
ag29
ag118
ag200
ag80
ag128
ag84
ag90
ag93
ag30
ag96
ag32
ag97
ag98
ag34
ag153
ag166
atbsg35
NstRp444
ag2
(g3
(dp445
g5
g6
(g7
(I0
tS'b'
tRp446
(I1
(I12
tg10
I00
(lp447
g55
ag134
ag206
ag198
ag15
ag16
ag17
ag207
ag18
ag112
ag171
ag32
atbsg35
NstRp448
ag2
(g3
(dp449
g5
g6
(g7
(I0
tS'b'
tRp450
(I1
(I88
tg10
I00
(lp451
g40
ag42
ag44
ag46
ag47
ag12
ag13
ag52
ag53
ag140
ag55
ag56
ag57
ag14
ag198
ag15
ag16
ag17
ag141
ag58
ag59
ag60
ag117
ag18
ag61
ag62
ag63
ag64
ag65
ag19
ag68
ag176
ag69
ag70
ag20
ag71
ag21
ag22
ag72
ag73
ag142
ag23
ag143
ag223
ag164
ag24
ag75
ag76
ag25
ag26
ag27
ag199
ag77
ag28
ag78
ag224
ag29
ag191
ag80
ag81
ag82
ag83
ag84
ag85
ag86
ag89
ag90
ag92
ag93
ag129
ag95
ag96
ag32
ag97
ag33
ag98
ag34
ag149
ag99
ag100
ag101
ag152
ag102
ag154
ag103
ag107
ag155
ag227
atbsg35
NstRp452
ag2
(g3
(dp453
g5
g6
(g7
(I0
tS'b'
tRp454
(I1
(I54
tg10
I00
(lp455
g47
ag12
ag13
ag53
ag57
ag14
ag15
ag16
ag252
ag17
ag59
ag117
ag18
ag62
ag65
ag66
ag19
ag68
ag70
ag20
ag21
ag73
ag23
ag222
ag74
ag24
ag75
ag25
ag26
ag190
ag27
ag77
ag28
ag145
ag29
ag191
ag80
ag127
ag128
ag84
ag85
ag89
ag90
ag92
ag129
ag30
ag31
ag96
ag32
ag97
ag148
ag98
ag34
ag154
atbsg35
NstRp456
ag2
(g3
(dp457
g5
g6
(g7
(I0
tS'b'
tRp458
(I1
(I42
tg10
I00
(lp459
g12
ag51
ag13
ag55
ag14
ag15
ag16
ag252
ag17
ag59
ag18
ag19
ag68
ag70
ag71
ag181
ag21
ag23
ag74
ag24
ag432
ag76
ag25
ag26
ag27
ag28
ag29
ag118
ag80
ag127
ag128
ag225
ag84
ag147
ag30
ag32
ag97
ag148
ag33
ag98
ag34
ag102
atbsg35
NstRp460
ag2
(g3
(dp461
g5
g6
(g7
(I0
tS'b'
tRp462
(I1
(I13
tg10
I00
(lp463
g13
ag55
ag134
ag206
ag198
ag15
ag16
ag17
ag207
ag18
ag112
ag171
ag32
atbsg35
NstRp464
ag2
(g3
(dp465
g5
g6
(g7
(I0
tS'b'
tRp466
(I1
(I55
tg10
I00
(lp467
g43
ag45
ag46
ag47
ag12
ag51
ag13
ag53
ag140
ag55
ag57
ag14
ag15
ag16
ag17
ag58
ag60
ag117
ag18
ag62
ag64
ag65
ag19
ag70
ag20
ag21
ag22
ag72
ag73
ag23
ag164
ag24
ag25
ag26
ag77
ag28
ag29
ag118
ag200
ag80
ag84
ag90
ag91
ag93
ag30
ag96
ag32
ag97
ag98
ag34
ag99
ag101
ag102
ag153
ag155
atbsg35
NstRp468
ag2
(g3
(dp469
g5
g6
(g7
(I0
tS'b'
tRp470
(I1
(I5
tg10
I00
(lp471
g15
ag16
ag17
ag18
ag32
atbsg35
NstRp472
ag2
(g3
(dp473
g5
g6
(g7
(I0
tS'b'
tRp474
(I1
(I5
tg10
I00
(lp475
g15
ag16
ag17
ag18
ag32
atbsg35
NstRp476
ag2
(g3
(dp477
g5
g6
(g7
(I0
tS'b'
tRp478
(I1
(I64
tg10
I00
(lp479
g40
ag43
ag45
ag46
ag47
ag12
ag51
ag139
ag13
ag53
ag140
ag56
ag57
ag14
ag15
ag16
ag58
ag59
ag18
ag62
ag64
ag65
ag66
ag19
ag67
ag68
ag69
ag70
ag21
ag22
ag73
ag23
ag74
ag223
ag24
ag76
ag25
ag26
ag27
ag199
ag77
ag28
ag29
ag80
ag127
ag84
ag85
ag87
ag89
ag90
ag91
ag92
ag93
ag30
ag95
ag96
ag32
ag97
ag33
ag34
ag100
ag152
ag102
ag155
atbsg35
NstRp480
ag2
(g3
(dp481
g5
g6
(g7
(I0
tS'b'
tRp482
(I1
(I6
tg10
I00
(lp483
g15
ag16
ag17
ag18
ag112
ag32
atbsg35
NstRp484
ag2
(g3
(dp485
g5
g6
(g7
(I0
tS'b'
tRp486
(I1
(I4
tg10
I00
(lp487
g15
ag16
ag17
ag18
atbsg35
NstRp488
ag2
(g3
(dp489
g5
g6
(g7
(I0
tS'b'
tRp490
(I1
(I4
tg10
I00
(lp491
g15
ag16
ag17
ag18
atbsg35
NstRp492
ag2
(g3
(dp493
g5
g6
(g7
(I0
tS'b'
tRp494
(I1
(I77
tg10
I00
(lp495
g40
ag43
ag46
ag48
ag12
ag13
ag217
ag53
ag140
ag55
ag56
ag57
ag14
ag198
ag15
ag16
ag17
ag58
ag59
ag60
ag117
ag18
ag62
ag63
ag65
ag19
ag67
ag70
ag20
ag21
ag22
ag73
ag23
ag223
ag164
ag24
ag75
ag76
ag25
ag26
ag27
ag199
ag77
ag28
ag29
ag118
ag80
ag81
ag83
ag84
ag85
ag87
ag88
ag89
ag90
ag91
ag92
ag129
ag30
ag95
ag31
ag96
ag32
ag97
ag33
ag98
ag34
ag99
ag100
ag165
ag150
ag101
ag439
ag153
ag166
ag106
ag155
atbsg35
NstRp496
ag2
(g3
(dp497
g5
g6
(g7
(I0
tS'b'
tRp498
(I1
(I5
tg10
I00
(lp499
g15
ag16
ag17
ag18
ag32
atbsg35
NstRp500
ag2
(g3
(dp501
g5
g6
(g7
(I0
tS'b'
tRp502
(I1
(I7
tg10
I00
(lp503
g55
ag15
ag16
ag17
ag18
ag112
ag32
atbsg35
NstRp504
ag2
(g3
(dp505
g5
g6
(g7
(I0
tS'b'
tRp506
(I1
(I69
tg10
I00
(lp507
g40
ag41
ag44
ag45
ag46
ag47
ag12
ag50
ag13
ag53
ag55
ag56
ag57
ag14
ag15
ag16
ag17
ag58
ag59
ag60
ag117
ag18
ag61
ag62
ag64
ag65
ag66
ag19
ag70
ag20
ag71
ag21
ag22
ag72
ag23
ag143
ag164
ag24
ag75
ag25
ag26
ag27
ag199
ag77
ag28
ag29
ag118
ag200
ag80
ag84
ag85
ag89
ag91
ag129
ag30
ag95
ag31
ag96
ag32
ag97
ag148
ag98
ag34
ag99
ag100
ag101
ag102
ag103
ag166
atbsg35
NstRp508
ag2
(g3
(dp509
g5
g6
(g7
(I0
tS'b'
tRp510
(I1
(I45
tg10
I00
(lp511
g43
ag45
ag46
ag12
ag51
ag13
ag55
ag57
ag14
ag15
ag16
ag17
ag59
ag18
ag62
ag64
ag65
ag19
ag68
ag70
ag21
ag22
ag72
ag73
ag23
ag164
ag75
ag76
ag25
ag26
ag27
ag77
ag28
ag29
ag80
ag85
ag89
ag90
ag91
ag30
ag96
ag32
ag97
ag98
ag34
atbsg35
NstRp512
ag2
(g3
(dp513
g5
g6
(g7
(I0
tS'b'
tRp514
(I1
(I5
tg10
I00
(lp515
g15
ag16
ag17
ag18
ag32
atbsg35
NstRp516
ag2
(g3
(dp517
g5
g6
(g7
(I0
tS'b'
tRp518
(I1
(I11
tg10
I00
(lp519
g55
ag134
ag206
ag198
ag15
ag16
ag17
ag18
ag112
ag171
ag32
atbsg35
NstRp520
ag2
(g3
(dp521
g5
g6
(g7
(I0
tS'b'
tRp522
(I1
(I7
tg10
I00
(lp523
g55
ag15
ag16
ag17
ag18
ag112
ag32
atbsg35
NstRp524
ag2
(g3
(dp525
g5
g6
(g7
(I0
tS'b'
tRp526
(I1
(I12
tg10
I00
(lp527
g55
ag134
ag206
ag198
ag15
ag16
ag17
ag207
ag18
ag112
ag171
ag32
atbsg35
NstRp528
ag2
(g3
(dp529
g5
g6
(g7
(I0
tS'b'
tRp530
(I1
(I60
tg10
I00
(lp531
g40
ag42
ag43
ag45
ag46
ag12
ag50
ag51
ag139
ag13
ag53
ag140
ag57
ag14
ag15
ag16
ag17
ag58
ag59
ag60
ag117
ag18
ag62
ag65
ag66
ag19
ag70
ag71
ag21
ag22
ag73
ag23
ag143
ag74
ag24
ag75
ag76
ag25
ag26
ag27
ag28
ag29
ag80
ag84
ag85
ag87
ag89
ag90
ag92
ag93
ag129
ag30
ag32
ag97
ag98
ag34
ag303
ag100
ag102
ag155
atbsg35
NstRp532
ag2
(g3
(dp533
g5
g6
(g7
(I0
tS'b'
tRp534
(I1
(I35
tg10
I00
(lp535
g12
ag13
ag14
ag15
ag16
ag17
ag59
ag117
ag18
ag62
ag65
ag19
ag67
ag73
ag23
ag24
ag25
ag26
ag27
ag28
ag29
ag118
ag80
ag127
ag90
ag92
ag129
ag30
ag96
ag32
ag97
ag33
ag98
ag34
ag166
atbsg35
NstRp536
ag2
(g3
(dp537
g5
g6
(g7
(I0
tS'b'
tRp538
(I1
(I5
tg10
I00
(lp539
g15
ag16
ag17
ag18
ag32
atbsg35
NstRp540
ag2
(g3
(dp541
g5
g6
(g7
(I0
tS'b'
tRp542
(I1
(I4
tg10
I00
(lp543
g15
ag16
ag17
ag18
atbsg35
NstRp544
ag2
(g3
(dp545
g5
g6
(g7
(I0
tS'b'
tRp546
(I1
(I4
tg10
I00
(lp547
g15
ag16
ag17
ag18
atbsg35
NstRp548
ag2
(g3
(dp549
g5
g6
(g7
(I0
tS'b'
tRp550
(I1
(I123
tg10
I00
(lp551
g40
ag42
ag43
ag216
ag44
ag45
ag46
ag47
ag48
ag49
ag12
ag50
ag51
ag196
ag197
ag139
ag13
ag217
ag52
ag53
ag54
ag354
ag140
ag220
ag55
ag56
ag134
ag57
ag14
ag206
ag198
ag15
ag16
ag17
ag141
ag58
ag59
ag60
ag117
ag18
ag61
ag62
ag64
ag65
ag66
ag19
ag67
ag68
ag176
ag70
ag20
ag71
ag21
ag22
ag72
ag73
ag142
ag23
ag143
ag222
ag74
ag223
ag24
ag75
ag76
ag25
ag26
ag190
ag144
ag27
ag433
ag199
ag77
ag28
ag145
ag78
ag224
ag29
ag191
ag118
ag80
ag127
ag81
ag82
ag83
ag84
ag85
ag86
ag87
ag88
ag89
ag90
ag147
ag91
ag92
ag93
ag129
ag30
ag94
ag95
ag31
ag96
ag32
ag97
ag33
ag98
ag34
ag149
ag303
ag100
ag165
ag150
ag101
ag151
ag102
ag153
ag154
ag104
ag105
ag166
ag107
ag226
ag155
atbsg35
NstRp552
ag2
(g3
(dp553
g5
g6
(g7
(I0
tS'b'
tRp554
(I1
(I43
tg10
I00
(lp555
g46
ag12
ag13
ag354
ag140
ag57
ag14
ag15
ag16
ag17
ag59
ag18
ag62
ag64
ag19
ag70
ag20
ag181
ag21
ag72
ag73
ag23
ag164
ag24
ag76
ag25
ag26
ag27
ag77
ag29
ag118
ag84
ag90
ag147
ag30
ag96
ag32
ag148
ag98
ag34
ag99
ag166
ag106
atbsg35
NstRp556
ag2
(g3
(dp557
g5
g6
(g7
(I0
tS'b'
tRp558
(I1
(I4
tg10
I00
(lp559
g15
ag16
ag17
ag18
atbsg35
NstRp560
ag2
(g3
(dp561
g5
g6
(g7
(I0
tS'b'
tRp562
(I1
(I4
tg10
I00
(lp563
g15
ag16
ag17
ag18
atbsg35
NstRp564
ag2
(g3
(dp565
g5
g6
(g7
(I0
tS'b'
tRp566
(I1
(I39
tg10
I00
(lp567
g46
ag12
ag13
ag57
ag14
ag15
ag16
ag252
ag17
ag58
ag59
ag18
ag62
ag64
ag19
ag67
ag20
ag21
ag73
ag23
ag74
ag24
ag75
ag76
ag25
ag26
ag27
ag29
ag118
ag127
ag84
ag92
ag129
ag30
ag32
ag33
ag98
ag105
ag166
atbsg35
NstRp568
ag2
(g3
(dp569
g5
g6
(g7
(I0
tS'b'
tRp570
(I1
(I4
tg10
I00
(lp571
g15
ag16
ag17
ag18
atbsg35
NstRp572
a.