(lp1
cpandas.core.indexes.base
_new_Index
p2
(cpandas.core.indexes.base
Index
p3
(dp4
S'data'
p5
cnumpy.core.multiarray
_reconstruct
p6
(cnumpy
ndarray
p7
(I0
tS'b'
tRp8
(I1
(I124
tcnumpy
dtype
p9
(S'O8'
I0
I1
tRp10
(I3
S'|'
NNNI-1
I-1
I63
tbI00
(lp11
S'ABILH001'
p12
aS'ABILH002'
p13
aS'ABILH005'
p14
aS'ABILH006'
p15
aS'ABILH007'
p16
aS'ABILH008'
p17
aS'ABILH009'
p18
aS'ABILH010'
p19
aS'ABILH012'
p20
aS'ABILH013'
p21
aS'ABILH016'
p22
aS'ABILH017'
p23
aS'ABILH018'
p24
aS'ABILH019'
p25
aS'ABILH020'
p26
aS'ABILH021'
p27
aS'ABILH022'
p28
aS'ABILH023'
p29
aS'ABILHSUB1'
p30
aS'ABILHTOT'
p31
aS'FIM (001'
p32
aS'FIM (002'
p33
aS'FIM (003'
p34
aS'FIM (004'
p35
aS'FIM (005'
p36
aS'FIM (006'
p37
aS'FIM (008'
p38
aS'FIM (010'
p39
aS'FIM (011'
p40
aS'FIM (012'
p41
aS'FIM (013'
p42
aS'FIM (014'
p43
aS'FIM (015'
p44
aS'FIM (016'
p45
aS'FIM (017'
p46
aS'FIM (019'
p47
aS'FIM (SUB1'
p48
aS'FIM (SUB3'
p49
aS'FIM (SUB4'
p50
aS'FIM (SUB5'
p51
aS'FIM (SUB6'
p52
aS'FIM (TOT'
p53
aS'HADS 001'
p54
aS'HADS 002'
p55
aS'HADS 004'
p56
aS'HADS 005'
p57
aS'HADS 006'
p58
aS'HADS 007'
p59
aS'HADS 010'
p60
aS'HADS 012'
p61
aS'HADS 013'
p62
aS'HADS 014'
p63
aS'HADS SUB1'
p64
aS'HADS SUB2'
p65
aS'HEIG'
p66
aS'ISTRU'
p67
aS'LIFE 001'
p68
aS'LIFE 002'
p69
aS'LIFE 003'
p70
aS'LIFE 004'
p71
aS'LIFE 005'
p72
aS'LIFE 007'
p73
aS'LIFE 008'
p74
aS'LIFE 009'
p75
aS'LIFE 010'
p76
aS'LIFE 011'
p77
aS'LIFE TOT'
p78
aS'MFIS 001'
p79
aS'MFIS 002'
p80
aS'MFIS 003'
p81
aS'MFIS 004'
p82
aS'MFIS 006'
p83
aS'MFIS 007'
p84
aS'MFIS 008'
p85
aS'MFIS 009'
p86
aS'MFIS 010'
p87
aS'MFIS 012'
p88
aS'MFIS 013'
p89
aS'MFIS 014'
p90
aS'MFIS 015'
p91
aS'MFIS 017'
p92
aS'MFIS 019'
p93
aS'MFIS 020'
p94
aS'MFIS 021'
p95
aS'MFIS SUB1'
p96
aS'MFIS SUB2'
p97
aS'MOCA 001'
p98
aS'MOCA 002'
p99
aS'MOCA 004'
p100
aS'MOCA 005'
p101
aS'MOCA 006'
p102
aS'MOCA 007'
p103
aS'MOCA 008'
p104
aS'MOCA 009'
p105
aS'MOCA 010'
p106
aS'MOCA 011'
p107
aS'OAB-Q001'
p108
aS'OAB-Q002'
p109
aS'OAB-Q003'
p110
aS'OAB-Q004'
p111
aS'OAB-Q005'
p112
aS'OAB-Q006'
p113
aS'OAB-Q007'
p114
aS'OAB-Q008'
p115
aS'PASATTOT'
p116
aS'RELAPS'
p117
aS'SDMT TOT'
p118
aS'WEIG'
p119
aS'EDINB001_0'
p120
aS'EDINB001_1'
p121
aS'EDINB001_2'
p122
aS'EDINB002_0'
p123
aS'EDINB002_2'
p124
aS'EDINB003_1'
p125
aS'EDINB003_2'
p126
aS'EDINB005_1'
p127
aS'EDINB005_2'
p128
aS'EDINB006_0'
p129
aS'EDINB006_1'
p130
aS'EDINB006_2'
p131
aS'EDINB007_0'
p132
aS'EDINB009_0'
p133
aS'EDINB009_2'
p134
aS'EDINB010_0'
p135
atbsS'name'
p136
NstRp137
ag2
(g3
(dp138
g5
g6
(g7
(I0
tS'b'
tRp139
(I1
(I42
tg10
I00
(lp140
g20
ag23
ag24
ag26
ag27
ag29
ag33
ag34
ag35
ag37
aS'FIM (009'
p141
ag39
ag40
ag41
ag42
ag44
ag45
ag46
ag49
ag51
ag52
ag55
ag57
ag59
ag62
ag65
aS'HADS TOT'
p142
ag68
ag75
ag78
ag79
ag80
ag81
ag84
ag87
ag90
ag94
ag109
ag118
ag122
ag124
ag126
atbsg136
NstRp143
ag2
(g3
(dp144
g5
g6
(g7
(I0
tS'b'
tRp145
(I1
(I124
tg10
I00
(lp146
g12
aS'ABILH003'
p147
ag15
ag16
ag17
ag18
ag19
aS'ABILH011'
p148
ag20
ag21
aS'ABILH014'
p149
aS'ABILH015'
p150
ag22
ag23
ag24
ag25
ag26
ag27
ag28
ag30
ag31
ag32
ag33
ag34
ag35
ag36
ag37
aS'FIM (007'
p151
ag38
ag141
ag39
ag40
ag41
ag43
ag44
ag45
ag46
aS'FIM (018'
p152
ag47
aS'FIM (SUB2'
p153
ag49
ag51
ag52
ag53
ag54
ag55
aS'HADS 003'
p154
ag56
ag57
ag59
aS'HADS 008'
p155
aS'HADS 009'
p156
ag61
ag62
ag63
ag64
ag65
ag142
ag66
ag67
ag68
ag70
ag71
ag72
ag73
ag75
ag76
ag77
ag80
ag81
aS'MFIS 005'
p157
ag84
ag85
ag86
ag87
ag88
ag90
aS'MFIS 016'
p158
ag92
aS'MFIS 018'
p159
ag93
ag94
ag95
ag96
ag97
aS'MFIS SUB3'
p160
ag98
ag99
ag100
ag101
ag103
ag104
ag105
ag106
ag107
ag108
ag109
ag110
ag111
ag112
ag114
ag115
ag117
ag118
ag119
ag120
ag121
ag122
ag123
ag124
ag125
ag126
aS'EDINB004_0'
p161
aS'EDINB004_1'
p162
aS'EDINB004_2'
p163
aS'EDINB005_0'
p164
ag128
ag130
ag131
ag132
aS'EDINB007_1'
p165
aS'EDINB008_0'
p166
aS'EDINB009_1'
p167
ag134
atbsg136
NstRp168
ag2
(g3
(dp169
g5
g6
(g7
(I0
tS'b'
tRp170
(I1
(I124
tg10
I00
(lp171
g12
ag13
ag147
aS'ABILH004'
p172
ag16
ag17
ag18
ag19
ag20
ag21
ag24
ag27
ag30
ag31
ag32
ag33
ag34
ag36
ag37
ag151
ag38
ag141
ag39
ag40
ag41
ag42
ag43
ag44
ag45
ag46
ag47
ag153
ag49
ag51
ag52
ag53
ag54
ag55
ag56
ag57
ag59
ag155
ag156
aS'HADS 011'
p173
ag61
ag62
ag63
ag64
ag65
ag66
ag67
ag68
ag69
ag71
ag72
aS'LIFE 006'
p174
ag73
ag74
ag76
ag77
ag78
ag79
ag80
ag81
ag82
ag157
ag83
ag84
ag85
ag86
ag87
aS'MFIS 011'
p175
ag88
ag89
ag90
ag91
ag158
ag93
ag94
ag95
ag96
ag97
ag98
ag99
ag100
ag101
ag102
ag106
ag107
aS'MOCA SUB1'
p176
aS'MOCA TOT'
p177
ag109
ag110
ag111
ag112
ag113
ag114
ag115
aS'OAB-QTOT'
p178
ag116
ag117
ag118
ag119
ag120
ag121
ag122
ag123
aS'EDINB003_0'
p179
ag125
ag126
ag161
ag162
ag163
ag164
ag129
ag130
ag131
ag132
ag165
aS'EDINB008_1'
p180
aS'EDINB008_2'
p181
ag133
aS'EDINB010_1'
p182
aS'EDINB010_2'
p183
atbsg136
NstRp184
ag2
(g3
(dp185
g5
g6
(g7
(I0
tS'b'
tRp186
(I1
(I165
tg10
I00
(lp187
g12
ag13
ag147
ag172
ag14
ag15
ag16
ag17
ag18
ag19
ag148
ag20
ag21
ag149
ag150
ag22
ag23
ag24
ag25
ag26
ag27
ag28
ag29
ag30
ag31
aS'EDINBSUB1'
p188
aS'EDINBTOT'
p189
ag32
ag33
ag34
ag35
ag36
ag37
ag151
ag38
ag141
ag39
ag40
ag41
ag42
ag43
ag44
ag45
ag46
ag152
ag47
ag48
ag153
ag49
ag50
ag51
ag52
ag53
ag54
ag55
ag154
ag56
ag57
ag58
ag59
ag155
ag156
ag60
ag173
ag61
ag62
ag63
ag64
ag65
ag142
ag66
ag67
ag68
ag69
ag70
ag71
ag72
ag174
ag73
ag74
ag75
ag76
ag77
ag78
ag79
ag80
ag81
ag82
ag157
ag83
ag84
ag85
ag86
ag87
ag175
ag88
ag89
ag90
ag91
ag158
ag92
ag159
ag93
ag94
ag95
ag96
ag97
ag160
aS'MFIS TOT'
p190
ag98
ag99
aS'MOCA 003'
p191
ag100
ag101
ag102
ag103
ag104
ag105
ag106
ag107
ag176
ag177
ag108
ag109
ag110
ag111
ag112
ag113
ag114
ag115
ag178
ag116
ag117
ag118
ag119
ag120
ag121
ag122
ag123
aS'EDINB002_1'
p192
ag124
ag179
ag125
ag126
ag161
ag162
ag163
ag164
ag127
ag128
ag129
ag130
ag131
ag132
ag165
aS'EDINB007_2'
p193
ag166
ag180
ag181
ag133
ag167
ag134
ag135
ag182
ag183
atbsg136
NstRp194
ag2
(g3
(dp195
g5
g6
(g7
(I0
tS'b'
tRp196
(I1
(I42
tg10
I00
(lp197
g16
ag24
ag27
ag30
ag31
ag33
ag34
ag35
ag37
ag141
ag39
ag40
ag41
ag45
ag51
ag52
ag55
ag56
ag57
ag58
ag59
ag155
ag60
ag61
ag62
ag63
ag64
ag65
ag157
ag175
ag88
ag91
ag158
ag159
ag96
ag97
ag160
ag190
ag112
ag114
ag118
ag122
atbsg136
NstRp198
ag2
(g3
(dp199
g5
g6
(g7
(I0
tS'b'
tRp200
(I1
(I42
tg10
I00
(lp201
g12
ag18
ag20
ag24
ag34
ag38
ag39
ag40
ag41
ag42
ag43
ag46
ag47
ag51
ag52
ag53
ag55
ag59
ag156
ag63
ag64
ag66
ag71
ag76
ag80
ag81
ag83
ag86
ag90
ag93
ag98
ag107
ag109
ag111
ag112
ag116
ag118
ag121
ag122
ag123
ag163
ag180
atbsg136
NstRp202
ag2
(g3
(dp203
g5
g6
(g7
(I0
tS'b'
tRp204
(I1
(I124
tg10
I00
(lp205
g12
ag13
ag147
ag15
ag16
ag17
ag18
ag19
ag148
ag20
ag21
ag149
ag150
ag22
ag23
ag24
ag25
ag26
ag27
ag29
ag30
ag31
ag32
ag33
ag34
ag35
ag37
ag38
ag141
ag39
ag40
ag41
ag42
ag43
ag44
ag45
ag46
ag152
ag47
ag49
ag50
ag51
ag52
ag53
ag54
ag55
ag154
ag57
ag58
ag59
ag156
ag61
ag62
ag63
ag66
ag67
ag68
ag69
ag70
ag71
ag72
ag174
ag73
ag74
ag76
ag77
ag78
ag79
ag80
ag81
ag83
ag84
ag85
ag86
ag87
ag88
ag89
ag90
ag158
ag159
ag93
ag94
ag96
ag160
ag98
ag100
ag101
ag102
ag103
ag104
ag105
ag106
ag107
ag109
ag111
ag112
ag113
ag114
ag117
ag118
ag119
ag120
ag121
ag122
ag123
ag124
ag125
ag126
ag161
ag162
ag163
ag164
ag127
ag128
ag129
ag130
ag131
ag165
ag193
ag166
ag133
ag134
ag135
ag182
atbsg136
NstRp206
ag2
(g3
(dp207
g5
g6
(g7
(I0
tS'b'
tRp208
(I1
(I165
tg10
I00
(lp209
g12
ag13
ag147
ag172
ag14
ag15
ag16
ag17
ag18
ag19
ag148
ag20
ag21
ag149
ag150
ag22
ag23
ag24
ag25
ag26
ag27
ag28
ag29
ag30
ag31
ag188
ag189
ag32
ag33
ag34
ag35
ag36
ag37
ag151
ag38
ag141
ag39
ag40
ag41
ag42
ag43
ag44
ag45
ag46
ag152
ag47
ag48
ag153
ag49
ag50
ag51
ag52
ag53
ag54
ag55
ag154
ag56
ag57
ag58
ag59
ag155
ag156
ag60
ag173
ag61
ag62
ag63
ag64
ag65
ag142
ag66
ag67
ag68
ag69
ag70
ag71
ag72
ag174
ag73
ag74
ag75
ag76
ag77
ag78
ag79
ag80
ag81
ag82
ag157
ag83
ag84
ag85
ag86
ag87
ag175
ag88
ag89
ag90
ag91
ag158
ag92
ag159
ag93
ag94
ag95
ag96
ag97
ag160
ag190
ag98
ag99
ag191
ag100
ag101
ag102
ag103
ag104
ag105
ag106
ag107
ag176
ag177
ag108
ag109
ag110
ag111
ag112
ag113
ag114
ag115
ag178
ag116
ag117
ag118
ag119
ag120
ag121
ag122
ag123
ag192
ag124
ag179
ag125
ag126
ag161
ag162
ag163
ag164
ag127
ag128
ag129
ag130
ag131
ag132
ag165
ag193
ag166
ag180
ag181
ag133
ag167
ag134
ag135
ag182
ag183
atbsg136
NstRp210
ag2
(g3
(dp211
g5
g6
(g7
(I0
tS'b'
tRp212
(I1
(I124
tg10
I00
(lp213
g13
ag15
ag16
ag17
ag18
ag19
ag148
ag20
ag21
ag23
ag24
ag25
ag26
ag27
ag28
ag29
ag30
ag31
ag32
ag33
ag34
ag35
ag36
ag37
ag151
ag38
ag141
ag39
ag40
ag41
ag42
ag43
ag45
ag46
ag47
ag153
ag49
ag51
ag52
ag53
ag54
ag55
ag154
ag56
ag57
ag58
ag59
ag60
ag61
ag62
ag63
ag64
ag142
ag66
ag67
ag69
ag70
ag71
ag72
ag174
ag74
ag75
ag76
ag77
ag78
ag79
ag80
ag81
ag82
ag157
ag83
ag84
ag85
ag86
ag87
ag88
ag89
ag90
ag92
ag159
ag93
ag96
ag97
ag160
ag98
ag191
ag100
ag101
ag102
ag103
ag104
ag105
ag106
ag107
ag108
ag109
ag110
ag111
ag112
ag113
ag114
ag115
ag116
ag117
ag118
ag119
ag121
ag122
ag123
ag192
ag179
ag125
ag126
ag162
ag163
ag164
ag129
ag130
ag131
ag132
ag193
ag166
ag135
ag182
atbsg136
NstRp214
ag2
(g3
(dp215
g5
g6
(g7
(I0
tS'b'
tRp216
(I1
(I42
tg10
I00
(lp217
g18
ag20
ag150
ag23
ag24
ag27
ag30
ag31
ag33
ag34
ag35
ag36
ag37
ag38
ag141
ag39
ag40
ag41
ag44
ag45
ag46
ag152
ag51
ag52
ag55
ag57
ag59
ag62
ag64
ag142
ag81
ag159
ag96
ag105
ag106
ag114
ag118
ag121
ag122
ag124
ag125
ag129
atbsg136
NstRp218
ag2
(g3
(dp219
g5
g6
(g7
(I0
tS'b'
tRp220
(I1
(I124
tg10
I00
(lp221
g12
ag14
ag16
ag18
ag19
ag148
ag20
ag21
ag149
ag150
ag23
ag24
ag25
ag26
ag27
ag29
ag30
ag31
ag32
ag34
ag35
ag36
ag37
ag151
ag38
ag141
ag39
ag40
ag41
ag42
ag43
ag44
ag45
ag46
ag47
ag48
ag153
ag49
ag51
ag52
ag53
ag55
ag154
ag57
ag58
ag59
ag155
ag156
ag61
ag62
ag63
ag64
ag65
ag142
ag66
ag68
ag69
ag70
ag71
ag72
ag73
ag74
ag76
ag77
ag78
ag79
ag80
ag81
ag157
ag83
ag84
ag85
ag86
ag87
ag88
ag89
ag90
ag91
ag92
ag93
ag96
ag97
ag98
ag99
ag191
ag101
ag102
ag103
ag104
ag105
ag106
ag107
ag109
ag110
ag111
ag112
ag113
ag114
ag116
ag117
ag118
ag119
ag120
ag121
ag122
ag123
ag124
ag125
ag126
ag161
ag162
ag163
ag164
ag127
ag128
ag129
ag130
ag131
ag132
ag193
ag166
ag180
ag181
ag133
atbsg136
NstRp222
ag2
(g3
(dp223
g5
g6
(g7
(I0
tS'b'
tRp224
(I1
(I42
tg10
I00
(lp225
g20
ag24
ag34
ag37
ag38
ag39
ag40
ag41
ag42
ag43
ag45
ag46
ag47
ag49
ag51
ag52
ag55
ag57
ag59
ag61
ag66
ag71
ag76
ag77
ag80
ag81
ag83
ag86
ag90
ag93
ag98
ag105
ag106
ag107
ag116
ag118
ag119
ag121
ag122
ag123
ag126
ag131
atbsg136
NstRp226
ag2
(g3
(dp227
g5
g6
(g7
(I0
tS'b'
tRp228
(I1
(I1
tg10
I00
(lp229
g41
atbsg136
NstRp230
ag2
(g3
(dp231
g5
g6
(g7
(I0
tS'b'
tRp232
(I1
(I42
tg10
I00
(lp233
g16
ag17
ag18
ag148
ag20
ag23
ag24
ag27
ag28
ag33
ag34
ag35
ag37
ag38
ag141
ag39
ag40
ag41
ag43
ag44
ag45
ag46
ag51
ag52
ag55
ag59
ag62
ag65
ag80
ag81
ag86
ag106
ag107
ag111
ag112
ag114
ag118
ag121
ag122
ag123
ag124
ag126
atbsg136
NstRp234
ag2
(g3
(dp235
g5
g6
(g7
(I0
tS'b'
tRp236
(I1
(I42
tg10
I00
(lp237
g172
ag16
ag18
ag20
ag23
ag24
ag26
ag27
ag33
ag34
ag35
ag37
ag38
ag39
ag40
ag41
ag43
ag45
ag46
ag51
ag52
ag55
ag59
ag60
ag62
ag72
ag76
ag79
ag80
ag81
ag86
ag90
ag93
ag101
ag106
ag107
ag110
ag111
ag118
ag122
ag126
ag182
atbsg136
NstRp238
ag2
(g3
(dp239
g5
g6
(g7
(I0
tS'b'
tRp240
(I1
(I42
tg10
I00
(lp241
g147
ag18
ag20
ag150
ag22
ag24
ag26
ag27
ag30
ag31
ag33
ag34
ag37
ag38
ag141
ag39
ag40
ag41
ag44
ag45
ag46
ag51
ag53
ag55
ag57
ag59
ag62
ag142
ag80
ag157
ag88
ag96
ag98
ag105
ag109
ag112
ag118
ag121
ag122
ag192
ag124
ag162
atbsg136
NstRp242
ag2
(g3
(dp243
g5
g6
(g7
(I0
tS'b'
tRp244
(I1
(I165
tg10
I00
(lp245
g12
ag13
ag147
ag172
ag14
ag15
ag16
ag17
ag18
ag19
ag148
ag20
ag21
ag149
ag150
ag22
ag23
ag24
ag25
ag26
ag27
ag28
ag29
ag30
ag31
ag188
ag189
ag32
ag33
ag34
ag35
ag36
ag37
ag151
ag38
ag141
ag39
ag40
ag41
ag42
ag43
ag44
ag45
ag46
ag152
ag47
ag48
ag153
ag49
ag50
ag51
ag52
ag53
ag54
ag55
ag154
ag56
ag57
ag58
ag59
ag155
ag156
ag60
ag173
ag61
ag62
ag63
ag64
ag65
ag142
ag66
ag67
ag68
ag69
ag70
ag71
ag72
ag174
ag73
ag74
ag75
ag76
ag77
ag78
ag79
ag80
ag81
ag82
ag157
ag83
ag84
ag85
ag86
ag87
ag175
ag88
ag89
ag90
ag91
ag158
ag92
ag159
ag93
ag94
ag95
ag96
ag97
ag160
ag190
ag98
ag99
ag191
ag100
ag101
ag102
ag103
ag104
ag105
ag106
ag107
ag176
ag177
ag108
ag109
ag110
ag111
ag112
ag113
ag114
ag115
ag178
ag116
ag117
ag118
ag119
ag120
ag121
ag122
ag123
ag192
ag124
ag179
ag125
ag126
ag161
ag162
ag163
ag164
ag127
ag128
ag129
ag130
ag131
ag132
ag165
ag193
ag166
ag180
ag181
ag133
ag167
ag134
ag135
ag182
ag183
atbsg136
NstRp246
ag2
(g3
(dp247
g5
g6
(g7
(I0
tS'b'
tRp248
(I1
(I42
tg10
I00
(lp249
g15
ag16
ag20
ag150
ag23
ag24
ag25
ag27
ag34
ag37
ag38
ag39
ag40
ag41
ag42
ag43
ag45
ag49
ag51
ag52
ag55
ag57
ag59
ag62
ag63
ag71
ag79
ag80
ag81
ag86
ag90
ag93
ag101
ag106
ag107
ag112
ag118
ag121
ag122
ag123
ag126
ag129
atbsg136
NstRp250
ag2
(g3
(dp251
g5
g6
(g7
(I0
tS'b'
tRp252
(I1
(I42
tg10
I00
(lp253
g16
ag148
ag20
ag24
ag26
ag27
ag33
ag34
ag35
ag36
ag37
ag38
ag141
ag39
ag40
ag41
ag42
ag43
ag44
ag45
ag46
ag47
ag51
ag52
ag55
ag59
ag62
ag63
ag71
ag77
ag80
ag81
ag86
ag88
ag93
ag105
ag112
ag118
ag121
ag123
ag162
ag131
atbsg136
NstRp254
ag2
(g3
(dp255
g5
g6
(g7
(I0
tS'b'
tRp256
(I1
(I83
tg10
I00
(lp257
g172
ag15
ag16
ag17
ag18
ag20
ag150
ag23
ag24
ag25
ag26
ag30
ag31
ag32
ag33
ag34
ag36
ag37
ag38
ag141
ag39
ag40
ag41
ag43
ag44
ag45
ag46
ag49
ag51
ag52
ag53
ag55
ag57
ag59
ag61
ag62
ag63
ag66
ag68
ag71
ag174
ag76
ag77
ag78
ag80
ag81
ag157
ag83
ag86
ag88
ag90
ag158
ag93
ag94
ag98
ag100
ag101
ag102
ag103
ag105
ag106
ag107
ag109
ag110
ag111
ag112
ag113
ag115
ag117
ag118
ag120
ag121
ag122
ag123
ag179
ag125
ag126
ag161
ag162
ag130
ag131
ag166
ag135
atbsg136
NstRp258
ag2
(g3
(dp259
g5
g6
(g7
(I0
tS'b'
tRp260
(I1
(I83
tg10
I00
(lp261
g172
ag15
ag16
ag18
ag20
ag150
ag22
ag24
ag25
ag26
ag27
ag30
ag31
ag34
ag36
ag37
ag38
ag141
ag39
ag40
ag41
ag42
ag43
ag44
ag45
ag46
ag49
ag51
ag52
ag53
ag54
ag55
ag154
ag56
ag57
ag59
ag156
ag61
ag62
ag63
ag64
ag66
ag71
ag72
ag73
ag74
ag76
ag77
ag78
ag80
ag81
ag83
ag85
ag86
ag87
ag89
ag90
ag92
ag93
ag98
ag100
ag101
ag102
ag103
ag105
ag106
ag107
ag109
ag111
ag112
ag113
ag116
ag117
ag118
ag119
ag121
ag122
ag123
ag126
ag164
ag131
ag132
ag182
atbsg136
NstRp262
ag2
(g3
(dp263
g5
g6
(g7
(I0
tS'b'
tRp264
(I1
(I42
tg10
I00
(lp265
g18
ag20
ag24
ag27
ag30
ag31
ag33
ag37
ag38
ag141
ag39
ag40
ag41
ag44
ag45
ag46
ag51
ag52
ag55
ag154
ag56
ag57
ag58
ag59
ag155
ag156
ag60
ag173
ag61
ag62
ag63
ag65
ag142
ag88
ag96
ag97
ag190
ag118
ag121
ag122
ag192
ag124
atbsg136
NstRp266
ag2
(g3
(dp267
g5
g6
(g7
(I0
tS'b'
tRp268
(I1
(I42
tg10
I00
(lp269
g30
ag31
ag32
ag33
ag35
ag36
ag37
ag141
ag39
ag40
ag41
ag45
ag46
ag51
ag55
ag56
ag57
ag59
ag155
ag60
ag62
ag64
ag65
ag142
ag82
ag157
ag83
ag84
ag85
ag86
ag175
ag88
ag89
ag158
ag159
ag94
ag96
ag97
ag160
ag118
ag122
ag124
atbsg136
NstRp270
ag2
(g3
(dp271
g5
g6
(g7
(I0
tS'b'
tRp272
(I1
(I83
tg10
I00
(lp273
g12
ag13
ag16
ag17
ag18
ag20
ag23
ag24
ag26
ag27
ag33
ag34
ag36
ag37
ag38
ag39
ag40
ag41
ag42
ag43
ag44
ag45
ag46
ag152
ag47
ag153
ag49
ag51
ag52
ag53
ag54
ag55
ag154
ag57
ag59
ag156
ag61
ag62
ag63
ag64
ag66
ag69
ag71
ag73
ag76
ag77
ag79
ag80
ag81
ag157
ag83
ag85
ag86
ag88
ag89
ag90
ag91
ag93
ag98
ag101
ag102
ag105
ag106
ag107
ag109
ag111
ag112
ag113
ag114
ag116
ag117
ag118
ag119
ag120
ag121
ag122
ag123
ag124
ag164
ag130
ag131
ag166
ag135
atbsg136
NstRp274
ag2
(g3
(dp275
g5
g6
(g7
(I0
tS'b'
tRp276
(I1
(I42
tg10
I00
(lp277
g18
ag20
ag21
ag24
ag27
ag30
ag31
ag32
ag33
ag34
ag37
ag141
ag39
ag40
ag41
ag44
ag45
ag46
ag47
ag51
ag52
ag53
ag55
ag57
ag59
ag155
ag62
ag65
ag142
ag78
ag85
ag88
ag91
ag158
ag96
ag160
ag190
ag118
ag122
ag123
ag132
ag133
atbsg136
NstRp278
ag2
(g3
(dp279
g5
g6
(g7
(I0
tS'b'
tRp280
(I1
(I42
tg10
I00
(lp281
g24
ag35
ag37
ag38
ag141
ag39
ag40
ag41
ag46
ag51
ag53
ag54
ag55
ag56
ag57
ag58
ag59
ag155
ag156
ag60
ag173
ag61
ag62
ag63
ag65
ag142
ag157
ag85
ag86
ag175
ag88
ag91
ag158
ag159
ag96
ag97
ag160
ag190
ag114
ag118
ag122
ag124
atbsg136
NstRp282
ag2
(g3
(dp283
g5
g6
(g7
(I0
tS'b'
tRp284
(I1
(I42
tg10
I00
(lp285
g18
ag24
ag27
ag33
ag37
ag38
ag141
ag39
ag40
ag41
ag44
ag45
ag46
ag51
ag52
ag55
ag154
ag56
ag57
ag58
ag59
ag155
ag156
ag60
ag173
ag61
ag62
ag63
ag64
ag65
ag142
ag78
ag80
ag86
ag90
ag96
ag97
ag160
ag190
ag118
ag122
ag124
atbsg136
NstRp286
ag2
(g3
(dp287
g5
g6
(g7
(I0
tS'b'
tRp288
(I1
(I42
tg10
I00
(lp289
g15
ag16
ag18
ag148
ag20
ag24
ag26
ag27
ag34
ag35
ag37
ag38
ag39
ag40
ag41
ag42
ag43
ag44
ag45
ag51
ag52
ag55
ag57
ag59
ag66
ag71
ag79
ag80
ag87
ag90
ag93
ag98
ag101
ag105
ag106
ag112
ag114
ag118
ag121
ag122
ag123
ag131
atbsg136
NstRp290
ag2
(g3
(dp291
g5
g6
(g7
(I0
tS'b'
tRp292
(I1
(I42
tg10
I00
(lp293
g15
ag17
ag18
ag20
ag23
ag24
ag27
ag33
ag34
ag35
ag37
ag39
ag40
ag41
ag42
ag43
ag45
ag46
ag51
ag52
ag55
ag59
ag61
ag63
ag66
ag71
ag80
ag81
ag157
ag83
ag86
ag88
ag90
ag96
ag98
ag101
ag111
ag112
ag117
ag118
ag121
ag126
atbsg136
NstRp294
ag2
(g3
(dp295
g5
g6
(g7
(I0
tS'b'
tRp296
(I1
(I42
tg10
I00
(lp297
g16
ag20
ag150
ag24
ag26
ag33
ag35
ag37
ag38
ag141
ag39
ag40
ag41
ag42
ag44
ag45
ag46
ag51
ag52
ag55
ag57
ag59
ag173
ag62
ag64
ag142
ag85
ag87
ag88
ag96
ag160
ag98
ag105
ag111
ag113
ag114
ag118
ag121
ag122
ag123
ag124
ag162
atbsg136
NstRp298
ag2
(g3
(dp299
g5
g6
(g7
(I0
tS'b'
tRp300
(I1
(I42
tg10
I00
(lp301
g20
ag24
ag26
ag27
ag33
ag34
ag37
ag141
ag39
ag40
ag41
ag45
ag46
ag51
ag52
ag54
ag55
ag154
ag56
ag57
ag58
ag59
ag155
ag156
ag60
ag173
ag61
ag62
ag63
ag64
ag65
ag78
ag157
ag85
ag86
ag88
ag91
ag96
ag97
ag160
ag190
ag118
atbsg136
NstRp302
ag2
(g3
(dp303
g5
g6
(g7
(I0
tS'b'
tRp304
(I1
(I83
tg10
I00
(lp305
g16
ag17
ag18
ag20
ag21
ag23
ag24
ag26
ag27
ag28
ag29
ag34
ag36
ag37
ag38
ag39
ag40
ag41
ag42
ag43
ag45
ag46
ag47
ag153
ag49
ag51
ag52
ag53
ag54
ag55
ag154
ag56
ag57
ag59
ag61
ag62
ag63
ag66
ag71
ag72
ag74
ag76
ag77
ag78
ag80
ag81
ag83
ag85
ag86
ag87
ag88
ag90
ag91
ag158
ag93
ag94
ag98
ag191
ag101
ag102
ag103
ag105
ag106
ag107
ag110
ag111
ag112
ag113
ag114
ag116
ag117
ag118
ag119
ag121
ag122
ag123
ag125
ag126
ag161
ag164
ag130
ag131
ag165
atbsg136
NstRp306
ag2
(g3
(dp307
g5
g6
(g7
(I0
tS'b'
tRp308
(I1
(I42
tg10
I00
(lp309
g18
ag20
ag27
ag30
ag31
ag33
ag34
ag37
ag38
ag141
ag39
ag40
ag41
ag44
ag45
ag46
ag51
ag54
ag55
ag154
ag56
ag57
ag58
ag59
ag155
ag156
ag60
ag173
ag62
ag64
ag65
ag142
ag78
ag88
ag158
ag96
ag97
ag111
ag118
ag121
ag122
ag124
atbsg136
NstRp310
ag2
(g3
(dp311
g5
g6
(g7
(I0
tS'b'
tRp312
(I1
(I83
tg10
I00
(lp313
g147
ag172
ag16
ag18
ag148
ag20
ag21
ag150
ag24
ag25
ag26
ag27
ag30
ag31
ag32
ag34
ag36
ag37
ag38
ag39
ag40
ag41
ag42
ag43
ag44
ag45
ag46
ag47
ag153
ag49
ag51
ag52
ag53
ag55
ag154
ag57
ag59
ag61
ag62
ag66
ag67
ag68
ag69
ag71
ag72
ag76
ag77
ag79
ag80
ag81
ag83
ag84
ag85
ag86
ag87
ag90
ag91
ag92
ag93
ag95
ag160
ag98
ag100
ag101
ag102
ag103
ag105
ag106
ag109
ag111
ag112
ag113
ag114
ag115
ag116
ag118
ag121
ag122
ag123
ag179
ag125
ag126
ag161
atbsg136
NstRp314
ag2
(g3
(dp315
g5
g6
(g7
(I0
tS'b'
tRp316
(I1
(I42
tg10
I00
(lp317
g18
ag24
ag27
ag30
ag31
ag33
ag34
ag37
ag39
ag40
ag41
ag51
ag52
ag53
ag55
ag56
ag57
ag58
ag59
ag155
ag156
ag60
ag173
ag61
ag62
ag63
ag64
ag65
ag142
ag80
ag81
ag84
ag85
ag86
ag94
ag95
ag97
ag160
ag190
ag118
ag121
ag122
atbsg136
NstRp318
ag2
(g3
(dp319
g5
g6
(g7
(I0
tS'b'
tRp320
(I1
(I42
tg10
I00
(lp321
g18
ag20
ag22
ag23
ag24
ag27
ag30
ag31
ag32
ag33
ag34
ag35
ag37
ag141
ag39
ag40
ag41
ag45
ag46
ag51
ag52
ag55
ag56
ag57
ag59
ag155
ag62
ag64
ag65
ag142
ag80
ag85
ag91
ag94
ag96
ag97
ag160
ag118
ag121
ag122
ag126
ag134
atbsg136
NstRp322
ag2
(g3
(dp323
g5
g6
(g7
(I0
tS'b'
tRp324
(I1
(I42
tg10
I00
(lp325
g14
ag16
ag18
ag20
ag22
ag24
ag27
ag28
ag30
ag31
ag33
ag35
ag37
ag38
ag141
ag39
ag40
ag41
ag44
ag45
ag46
ag152
ag51
ag53
ag57
ag59
ag61
ag62
ag64
ag80
ag81
ag83
ag90
ag96
ag97
ag160
ag190
ag101
ag118
ag122
ag192
ag124
atbsg136
NstRp326
ag2
(g3
(dp327
g5
g6
(g7
(I0
tS'b'
tRp328
(I1
(I83
tg10
I00
(lp329
g12
ag15
ag16
ag17
ag18
ag20
ag23
ag24
ag26
ag27
ag30
ag31
ag34
ag36
ag37
ag38
ag39
ag40
ag41
ag42
ag43
ag44
ag45
ag46
ag47
ag49
ag51
ag52
ag53
ag54
ag55
ag154
ag57
ag59
ag61
ag62
ag66
ag68
ag69
ag71
ag72
ag75
ag76
ag77
ag78
ag80
ag81
ag83
ag85
ag86
ag88
ag90
ag92
ag93
ag96
ag98
ag99
ag101
ag102
ag103
ag105
ag106
ag107
ag109
ag110
ag111
ag112
ag113
ag114
ag117
ag118
ag119
ag121
ag122
ag123
ag124
ag125
ag126
ag161
ag162
ag129
ag131
ag166
atbsg136
NstRp330
ag2
(g3
(dp331
g5
g6
(g7
(I0
tS'b'
tRp332
(I1
(I124
tg10
I00
(lp333
g12
ag147
ag172
ag15
ag16
ag17
ag18
ag19
ag148
ag20
ag149
ag22
ag23
ag24
ag26
ag27
ag28
ag29
ag32
ag33
ag34
ag35
ag36
ag37
ag151
ag38
ag39
ag40
ag41
ag42
ag43
ag44
ag45
ag46
ag47
ag153
ag49
ag50
ag51
ag52
ag53
ag54
ag55
ag56
ag57
ag58
ag59
ag156
ag173
ag61
ag62
ag63
ag64
ag66
ag67
ag68
ag70
ag71
ag72
ag73
ag74
ag75
ag76
ag77
ag78
ag79
ag80
ag81
ag82
ag157
ag83
ag84
ag85
ag86
ag87
ag175
ag88
ag89
ag90
ag158
ag159
ag93
ag94
ag96
ag160
ag98
ag101
ag102
ag103
ag105
ag106
ag107
ag108
ag109
ag110
ag111
ag112
ag113
ag114
ag115
ag116
ag117
ag118
ag119
ag120
ag121
ag122
ag123
ag192
ag179
ag125
ag126
ag161
ag162
ag163
ag164
ag129
ag131
ag165
ag193
ag166
ag167
ag134
ag182
atbsg136
NstRp334
ag2
(g3
(dp335
g5
g6
(g7
(I0
tS'b'
tRp336
(I1
(I42
tg10
I00
(lp337
g18
ag23
ag24
ag27
ag28
ag33
ag34
ag35
ag37
ag141
ag39
ag40
ag41
ag45
ag46
ag49
ag51
ag54
ag55
ag154
ag57
ag59
ag156
ag173
ag62
ag64
ag142
ag85
ag175
ag88
ag91
ag96
ag97
ag160
ag190
ag113
ag114
ag118
ag122
ag123
ag126
ag167
atbsg136
NstRp338
ag2
(g3
(dp339
g5
g6
(g7
(I0
tS'b'
tRp340
(I1
(I165
tg10
I00
(lp341
g12
ag13
ag147
ag172
ag14
ag15
ag16
ag17
ag18
ag19
ag148
ag20
ag21
ag149
ag150
ag22
ag23
ag24
ag25
ag26
ag27
ag28
ag29
ag30
ag31
ag188
ag189
ag32
ag33
ag34
ag35
ag36
ag37
ag151
ag38
ag141
ag39
ag40
ag41
ag42
ag43
ag44
ag45
ag46
ag152
ag47
ag48
ag153
ag49
ag50
ag51
ag52
ag53
ag54
ag55
ag154
ag56
ag57
ag58
ag59
ag155
ag156
ag60
ag173
ag61
ag62
ag63
ag64
ag65
ag142
ag66
ag67
ag68
ag69
ag70
ag71
ag72
ag174
ag73
ag74
ag75
ag76
ag77
ag78
ag79
ag80
ag81
ag82
ag157
ag83
ag84
ag85
ag86
ag87
ag175
ag88
ag89
ag90
ag91
ag158
ag92
ag159
ag93
ag94
ag95
ag96
ag97
ag160
ag190
ag98
ag99
ag191
ag100
ag101
ag102
ag103
ag104
ag105
ag106
ag107
ag176
ag177
ag108
ag109
ag110
ag111
ag112
ag113
ag114
ag115
ag178
ag116
ag117
ag118
ag119
ag120
ag121
ag122
ag123
ag192
ag124
ag179
ag125
ag126
ag161
ag162
ag163
ag164
ag127
ag128
ag129
ag130
ag131
ag132
ag165
ag193
ag166
ag180
ag181
ag133
ag167
ag134
ag135
ag182
ag183
atbsg136
NstRp342
ag2
(g3
(dp343
g5
g6
(g7
(I0
tS'b'
tRp344
(I1
(I165
tg10
I00
(lp345
g12
ag13
ag147
ag172
ag14
ag15
ag16
ag17
ag18
ag19
ag148
ag20
ag21
ag149
ag150
ag22
ag23
ag24
ag25
ag26
ag27
ag28
ag29
ag30
ag31
ag188
ag189
ag32
ag33
ag34
ag35
ag36
ag37
ag151
ag38
ag141
ag39
ag40
ag41
ag42
ag43
ag44
ag45
ag46
ag152
ag47
ag48
ag153
ag49
ag50
ag51
ag52
ag53
ag54
ag55
ag154
ag56
ag57
ag58
ag59
ag155
ag156
ag60
ag173
ag61
ag62
ag63
ag64
ag65
ag142
ag66
ag67
ag68
ag69
ag70
ag71
ag72
ag174
ag73
ag74
ag75
ag76
ag77
ag78
ag79
ag80
ag81
ag82
ag157
ag83
ag84
ag85
ag86
ag87
ag175
ag88
ag89
ag90
ag91
ag158
ag92
ag159
ag93
ag94
ag95
ag96
ag97
ag160
ag190
ag98
ag99
ag191
ag100
ag101
ag102
ag103
ag104
ag105
ag106
ag107
ag176
ag177
ag108
ag109
ag110
ag111
ag112
ag113
ag114
ag115
ag178
ag116
ag117
ag118
ag119
ag120
ag121
ag122
ag123
ag192
ag124
ag179
ag125
ag126
ag161
ag162
ag163
ag164
ag127
ag128
ag129
ag130
ag131
ag132
ag165
ag193
ag166
ag180
ag181
ag133
ag167
ag134
ag135
ag182
ag183
atbsg136
NstRp346
ag2
(g3
(dp347
g5
g6
(g7
(I0
tS'b'
tRp348
(I1
(I83
tg10
I00
(lp349
g13
ag147
ag16
ag17
ag18
ag20
ag22
ag23
ag24
ag25
ag26
ag27
ag28
ag33
ag34
ag35
ag37
ag151
ag38
ag39
ag40
ag41
ag42
ag43
ag44
ag45
ag46
ag47
ag153
ag49
ag51
ag52
ag53
ag54
ag55
ag154
ag57
ag59
ag156
ag62
ag63
ag66
ag68
ag69
ag71
ag72
ag76
ag77
ag78
ag79
ag80
ag81
ag83
ag85
ag86
ag87
ag175
ag88
ag90
ag91
ag93
ag98
ag101
ag103
ag105
ag106
ag107
ag109
ag110
ag112
ag113
ag114
ag118
ag119
ag121
ag122
ag123
ag124
ag126
ag161
ag162
ag131
ag182
atbsg136
NstRp350
ag2
(g3
(dp351
g5
g6
(g7
(I0
tS'b'
tRp352
(I1
(I42
tg10
I00
(lp353
g24
ag33
ag37
ag141
ag39
ag40
ag41
ag44
ag45
ag46
ag54
ag55
ag154
ag56
ag57
ag59
ag155
ag156
ag60
ag173
ag61
ag62
ag63
ag64
ag65
ag142
ag79
ag157
ag85
ag86
ag175
ag88
ag91
ag158
ag159
ag96
ag97
ag160
ag190
ag118
ag121
ag165
atbsg136
NstRp354
ag2
(g3
(dp355
g5
g6
(g7
(I0
tS'b'
tRp356
(I1
(I42
tg10
I00
(lp357
g16
ag24
ag27
ag33
ag34
ag35
ag37
ag38
ag141
ag39
ag40
ag41
ag46
ag51
ag52
ag54
ag55
ag56
ag57
ag58
ag59
ag155
ag156
ag60
ag173
ag61
ag62
ag64
ag65
ag142
ag78
ag157
ag86
ag88
ag91
ag158
ag159
ag96
ag97
ag190
ag112
ag118
atbsg136
NstRp358
ag2
(g3
(dp359
g5
g6
(g7
(I0
tS'b'
tRp360
(I1
(I42
tg10
I00
(lp361
g16
ag17
ag20
ag24
ag25
ag27
ag34
ag36
ag38
ag39
ag40
ag41
ag42
ag43
ag46
ag51
ag52
ag53
ag55
ag57
ag59
ag61
ag62
ag71
ag76
ag80
ag81
ag83
ag85
ag86
ag90
ag93
ag106
ag109
ag110
ag111
ag113
ag116
ag118
ag121
ag122
ag123
atbsg136
NstRp362
ag2
(g3
(dp363
g5
g6
(g7
(I0
tS'b'
tRp364
(I1
(I165
tg10
I00
(lp365
g12
ag13
ag147
ag172
ag14
ag15
ag16
ag17
ag18
ag19
ag148
ag20
ag21
ag149
ag150
ag22
ag23
ag24
ag25
ag26
ag27
ag28
ag29
ag30
ag31
ag188
ag189
ag32
ag33
ag34
ag35
ag36
ag37
ag151
ag38
ag141
ag39
ag40
ag41
ag42
ag43
ag44
ag45
ag46
ag152
ag47
ag48
ag153
ag49
ag50
ag51
ag52
ag53
ag54
ag55
ag154
ag56
ag57
ag58
ag59
ag155
ag156
ag60
ag173
ag61
ag62
ag63
ag64
ag65
ag142
ag66
ag67
ag68
ag69
ag70
ag71
ag72
ag174
ag73
ag74
ag75
ag76
ag77
ag78
ag79
ag80
ag81
ag82
ag157
ag83
ag84
ag85
ag86
ag87
ag175
ag88
ag89
ag90
ag91
ag158
ag92
ag159
ag93
ag94
ag95
ag96
ag97
ag160
ag190
ag98
ag99
ag191
ag100
ag101
ag102
ag103
ag104
ag105
ag106
ag107
ag176
ag177
ag108
ag109
ag110
ag111
ag112
ag113
ag114
ag115
ag178
ag116
ag117
ag118
ag119
ag120
ag121
ag122
ag123
ag192
ag124
ag179
ag125
ag126
ag161
ag162
ag163
ag164
ag127
ag128
ag129
ag130
ag131
ag132
ag165
ag193
ag166
ag180
ag181
ag133
ag167
ag134
ag135
ag182
ag183
atbsg136
NstRp366
ag2
(g3
(dp367
g5
g6
(g7
(I0
tS'b'
tRp368
(I1
(I83
tg10
I00
(lp369
g13
ag172
ag18
ag20
ag23
ag24
ag25
ag26
ag27
ag28
ag30
ag31
ag33
ag34
ag35
ag37
ag38
ag39
ag40
ag41
ag42
ag43
ag44
ag45
ag46
ag152
ag47
ag153
ag49
ag51
ag52
ag53
ag54
ag55
ag154
ag56
ag57
ag59
ag156
ag61
ag62
ag63
ag66
ag68
ag71
ag73
ag75
ag76
ag77
ag79
ag80
ag81
ag83
ag84
ag86
ag88
ag90
ag91
ag158
ag93
ag98
ag100
ag101
ag102
ag103
ag106
ag107
ag110
ag111
ag112
ag116
ag117
ag118
ag119
ag121
ag122
ag123
ag179
ag126
ag162
ag163
ag131
ag180
atbsg136
NstRp370
ag2
(g3
(dp371
g5
g6
(g7
(I0
tS'b'
tRp372
(I1
(I42
tg10
I00
(lp373
g18
ag20
ag24
ag27
ag30
ag31
ag33
ag35
ag37
ag141
ag39
ag40
ag41
ag46
ag51
ag52
ag54
ag55
ag154
ag57
ag59
ag156
ag173
ag62
ag64
ag65
ag78
ag157
ag85
ag86
ag87
ag175
ag88
ag91
ag158
ag159
ag96
ag160
ag190
ag118
ag121
ag122
atbsg136
NstRp374
ag2
(g3
(dp375
g5
g6
(g7
(I0
tS'b'
tRp376
(I1
(I83
tg10
I00
(lp377
g12
ag13
ag172
ag16
ag17
ag18
ag20
ag23
ag24
ag25
ag26
ag27
ag30
ag31
ag33
ag34
ag35
ag36
ag37
ag38
ag39
ag40
ag41
ag42
ag43
ag44
ag45
ag46
ag47
ag49
ag51
ag52
ag53
ag55
ag57
ag59
ag173
ag61
ag62
ag66
ag68
ag69
ag71
ag72
ag76
ag77
ag79
ag80
ag81
ag85
ag86
ag87
ag88
ag90
ag91
ag158
ag93
ag98
ag100
ag101
ag102
ag105
ag106
ag107
ag110
ag113
ag114
ag116
ag117
ag118
ag119
ag120
ag121
ag122
ag123
ag124
ag179
ag125
ag126
ag161
ag162
ag130
ag131
atbsg136
NstRp378
ag2
(g3
(dp379
g5
g6
(g7
(I0
tS'b'
tRp380
(I1
(I42
tg10
I00
(lp381
g12
ag172
ag16
ag148
ag20
ag149
ag24
ag27
ag29
ag33
ag34
ag36
ag37
ag38
ag141
ag39
ag40
ag41
ag45
ag46
ag47
ag50
ag51
ag52
ag55
ag59
ag142
ag78
ag80
ag84
ag86
ag88
ag96
ag97
ag105
ag112
ag114
ag118
ag121
ag122
ag192
ag124
atbsg136
NstRp382
ag2
(g3
(dp383
g5
g6
(g7
(I0
tS'b'
tRp384
(I1
(I42
tg10
I00
(lp385
g16
ag17
ag18
ag20
ag23
ag24
ag29
ag34
ag37
ag38
ag39
ag40
ag41
ag43
ag44
ag45
ag46
ag47
ag51
ag52
ag55
ag57
ag59
ag62
ag66
ag71
ag80
ag81
ag87
ag90
ag93
ag101
ag106
ag110
ag111
ag114
ag118
ag121
ag122
ag123
ag126
ag129
atbsg136
NstRp386
ag2
(g3
(dp387
g5
g6
(g7
(I0
tS'b'
tRp388
(I1
(I42
tg10
I00
(lp389
g18
ag20
ag149
ag24
ag27
ag30
ag31
ag37
ag141
ag39
ag40
ag41
ag45
ag46
ag152
ag51
ag52
ag54
ag55
ag154
ag57
ag59
ag156
ag173
ag62
ag64
ag142
ag78
ag81
ag88
ag89
ag91
ag96
ag97
ag160
ag118
ag120
ag121
ag122
ag192
ag124
ag165
atbsg136
NstRp390
ag2
(g3
(dp391
g5
g6
(g7
(I0
tS'b'
tRp392
(I1
(I165
tg10
I00
(lp393
g12
ag13
ag147
ag172
ag14
ag15
ag16
ag17
ag18
ag19
ag148
ag20
ag21
ag149
ag150
ag22
ag23
ag24
ag25
ag26
ag27
ag28
ag29
ag30
ag31
ag188
ag189
ag32
ag33
ag34
ag35
ag36
ag37
ag151
ag38
ag141
ag39
ag40
ag41
ag42
ag43
ag44
ag45
ag46
ag152
ag47
ag48
ag153
ag49
ag50
ag51
ag52
ag53
ag54
ag55
ag154
ag56
ag57
ag58
ag59
ag155
ag156
ag60
ag173
ag61
ag62
ag63
ag64
ag65
ag142
ag66
ag67
ag68
ag69
ag70
ag71
ag72
ag174
ag73
ag74
ag75
ag76
ag77
ag78
ag79
ag80
ag81
ag82
ag157
ag83
ag84
ag85
ag86
ag87
ag175
ag88
ag89
ag90
ag91
ag158
ag92
ag159
ag93
ag94
ag95
ag96
ag97
ag160
ag190
ag98
ag99
ag191
ag100
ag101
ag102
ag103
ag104
ag105
ag106
ag107
ag176
ag177
ag108
ag109
ag110
ag111
ag112
ag113
ag114
ag115
ag178
ag116
ag117
ag118
ag119
ag120
ag121
ag122
ag123
ag192
ag124
ag179
ag125
ag126
ag161
ag162
ag163
ag164
ag127
ag128
ag129
ag130
ag131
ag132
ag165
ag193
ag166
ag180
ag181
ag133
ag167
ag134
ag135
ag182
ag183
atbsg136
NstRp394
ag2
(g3
(dp395
g5
g6
(g7
(I0
tS'b'
tRp396
(I1
(I42
tg10
I00
(lp397
g150
ag24
ag27
ag30
ag31
ag33
ag34
ag36
ag37
ag141
ag39
ag40
ag41
ag44
ag45
ag46
ag51
ag52
ag54
ag55
ag154
ag56
ag57
ag58
ag59
ag155
ag156
ag60
ag173
ag61
ag62
ag63
ag64
ag65
ag142
ag88
ag159
ag94
ag96
ag97
ag118
ag122
atbsg136
NstRp398
ag2
(g3
(dp399
g5
g6
(g7
(I0
tS'b'
tRp400
(I1
(I42
tg10
I00
(lp401
g16
ag18
ag20
ag21
ag23
ag24
ag29
ag33
ag34
ag35
ag37
ag38
ag39
ag40
ag41
ag42
ag43
ag44
ag45
ag46
ag47
ag51
ag52
ag55
ag57
ag59
ag63
ag68
ag71
ag80
ag86
ag88
ag90
ag93
ag101
ag105
ag106
ag107
ag111
ag118
ag121
ag122
atbsg136
NstRp402
ag2
(g3
(dp403
g5
g6
(g7
(I0
tS'b'
tRp404
(I1
(I42
tg10
I00
(lp405
g23
ag24
ag33
ag35
ag37
ag39
ag40
ag41
ag45
ag46
ag51
ag52
ag54
ag55
ag154
ag56
ag57
ag58
ag59
ag155
ag156
ag60
ag173
ag61
ag62
ag63
ag64
ag65
ag142
ag78
ag85
ag175
ag90
ag158
ag95
ag96
ag97
ag160
ag190
ag114
ag118
ag121
atbsg136
NstRp406
ag2
(g3
(dp407
g5
g6
(g7
(I0
tS'b'
tRp408
(I1
(I165
tg10
I00
(lp409
g12
ag13
ag147
ag172
ag14
ag15
ag16
ag17
ag18
ag19
ag148
ag20
ag21
ag149
ag150
ag22
ag23
ag24
ag25
ag26
ag27
ag28
ag29
ag30
ag31
ag188
ag189
ag32
ag33
ag34
ag35
ag36
ag37
ag151
ag38
ag141
ag39
ag40
ag41
ag42
ag43
ag44
ag45
ag46
ag152
ag47
ag48
ag153
ag49
ag50
ag51
ag52
ag53
ag54
ag55
ag154
ag56
ag57
ag58
ag59
ag155
ag156
ag60
ag173
ag61
ag62
ag63
ag64
ag65
ag142
ag66
ag67
ag68
ag69
ag70
ag71
ag72
ag174
ag73
ag74
ag75
ag76
ag77
ag78
ag79
ag80
ag81
ag82
ag157
ag83
ag84
ag85
ag86
ag87
ag175
ag88
ag89
ag90
ag91
ag158
ag92
ag159
ag93
ag94
ag95
ag96
ag97
ag160
ag190
ag98
ag99
ag191
ag100
ag101
ag102
ag103
ag104
ag105
ag106
ag107
ag176
ag177
ag108
ag109
ag110
ag111
ag112
ag113
ag114
ag115
ag178
ag116
ag117
ag118
ag119
ag120
ag121
ag122
ag123
ag192
ag124
ag179
ag125
ag126
ag161
ag162
ag163
ag164
ag127
ag128
ag129
ag130
ag131
ag132
ag165
ag193
ag166
ag180
ag181
ag133
ag167
ag134
ag135
ag182
ag183
atbsg136
NstRp410
ag2
(g3
(dp411
g5
g6
(g7
(I0
tS'b'
tRp412
(I1
(I42
tg10
I00
(lp413
g18
ag20
ag24
ag27
ag34
ag36
ag37
ag38
ag39
ag40
ag41
ag42
ag43
ag45
ag46
ag51
ag52
ag55
ag59
ag156
ag61
ag62
ag66
ag71
ag76
ag77
ag80
ag81
ag83
ag86
ag90
ag93
ag98
ag101
ag111
ag116
ag118
ag119
ag122
ag123
ag125
ag126
atbsg136
NstRp414
ag2
(g3
(dp415
g5
g6
(g7
(I0
tS'b'
tRp416
(I1
(I124
tg10
I00
(lp417
g12
ag13
ag147
ag14
ag16
ag17
ag18
ag19
ag148
ag20
ag149
ag22
ag23
ag24
ag25
ag26
ag27
ag28
ag29
ag30
ag31
ag33
ag34
ag35
ag36
ag37
ag38
ag141
ag39
ag40
ag41
ag42
ag43
ag44
ag45
ag46
ag152
ag47
ag153
ag49
ag51
ag52
ag53
ag54
ag55
ag56
ag57
ag58
ag59
ag156
ag60
ag61
ag62
ag63
ag66
ag67
ag68
ag70
ag71
ag72
ag75
ag76
ag77
ag78
ag80
ag81
ag82
ag157
ag83
ag85
ag86
ag87
ag175
ag88
ag90
ag91
ag158
ag92
ag159
ag93
ag94
ag95
ag96
ag97
ag160
ag98
ag99
ag100
ag101
ag103
ag104
ag105
ag106
ag107
ag109
ag110
ag111
ag112
ag113
ag114
ag116
ag117
ag118
ag119
ag121
ag122
ag123
ag192
ag124
ag179
ag125
ag126
ag162
ag163
ag130
ag131
ag132
ag166
ag180
ag133
ag167
ag134
ag135
ag183
atbsg136
NstRp418
ag2
(g3
(dp419
g5
g6
(g7
(I0
tS'b'
tRp420
(I1
(I42
tg10
I00
(lp421
g16
ag17
ag18
ag20
ag24
ag27
ag29
ag30
ag31
ag34
ag35
ag141
ag39
ag40
ag41
ag42
ag44
ag45
ag46
ag51
ag52
ag54
ag55
ag57
ag59
ag61
ag62
ag66
ag71
ag76
ag80
ag81
ag87
ag90
ag93
ag94
ag98
ag101
ag105
ag109
ag117
ag118
atbsg136
NstRp422
ag2
(g3
(dp423
g5
g6
(g7
(I0
tS'b'
tRp424
(I1
(I124
tg10
I00
(lp425
g12
ag13
ag15
ag16
ag17
ag18
ag19
ag20
ag150
ag22
ag23
ag24
ag25
ag26
ag27
ag29
ag30
ag31
ag32
ag33
ag34
ag35
ag36
ag151
ag38
ag39
ag40
ag41
ag42
ag43
ag44
ag45
ag46
ag152
ag47
ag153
ag49
ag50
ag51
ag52
ag53
ag54
ag55
ag154
ag57
ag58
ag59
ag61
ag62
ag63
ag64
ag65
ag66
ag68
ag70
ag71
ag72
ag174
ag75
ag76
ag77
ag78
ag79
ag80
ag81
ag157
ag83
ag84
ag85
ag86
ag87
ag88
ag90
ag91
ag158
ag92
ag159
ag93
ag94
ag95
ag96
ag97
ag160
ag98
ag99
ag191
ag100
ag101
ag102
ag103
ag105
ag106
ag107
ag108
ag109
ag110
ag111
ag112
ag113
ag115
ag178
ag116
ag117
ag118
ag119
ag120
ag121
ag122
ag123
ag124
ag179
ag125
ag126
ag161
ag162
ag163
ag130
ag131
ag132
ag165
ag166
ag180
ag181
ag135
atbsg136
NstRp426
ag2
(g3
(dp427
g5
g6
(g7
(I0
tS'b'
tRp428
(I1
(I42
tg10
I00
(lp429
g18
ag20
ag149
ag23
ag24
ag26
ag29
ag30
ag31
ag32
ag33
ag35
ag37
ag38
ag141
ag39
ag40
ag41
ag45
ag46
ag152
ag51
ag52
ag55
ag57
ag59
ag173
ag62
ag64
ag142
ag78
ag157
ag88
ag159
ag94
ag96
ag106
ag111
ag112
ag118
ag121
ag122
atbsg136
NstRp430
ag2
(g3
(dp431
g5
g6
(g7
(I0
tS'b'
tRp432
(I1
(I42
tg10
I00
(lp433
g20
ag22
ag24
ag27
ag30
ag31
ag33
ag34
ag37
ag141
ag39
ag40
ag41
ag45
ag51
ag54
ag55
ag154
ag56
ag57
ag58
ag59
ag155
ag156
ag60
ag173
ag61
ag62
ag63
ag64
ag65
ag78
ag79
ag157
ag175
ag88
ag91
ag158
ag96
ag114
ag118
ag124
atbsg136
NstRp434
ag2
(g3
(dp435
g5
g6
(g7
(I0
tS'b'
tRp436
(I1
(I42
tg10
I00
(lp437
g15
ag16
ag18
ag20
ag150
ag23
ag24
ag27
ag33
ag34
ag37
ag38
ag39
ag40
ag41
ag42
ag43
ag45
ag46
ag51
ag52
ag55
ag57
ag59
ag61
ag62
ag63
ag71
ag80
ag81
ag83
ag88
ag90
ag98
ag101
ag105
ag112
ag117
ag118
ag121
ag122
ag123
atbsg136
NstRp438
ag2
(g3
(dp439
g5
g6
(g7
(I0
tS'b'
tRp440
(I1
(I124
tg10
I00
(lp441
g12
ag147
ag172
ag14
ag15
ag16
ag17
ag18
ag148
ag20
ag21
ag149
ag24
ag25
ag26
ag27
ag28
ag29
ag30
ag31
ag32
ag33
ag34
ag35
ag36
ag37
ag151
ag38
ag39
ag40
ag41
ag42
ag43
ag44
ag45
ag46
ag47
ag153
ag49
ag50
ag51
ag52
ag53
ag54
ag55
ag154
ag56
ag57
ag59
ag155
ag156
ag60
ag173
ag61
ag62
ag63
ag64
ag65
ag66
ag67
ag68
ag70
ag71
ag72
ag174
ag75
ag76
ag77
ag79
ag80
ag81
ag157
ag83
ag86
ag87
ag175
ag88
ag90
ag91
ag92
ag159
ag93
ag96
ag97
ag160
ag98
ag99
ag100
ag101
ag105
ag106
ag107
ag109
ag110
ag111
ag112
ag113
ag114
ag115
ag116
ag117
ag118
ag119
ag121
ag122
ag123
ag124
ag125
ag126
ag161
ag162
ag163
ag127
ag128
ag129
ag131
ag166
ag180
ag181
ag133
ag167
ag134
ag135
ag183
atbsg136
NstRp442
ag2
(g3
(dp443
g5
g6
(g7
(I0
tS'b'
tRp444
(I1
(I165
tg10
I00
(lp445
g12
ag13
ag147
ag172
ag14
ag15
ag16
ag17
ag18
ag19
ag148
ag20
ag21
ag149
ag150
ag22
ag23
ag24
ag25
ag26
ag27
ag28
ag29
ag30
ag31
ag188
ag189
ag32
ag33
ag34
ag35
ag36
ag37
ag151
ag38
ag141
ag39
ag40
ag41
ag42
ag43
ag44
ag45
ag46
ag152
ag47
ag48
ag153
ag49
ag50
ag51
ag52
ag53
ag54
ag55
ag154
ag56
ag57
ag58
ag59
ag155
ag156
ag60
ag173
ag61
ag62
ag63
ag64
ag65
ag142
ag66
ag67
ag68
ag69
ag70
ag71
ag72
ag174
ag73
ag74
ag75
ag76
ag77
ag78
ag79
ag80
ag81
ag82
ag157
ag83
ag84
ag85
ag86
ag87
ag175
ag88
ag89
ag90
ag91
ag158
ag92
ag159
ag93
ag94
ag95
ag96
ag97
ag160
ag190
ag98
ag99
ag191
ag100
ag101
ag102
ag103
ag104
ag105
ag106
ag107
ag176
ag177
ag108
ag109
ag110
ag111
ag112
ag113
ag114
ag115
ag178
ag116
ag117
ag118
ag119
ag120
ag121
ag122
ag123
ag192
ag124
ag179
ag125
ag126
ag161
ag162
ag163
ag164
ag127
ag128
ag129
ag130
ag131
ag132
ag165
ag193
ag166
ag180
ag181
ag133
ag167
ag134
ag135
ag182
ag183
atbsg136
NstRp446
ag2
(g3
(dp447
g5
g6
(g7
(I0
tS'b'
tRp448
(I1
(I124
tg10
I00
(lp449
g12
ag13
ag147
ag172
ag14
ag15
ag16
ag17
ag18
ag19
ag148
ag20
ag21
ag150
ag23
ag24
ag25
ag26
ag27
ag28
ag30
ag31
ag33
ag34
ag36
ag37
ag151
ag38
ag141
ag39
ag40
ag41
ag42
ag43
ag44
ag45
ag46
ag47
ag153
ag49
ag50
ag51
ag52
ag53
ag54
ag55
ag154
ag57
ag58
ag59
ag155
ag156
ag173
ag61
ag62
ag63
ag64
ag65
ag66
ag67
ag68
ag69
ag71
ag72
ag73
ag74
ag76
ag77
ag78
ag79
ag80
ag81
ag157
ag83
ag84
ag85
ag86
ag87
ag175
ag88
ag89
ag90
ag91
ag92
ag93
ag96
ag97
ag98
ag100
ag101
ag102
ag106
ag107
ag109
ag110
ag111
ag112
ag113
ag114
ag115
ag116
ag117
ag118
ag119
ag121
ag122
ag123
ag124
ag179
ag125
ag126
ag161
ag162
ag164
ag129
ag130
ag131
ag165
ag193
ag166
ag180
ag167
ag135
ag182
atbsg136
NstRp450
ag2
(g3
(dp451
g5
g6
(g7
(I0
tS'b'
tRp452
(I1
(I42
tg10
I00
(lp453
g20
ag23
ag24
ag27
ag33
ag35
ag37
ag141
ag39
ag40
ag41
ag45
ag51
ag52
ag55
ag154
ag56
ag57
ag58
ag59
ag155
ag156
ag60
ag61
ag62
ag63
ag64
ag65
ag142
ag78
ag79
ag157
ag88
ag91
ag158
ag159
ag96
ag97
ag190
ag118
ag122
ag124
atbsg136
NstRp454
ag2
(g3
(dp455
g5
g6
(g7
(I0
tS'b'
tRp456
(I1
(I42
tg10
I00
(lp457
g16
ag18
ag20
ag24
ag26
ag27
ag34
ag37
ag38
ag39
ag40
ag41
ag42
ag43
ag45
ag46
ag51
ag52
ag55
ag57
ag59
ag61
ag66
ag71
ag76
ag77
ag78
ag80
ag81
ag83
ag84
ag86
ag87
ag90
ag91
ag111
ag112
ag117
ag118
ag122
ag123
ag126
atbsg136
NstRp458
ag2
(g3
(dp459
g5
g6
(g7
(I0
tS'b'
tRp460
(I1
(I42
tg10
I00
(lp461
g18
ag148
ag20
ag24
ag27
ag32
ag34
ag38
ag39
ag40
ag41
ag42
ag43
ag44
ag46
ag49
ag51
ag52
ag57
ag59
ag61
ag62
ag66
ag71
ag80
ag81
ag83
ag86
ag90
ag101
ag102
ag103
ag106
ag107
ag113
ag114
ag117
ag118
ag121
ag122
ag123
ag126
atbsg136
NstRp462
ag2
(g3
(dp463
g5
g6
(g7
(I0
tS'b'
tRp464
(I1
(I42
tg10
I00
(lp465
g16
ag18
ag20
ag150
ag24
ag26
ag27
ag29
ag32
ag34
ag37
ag38
ag141
ag39
ag40
ag41
ag43
ag45
ag46
ag47
ag51
ag52
ag55
ag57
ag59
ag62
ag142
ag66
ag72
ag76
ag80
ag86
ag87
ag90
ag158
ag96
ag101
ag118
ag121
ag122
ag124
ag162
atbsg136
NstRp466
ag2
(g3
(dp467
g5
g6
(g7
(I0
tS'b'
tRp468
(I1
(I42
tg10
I00
(lp469
g16
ag17
ag18
ag20
ag150
ag24
ag27
ag30
ag31
ag32
ag34
ag37
ag38
ag39
ag40
ag41
ag43
ag45
ag51
ag52
ag55
ag57
ag59
ag61
ag62
ag63
ag71
ag80
ag86
ag90
ag93
ag95
ag101
ag107
ag111
ag112
ag118
ag119
ag121
ag122
ag123
ag131
atbsg136
NstRp470
ag2
(g3
(dp471
g5
g6
(g7
(I0
tS'b'
tRp472
(I1
(I124
tg10
I00
(lp473
g12
ag13
ag147
ag172
ag14
ag15
ag16
ag17
ag18
ag148
ag20
ag21
ag23
ag24
ag25
ag26
ag27
ag28
ag30
ag31
ag32
ag33
ag34
ag35
ag36
ag37
ag38
ag141
ag39
ag40
ag41
ag42
ag43
ag44
ag45
ag46
ag47
ag153
ag49
ag51
ag52
ag53
ag54
ag55
ag154
ag56
ag57
ag59
ag155
ag156
ag60
ag61
ag62
ag63
ag64
ag65
ag66
ag68
ag69
ag70
ag71
ag72
ag73
ag76
ag77
ag78
ag79
ag80
ag81
ag157
ag83
ag85
ag86
ag87
ag89
ag90
ag91
ag158
ag92
ag93
ag96
ag97
ag98
ag99
ag191
ag101
ag102
ag103
ag105
ag107
ag108
ag109
ag111
ag112
ag113
ag114
ag115
ag116
ag117
ag118
ag119
ag120
ag121
ag122
ag123
ag124
ag179
ag125
ag126
ag161
ag162
ag163
ag127
ag128
ag129
ag131
ag132
ag166
ag180
ag181
ag133
ag167
ag135
ag183
atbsg136
NstRp474
ag2
(g3
(dp475
g5
g6
(g7
(I0
tS'b'
tRp476
(I1
(I42
tg10
I00
(lp477
g18
ag20
ag24
ag34
ag37
ag141
ag39
ag40
ag41
ag44
ag45
ag46
ag51
ag52
ag54
ag55
ag154
ag56
ag57
ag59
ag155
ag156
ag60
ag173
ag61
ag62
ag64
ag65
ag142
ag79
ag157
ag86
ag88
ag91
ag158
ag159
ag96
ag97
ag190
ag109
ag118
ag121
atbsg136
NstRp478
ag2
(g3
(dp479
g5
g6
(g7
(I0
tS'b'
tRp480
(I1
(I124
tg10
I00
(lp481
g12
ag147
ag172
ag14
ag15
ag16
ag17
ag18
ag20
ag21
ag150
ag22
ag23
ag24
ag25
ag26
ag27
ag29
ag31
ag33
ag34
ag35
ag36
ag37
ag151
ag38
ag39
ag40
ag41
ag42
ag43
ag44
ag45
ag46
ag47
ag153
ag49
ag50
ag51
ag52
ag53
ag54
ag55
ag154
ag56
ag57
ag58
ag59
ag155
ag156
ag61
ag62
ag63
ag64
ag65
ag66
ag67
ag68
ag70
ag71
ag72
ag74
ag75
ag76
ag78
ag79
ag80
ag81
ag82
ag83
ag85
ag86
ag87
ag175
ag88
ag90
ag91
ag158
ag92
ag159
ag93
ag94
ag95
ag96
ag97
ag98
ag99
ag191
ag100
ag101
ag102
ag103
ag105
ag106
ag107
ag109
ag110
ag111
ag112
ag113
ag114
ag115
ag116
ag117
ag118
ag119
ag121
ag122
ag123
ag124
ag179
ag125
ag126
ag161
ag162
ag130
ag131
ag132
ag166
ag180
ag181
ag133
ag167
ag134
atbsg136
NstRp482
ag2
(g3
(dp483
g5
g6
(g7
(I0
tS'b'
tRp484
(I1
(I42
tg10
I00
(lp485
g18
ag20
ag23
ag24
ag27
ag29
ag34
ag37
ag38
ag39
ag40
ag41
ag44
ag45
ag46
ag47
ag49
ag51
ag52
ag55
ag57
ag59
ag61
ag62
ag68
ag76
ag78
ag80
ag81
ag83
ag158
ag93
ag98
ag101
ag110
ag111
ag112
ag118
ag121
ag122
ag123
ag124
atbsg136
NstRp486
ag2
(g3
(dp487
g5
g6
(g7
(I0
tS'b'
tRp488
(I1
(I165
tg10
I00
(lp489
g12
ag13
ag147
ag172
ag14
ag15
ag16
ag17
ag18
ag19
ag148
ag20
ag21
ag149
ag150
ag22
ag23
ag24
ag25
ag26
ag27
ag28
ag29
ag30
ag31
ag188
ag189
ag32
ag33
ag34
ag35
ag36
ag37
ag151
ag38
ag141
ag39
ag40
ag41
ag42
ag43
ag44
ag45
ag46
ag152
ag47
ag48
ag153
ag49
ag50
ag51
ag52
ag53
ag54
ag55
ag154
ag56
ag57
ag58
ag59
ag155
ag156
ag60
ag173
ag61
ag62
ag63
ag64
ag65
ag142
ag66
ag67
ag68
ag69
ag70
ag71
ag72
ag174
ag73
ag74
ag75
ag76
ag77
ag78
ag79
ag80
ag81
ag82
ag157
ag83
ag84
ag85
ag86
ag87
ag175
ag88
ag89
ag90
ag91
ag158
ag92
ag159
ag93
ag94
ag95
ag96
ag97
ag160
ag190
ag98
ag99
ag191
ag100
ag101
ag102
ag103
ag104
ag105
ag106
ag107
ag176
ag177
ag108
ag109
ag110
ag111
ag112
ag113
ag114
ag115
ag178
ag116
ag117
ag118
ag119
ag120
ag121
ag122
ag123
ag192
ag124
ag179
ag125
ag126
ag161
ag162
ag163
ag164
ag127
ag128
ag129
ag130
ag131
ag132
ag165
ag193
ag166
ag180
ag181
ag133
ag167
ag134
ag135
ag182
ag183
atbsg136
NstRp490
ag2
(g3
(dp491
g5
g6
(g7
(I0
tS'b'
tRp492
(I1
(I42
tg10
I00
(lp493
g20
ag29
ag35
ag37
ag141
ag39
ag40
ag41
ag45
ag49
ag53
ag55
ag56
ag57
ag58
ag59
ag155
ag156
ag60
ag173
ag61
ag62
ag63
ag64
ag65
ag79
ag80
ag81
ag157
ag85
ag86
ag175
ag88
ag91
ag158
ag159
ag93
ag96
ag97
ag160
ag190
ag118
atbsg136
NstRp494
ag2
(g3
(dp495
g5
g6
(g7
(I0
tS'b'
tRp496
(I1
(I42
tg10
I00
(lp497
g16
ag18
ag20
ag150
ag24
ag26
ag27
ag33
ag34
ag37
ag141
ag39
ag40
ag41
ag44
ag45
ag46
ag51
ag52
ag53
ag55
ag56
ag58
ag59
ag155
ag60
ag61
ag62
ag63
ag65
ag142
ag78
ag157
ag86
ag91
ag159
ag94
ag96
ag97
ag190
ag118
ag122
atbsg136
NstRp498
ag2
(g3
(dp499
g5
g6
(g7
(I0
tS'b'
tRp500
(I1
(I83
tg10
I00
(lp501
g172
ag15
ag16
ag17
ag18
ag20
ag21
ag150
ag23
ag24
ag25
ag27
ag30
ag31
ag34
ag36
ag37
ag38
ag39
ag40
ag41
ag42
ag43
ag45
ag46
ag47
ag153
ag49
ag51
ag52
ag53
ag55
ag154
ag56
ag57
ag58
ag59
ag156
ag61
ag62
ag63
ag64
ag66
ag68
ag71
ag72
ag76
ag77
ag79
ag80
ag81
ag83
ag85
ag86
ag87
ag88
ag90
ag92
ag93
ag96
ag98
ag191
ag101
ag102
ag107
ag110
ag111
ag112
ag115
ag116
ag118
ag119
ag121
ag122
ag123
ag179
ag125
ag126
ag129
ag130
ag131
ag165
ag180
atbsg136
NstRp502
ag2
(g3
(dp503
g5
g6
(g7
(I0
tS'b'
tRp504
(I1
(I124
tg10
I00
(lp505
g12
ag15
ag16
ag17
ag18
ag19
ag148
ag20
ag149
ag150
ag22
ag23
ag24
ag25
ag26
ag27
ag29
ag30
ag31
ag32
ag33
ag34
ag35
ag36
ag37
ag151
ag38
ag141
ag39
ag40
ag41
ag42
ag43
ag45
ag46
ag47
ag48
ag153
ag49
ag51
ag52
ag53
ag54
ag55
ag154
ag56
ag57
ag58
ag59
ag156
ag61
ag62
ag63
ag64
ag142
ag66
ag67
ag68
ag70
ag71
ag72
ag73
ag74
ag75
ag76
ag77
ag78
ag79
ag80
ag81
ag82
ag157
ag83
ag84
ag85
ag86
ag87
ag88
ag90
ag158
ag92
ag93
ag96
ag97
ag98
ag191
ag101
ag102
ag103
ag104
ag105
ag106
ag107
ag109
ag110
ag111
ag112
ag113
ag114
ag115
ag116
ag117
ag118
ag120
ag121
ag122
ag123
ag124
ag179
ag125
ag126
ag161
ag162
ag164
ag129
ag130
ag131
ag132
ag180
ag181
ag167
ag134
ag135
ag183
atbsg136
NstRp506
ag2
(g3
(dp507
g5
g6
(g7
(I0
tS'b'
tRp508
(I1
(I42
tg10
I00
(lp509
g15
ag16
ag18
ag20
ag22
ag24
ag34
ag37
ag38
ag39
ag40
ag41
ag42
ag43
ag45
ag46
ag47
ag49
ag51
ag52
ag55
ag59
ag61
ag66
ag71
ag73
ag76
ag79
ag80
ag81
ag83
ag86
ag87
ag89
ag90
ag93
ag107
ag112
ag118
ag121
ag122
ag123
atbsg136
NstRp510
ag2
(g3
(dp511
g5
g6
(g7
(I0
tS'b'
tRp512
(I1
(I83
tg10
I00
(lp513
g16
ag17
ag18
ag20
ag23
ag24
ag25
ag26
ag27
ag30
ag31
ag34
ag37
ag38
ag39
ag40
ag41
ag42
ag43
ag45
ag46
ag49
ag51
ag52
ag53
ag55
ag57
ag58
ag59
ag61
ag62
ag63
ag64
ag66
ag67
ag68
ag69
ag71
ag72
ag73
ag74
ag75
ag76
ag77
ag78
ag79
ag80
ag81
ag83
ag86
ag87
ag90
ag158
ag93
ag98
ag101
ag102
ag103
ag105
ag106
ag107
ag109
ag110
ag111
ag112
ag113
ag114
ag116
ag118
ag119
ag120
ag121
ag122
ag123
ag179
ag125
ag126
ag161
ag162
ag164
ag129
ag131
ag166
atbsg136
NstRp514
ag2
(g3
(dp515
g5
g6
(g7
(I0
tS'b'
tRp516
(I1
(I124
tg10
I00
(lp517
g13
ag172
ag14
ag15
ag16
ag17
ag18
ag19
ag148
ag20
ag21
ag149
ag150
ag22
ag23
ag24
ag25
ag26
ag27
ag29
ag30
ag31
ag34
ag35
ag36
ag37
ag38
ag141
ag39
ag40
ag41
ag42
ag43
ag44
ag45
ag46
ag152
ag47
ag48
ag153
ag49
ag50
ag51
ag52
ag53
ag54
ag55
ag57
ag59
ag155
ag156
ag60
ag173
ag61
ag62
ag63
ag64
ag142
ag66
ag67
ag68
ag70
ag71
ag72
ag74
ag75
ag76
ag77
ag78
ag79
ag80
ag81
ag83
ag85
ag86
ag87
ag175
ag88
ag90
ag93
ag94
ag95
ag96
ag97
ag160
ag98
ag191
ag101
ag102
ag103
ag104
ag106
ag107
ag108
ag109
ag110
ag111
ag112
ag113
ag114
ag115
ag116
ag117
ag118
ag119
ag121
ag122
ag123
ag192
ag124
ag179
ag125
ag126
ag161
ag162
ag163
ag129
ag130
ag131
ag166
ag180
ag181
ag135
ag182
atbsg136
NstRp518
ag2
(g3
(dp519
g5
g6
(g7
(I0
tS'b'
tRp520
(I1
(I83
tg10
I00
(lp521
g147
ag16
ag17
ag18
ag19
ag20
ag149
ag22
ag24
ag26
ag27
ag28
ag30
ag31
ag32
ag33
ag34
ag35
ag37
ag38
ag141
ag39
ag40
ag41
ag42
ag43
ag44
ag45
ag46
ag47
ag49
ag51
ag52
ag54
ag55
ag56
ag57
ag59
ag155
ag60
ag62
ag64
ag65
ag142
ag66
ag67
ag68
ag75
ag76
ag77
ag78
ag80
ag81
ag86
ag175
ag88
ag89
ag90
ag91
ag158
ag94
ag96
ag160
ag190
ag98
ag101
ag103
ag107
ag109
ag113
ag114
ag117
ag118
ag120
ag121
ag122
ag192
ag124
ag125
ag126
ag129
ag132
ag134
atbsg136
NstRp522
ag2
(g3
(dp523
g5
g6
(g7
(I0
tS'b'
tRp524
(I1
(I124
tg10
I00
(lp525
g12
ag147
ag172
ag15
ag16
ag18
ag19
ag148
ag20
ag21
ag149
ag150
ag23
ag24
ag25
ag26
ag27
ag28
ag30
ag31
ag32
ag34
ag36
ag37
ag38
ag141
ag39
ag40
ag41
ag42
ag43
ag44
ag45
ag46
ag152
ag47
ag153
ag49
ag50
ag51
ag52
ag53
ag54
ag55
ag57
ag58
ag59
ag155
ag156
ag60
ag61
ag62
ag63
ag64
ag142
ag66
ag67
ag68
ag69
ag71
ag72
ag174
ag73
ag75
ag76
ag77
ag78
ag79
ag80
ag81
ag157
ag83
ag84
ag85
ag86
ag87
ag90
ag91
ag158
ag92
ag93
ag94
ag95
ag96
ag97
ag160
ag98
ag99
ag100
ag101
ag102
ag104
ag106
ag107
ag109
ag110
ag111
ag112
ag113
ag114
ag115
ag116
ag117
ag118
ag119
ag120
ag121
ag122
ag123
ag179
ag125
ag126
ag161
ag162
ag163
ag164
ag128
ag130
ag131
ag166
ag180
ag181
ag133
ag183
atbsg136
NstRp526
ag2
(g3
(dp527
g5
g6
(g7
(I0
tS'b'
tRp528
(I1
(I124
tg10
I00
(lp529
g13
ag15
ag16
ag17
ag18
ag148
ag20
ag21
ag149
ag150
ag22
ag23
ag24
ag25
ag26
ag27
ag28
ag29
ag30
ag31
ag32
ag33
ag34
ag36
ag37
ag38
ag141
ag39
ag40
ag41
ag42
ag43
ag44
ag45
ag46
ag47
ag153
ag49
ag50
ag51
ag52
ag53
ag55
ag154
ag57
ag58
ag59
ag156
ag60
ag61
ag62
ag64
ag66
ag68
ag69
ag70
ag71
ag72
ag73
ag75
ag76
ag77
ag78
ag79
ag80
ag81
ag82
ag157
ag83
ag85
ag86
ag87
ag175
ag88
ag89
ag90
ag91
ag158
ag92
ag93
ag94
ag96
ag97
ag98
ag99
ag191
ag100
ag101
ag103
ag104
ag105
ag106
ag107
ag109
ag110
ag111
ag112
ag113
ag114
ag115
ag178
ag116
ag117
ag118
ag119
ag121
ag122
ag123
ag192
ag179
ag125
ag126
ag164
ag127
ag128
ag129
ag130
ag131
ag132
ag193
ag166
ag180
ag182
ag183
atbsg136
NstRp530
ag2
(g3
(dp531
g5
g6
(g7
(I0
tS'b'
tRp532
(I1
(I42
tg10
I00
(lp533
g18
ag20
ag23
ag24
ag25
ag26
ag27
ag28
ag30
ag31
ag34
ag37
ag38
ag141
ag39
ag40
ag41
ag43
ag44
ag45
ag46
ag51
ag52
ag55
ag57
ag59
ag142
ag66
ag68
ag75
ag78
ag80
ag81
ag95
ag101
ag115
ag117
ag118
ag121
ag122
ag124
ag126
atbsg136
NstRp534
ag2
(g3
(dp535
g5
g6
(g7
(I0
tS'b'
tRp536
(I1
(I42
tg10
I00
(lp537
g15
ag16
ag20
ag24
ag27
ag34
ag38
ag39
ag40
ag41
ag42
ag43
ag45
ag46
ag49
ag51
ag52
ag55
ag58
ag59
ag156
ag61
ag62
ag66
ag71
ag76
ag77
ag80
ag81
ag86
ag87
ag88
ag90
ag93
ag102
ag107
ag114
ag116
ag118
ag121
ag122
ag123
atbsg136
NstRp538
ag2
(g3
(dp539
g5
g6
(g7
(I0
tS'b'
tRp540
(I1
(I83
tg10
I00
(lp541
g16
ag17
ag18
ag19
ag148
ag20
ag23
ag24
ag26
ag27
ag29
ag30
ag31
ag32
ag33
ag34
ag37
ag38
ag39
ag40
ag41
ag42
ag43
ag45
ag46
ag47
ag49
ag51
ag52
ag53
ag54
ag55
ag56
ag57
ag59
ag155
ag156
ag61
ag62
ag66
ag68
ag69
ag70
ag71
ag75
ag76
ag77
ag79
ag80
ag81
ag83
ag85
ag86
ag88
ag89
ag90
ag93
ag98
ag191
ag100
ag101
ag102
ag105
ag106
ag107
ag110
ag111
ag112
ag113
ag116
ag117
ag118
ag119
ag121
ag122
ag123
ag125
ag126
ag161
ag130
ag131
ag132
ag180
atbsg136
NstRp542
ag2
(g3
(dp543
g5
g6
(g7
(I0
tS'b'
tRp544
(I1
(I42
tg10
I00
(lp545
g18
ag20
ag22
ag23
ag24
ag26
ag27
ag28
ag33
ag35
ag37
ag141
ag39
ag40
ag41
ag44
ag45
ag46
ag51
ag52
ag55
ag57
ag59
ag156
ag173
ag62
ag64
ag142
ag80
ag84
ag85
ag88
ag90
ag94
ag96
ag97
ag160
ag110
ag118
ag122
ag192
ag124
atbsg136
NstRp546
ag2
(g3
(dp547
g5
g6
(g7
(I0
tS'b'
tRp548
(I1
(I42
tg10
I00
(lp549
g16
ag18
ag148
ag20
ag149
ag24
ag25
ag27
ag30
ag33
ag34
ag35
ag37
ag38
ag141
ag39
ag40
ag41
ag42
ag43
ag44
ag45
ag46
ag51
ag52
ag55
ag58
ag59
ag62
ag71
ag76
ag80
ag87
ag90
ag105
ag106
ag111
ag114
ag118
ag121
ag122
ag123
atbsg136
NstRp550
ag2
(g3
(dp551
g5
g6
(g7
(I0
tS'b'
tRp552
(I1
(I83
tg10
I00
(lp553
g147
ag16
ag17
ag18
ag148
ag20
ag21
ag149
ag150
ag23
ag24
ag25
ag26
ag27
ag28
ag30
ag31
ag32
ag33
ag34
ag35
ag37
ag38
ag39
ag40
ag41
ag42
ag43
ag45
ag46
ag47
ag153
ag49
ag51
ag52
ag53
ag54
ag55
ag57
ag59
ag156
ag61
ag62
ag63
ag66
ag67
ag71
ag72
ag76
ag77
ag80
ag81
ag84
ag86
ag87
ag88
ag89
ag90
ag158
ag92
ag93
ag191
ag101
ag104
ag105
ag106
ag110
ag112
ag113
ag114
ag116
ag117
ag118
ag121
ag122
ag123
ag179
ag125
ag126
ag161
ag130
ag131
ag165
atbsg136
NstRp554
ag2
(g3
(dp555
g5
g6
(g7
(I0
tS'b'
tRp556
(I1
(I83
tg10
I00
(lp557
g12
ag172
ag15
ag16
ag18
ag19
ag20
ag149
ag150
ag23
ag24
ag25
ag26
ag27
ag28
ag30
ag31
ag32
ag34
ag35
ag36
ag37
ag38
ag141
ag39
ag40
ag41
ag42
ag43
ag44
ag45
ag46
ag153
ag49
ag51
ag52
ag53
ag54
ag55
ag154
ag57
ag59
ag156
ag60
ag61
ag62
ag63
ag66
ag68
ag71
ag73
ag76
ag79
ag80
ag81
ag83
ag86
ag87
ag88
ag90
ag93
ag94
ag97
ag98
ag99
ag101
ag102
ag103
ag105
ag106
ag107
ag109
ag110
ag111
ag114
ag117
ag118
ag121
ag122
ag123
ag179
ag126
ag163
atbsg136
NstRp558
ag2
(g3
(dp559
g5
g6
(g7
(I0
tS'b'
tRp560
(I1
(I42
tg10
I00
(lp561
g16
ag18
ag20
ag24
ag34
ag38
ag39
ag40
ag41
ag42
ag43
ag45
ag46
ag47
ag51
ag52
ag55
ag57
ag59
ag61
ag66
ag71
ag76
ag77
ag80
ag81
ag83
ag86
ag87
ag90
ag92
ag98
ag102
ag103
ag106
ag113
ag114
ag116
ag118
ag121
ag122
ag123
atbsg136
NstRp562
ag2
(g3
(dp563
g5
g6
(g7
(I0
tS'b'
tRp564
(I1
(I83
tg10
I00
(lp565
g147
ag14
ag15
ag16
ag17
ag148
ag20
ag23
ag24
ag26
ag27
ag32
ag34
ag35
ag36
ag37
ag38
ag39
ag40
ag41
ag42
ag43
ag44
ag45
ag46
ag47
ag51
ag52
ag53
ag54
ag55
ag56
ag57
ag58
ag59
ag61
ag62
ag63
ag64
ag66
ag68
ag71
ag75
ag76
ag77
ag79
ag80
ag81
ag83
ag84
ag86
ag87
ag90
ag91
ag92
ag93
ag96
ag98
ag100
ag101
ag102
ag106
ag107
ag109
ag110
ag111
ag112
ag113
ag115
ag116
ag117
ag118
ag119
ag121
ag122
ag123
ag179
ag126
ag162
ag129
ag131
ag180
ag181
atbsg136
NstRp566
ag2
(g3
(dp567
g5
g6
(g7
(I0
tS'b'
tRp568
(I1
(I42
tg10
I00
(lp569
g16
ag17
ag20
ag24
ag29
ag33
ag34
ag35
ag37
ag38
ag141
ag39
ag40
ag41
ag44
ag45
ag46
ag49
ag51
ag52
ag57
ag59
ag62
ag64
ag68
ag78
ag80
ag86
ag87
ag90
ag96
ag190
ag101
ag105
ag110
ag112
ag114
ag118
ag121
ag122
ag123
ag124
atbsg136
NstRp570
ag2
(g3
(dp571
g5
g6
(g7
(I0
tS'b'
tRp572
(I1
(I83
tg10
I00
(lp573
g13
ag172
ag16
ag18
ag20
ag150
ag24
ag26
ag28
ag32
ag33
ag34
ag37
ag38
ag39
ag40
ag41
ag42
ag43
ag44
ag45
ag46
ag153
ag49
ag51
ag52
ag53
ag54
ag55
ag56
ag57
ag59
ag156
ag61
ag62
ag64
ag66
ag67
ag68
ag71
ag72
ag174
ag75
ag76
ag77
ag79
ag80
ag81
ag82
ag83
ag85
ag86
ag87
ag88
ag89
ag90
ag91
ag92
ag93
ag95
ag96
ag98
ag101
ag102
ag105
ag106
ag107
ag109
ag110
ag111
ag113
ag114
ag116
ag118
ag121
ag122
ag123
ag125
ag126
ag164
ag130
ag131
ag132
atbsg136
NstRp574
a.