(lp1
cpandas.core.indexes.base
_new_Index
p2
(cpandas.core.indexes.base
Index
p3
(dp4
S'data'
p5
cnumpy.core.multiarray
_reconstruct
p6
(cnumpy
ndarray
p7
(I0
tS'b'
tRp8
(I1
(I124
tcnumpy
dtype
p9
(S'O8'
I0
I1
tRp10
(I3
S'|'
NNNI-1
I-1
I63
tbI00
(lp11
S'ABILH002'
p12
aS'ABILH003'
p13
aS'ABILH005'
p14
aS'ABILH006'
p15
aS'ABILH007'
p16
aS'ABILH008'
p17
aS'ABILH009'
p18
aS'ABILH011'
p19
aS'ABILH012'
p20
aS'ABILH013'
p21
aS'ABILH014'
p22
aS'ABILH015'
p23
aS'ABILH017'
p24
aS'ABILH018'
p25
aS'ABILH019'
p26
aS'ABILH020'
p27
aS'ABILH021'
p28
aS'ABILH022'
p29
aS'ABILHSUB1'
p30
aS'ABILHTOT'
p31
aS'FIM (002'
p32
aS'FIM (003'
p33
aS'FIM (004'
p34
aS'FIM (005'
p35
aS'FIM (006'
p36
aS'FIM (008'
p37
aS'FIM (010'
p38
aS'FIM (011'
p39
aS'FIM (012'
p40
aS'FIM (013'
p41
aS'FIM (014'
p42
aS'FIM (015'
p43
aS'FIM (016'
p44
aS'FIM (017'
p45
aS'FIM (019'
p46
aS'FIM (SUB2'
p47
aS'FIM (SUB3'
p48
aS'FIM (SUB5'
p49
aS'FIM (SUB6'
p50
aS'FIM (TOT'
p51
aS'HADS 002'
p52
aS'HADS 004'
p53
aS'HADS 005'
p54
aS'HADS 006'
p55
aS'HADS 007'
p56
aS'HADS 008'
p57
aS'HADS 011'
p58
aS'HADS 012'
p59
aS'HADS 013'
p60
aS'HADS 014'
p61
aS'HADS SUB1'
p62
aS'HADS SUB2'
p63
aS'HEIG'
p64
aS'ISTRU'
p65
aS'LIFE 001'
p66
aS'LIFE 002'
p67
aS'LIFE 004'
p68
aS'LIFE 005'
p69
aS'LIFE 006'
p70
aS'LIFE 008'
p71
aS'LIFE 009'
p72
aS'LIFE 010'
p73
aS'LIFE 011'
p74
aS'LIFE TOT'
p75
aS'MFIS 001'
p76
aS'MFIS 002'
p77
aS'MFIS 003'
p78
aS'MFIS 006'
p79
aS'MFIS 007'
p80
aS'MFIS 008'
p81
aS'MFIS 009'
p82
aS'MFIS 010'
p83
aS'MFIS 011'
p84
aS'MFIS 012'
p85
aS'MFIS 013'
p86
aS'MFIS 014'
p87
aS'MFIS 016'
p88
aS'MFIS 017'
p89
aS'MFIS 019'
p90
aS'MFIS 020'
p91
aS'MFIS SUB1'
p92
aS'MFIS SUB2'
p93
aS'MFIS SUB3'
p94
aS'MOCA 001'
p95
aS'MOCA 002'
p96
aS'MOCA 003'
p97
aS'MOCA 004'
p98
aS'MOCA 005'
p99
aS'MOCA 006'
p100
aS'MOCA 008'
p101
aS'MOCA 009'
p102
aS'MOCA 010'
p103
aS'MOCA 011'
p104
aS'OAB-Q001'
p105
aS'OAB-Q002'
p106
aS'OAB-Q003'
p107
aS'OAB-Q004'
p108
aS'OAB-Q005'
p109
aS'OAB-Q006'
p110
aS'OAB-Q007'
p111
aS'OAB-Q008'
p112
aS'PASATTOT'
p113
aS'RELAPS'
p114
aS'SDMT TOT'
p115
aS'EDINB001_1'
p116
aS'EDINB001_2'
p117
aS'EDINB002_0'
p118
aS'EDINB002_1'
p119
aS'EDINB002_2'
p120
aS'EDINB003_0'
p121
aS'EDINB003_1'
p122
aS'EDINB003_2'
p123
aS'EDINB004_0'
p124
aS'EDINB004_1'
p125
aS'EDINB004_2'
p126
aS'EDINB005_0'
p127
aS'EDINB005_1'
p128
aS'EDINB006_1'
p129
aS'EDINB006_2'
p130
aS'EDINB009_0'
p131
aS'EDINB009_1'
p132
aS'EDINB009_2'
p133
aS'EDINB010_0'
p134
aS'EDINB010_1'
p135
atbsS'name'
p136
NstRp137
ag2
(g3
(dp138
g5
g6
(g7
(I0
tS'b'
tRp139
(I1
(I42
tg10
I00
(lp140
g20
ag25
ag28
ag33
ag36
ag37
ag38
ag39
ag40
ag41
ag42
ag44
ag45
ag46
ag48
ag49
ag50
ag52
aS'HADS 003'
p141
ag54
ag55
ag56
ag59
ag60
ag68
ag73
ag77
ag82
ag90
ag95
ag100
ag103
ag104
ag106
ag110
ag111
ag113
ag115
aS'WEIG'
p142
ag116
ag117
ag118
atbsg136
NstRp143
ag2
(g3
(dp144
g5
g6
(g7
(I0
tS'b'
tRp145
(I1
(I83
tg10
I00
(lp146
S'ABILH001'
p147
ag13
ag16
ag18
ag19
ag20
ag23
aS'ABILH016'
p148
ag25
ag26
ag27
ag28
aS'ABILH023'
p149
aS'FIM (001'
p150
ag32
ag33
ag35
ag36
ag37
aS'FIM (009'
p151
ag38
ag39
ag40
ag41
ag42
ag43
ag44
ag45
aS'FIM (018'
p152
ag46
ag49
ag50
aS'HADS 001'
p153
ag52
ag141
ag53
ag54
ag55
ag56
ag57
aS'HADS 009'
p154
aS'HADS 010'
p155
ag58
ag59
ag60
ag62
ag63
aS'HADS TOT'
p156
ag64
ag66
ag67
ag72
ag75
ag77
ag78
ag81
ag82
ag85
ag86
ag87
ag88
aS'MFIS 018'
p157
ag90
ag91
ag93
ag94
ag101
ag102
ag106
ag108
ag109
ag111
ag115
aS'EDINB001_0'
p158
ag116
ag117
ag118
ag119
ag120
ag123
ag127
ag130
ag134
atbsg136
NstRp159
ag2
(g3
(dp160
g5
g6
(g7
(I0
tS'b'
tRp161
(I1
(I42
tg10
I00
(lp162
g14
ag15
ag16
ag18
ag19
ag20
ag21
ag24
ag25
ag28
ag32
ag36
ag37
ag151
ag38
ag39
ag40
ag43
ag44
ag45
ag48
ag49
ag50
ag51
ag52
ag54
ag56
ag60
ag62
ag63
ag156
ag72
ag74
ag75
ag77
ag87
ag93
aS'MFIS TOT'
p163
ag115
ag116
ag117
ag120
atbsg136
NstRp164
ag2
(g3
(dp165
g5
g6
(g7
(I0
tS'b'
tRp166
(I1
(I42
tg10
I00
(lp167
g17
ag18
ag20
ag25
ag28
ag30
ag31
ag150
ag33
ag36
ag37
ag151
ag38
ag39
ag40
ag42
ag43
ag44
ag45
ag49
ag50
ag153
ag52
ag56
ag59
ag60
ag61
ag64
ag77
ag78
ag80
ag83
ag87
ag93
ag99
ag103
ag112
ag114
ag115
ag116
ag118
aS'EDINB007_1'
p168
atbsg136
NstRp169
ag2
(g3
(dp170
g5
g6
(g7
(I0
tS'b'
tRp171
(I1
(I42
tg10
I00
(lp172
g16
ag18
ag20
ag22
ag25
ag28
ag149
ag30
ag31
ag32
ag34
ag36
ag37
ag151
ag38
ag39
ag40
ag43
ag44
ag45
ag49
ag50
ag52
ag54
ag56
ag60
ag63
ag156
ag64
ag75
ag77
ag78
ag81
ag92
ag94
ag109
ag115
ag116
ag117
ag118
ag120
aS'EDINB005_2'
p173
atbsg136
NstRp174
ag2
(g3
(dp175
g5
g6
(g7
(I0
tS'b'
tRp176
(I1
(I124
tg10
I00
(lp177
g147
ag12
ag13
ag15
ag16
ag17
ag18
aS'ABILH010'
p178
ag19
ag20
ag21
ag22
ag23
ag24
ag25
ag26
ag27
ag28
ag29
ag149
ag30
ag31
ag150
ag32
ag33
ag35
ag36
ag37
ag38
ag39
ag40
ag41
ag42
ag43
ag44
ag45
ag46
ag47
ag48
ag49
ag50
ag51
ag153
ag52
ag53
ag54
ag55
ag56
ag57
ag154
ag155
ag58
ag59
ag60
ag61
ag62
ag63
ag64
ag66
ag67
aS'LIFE 003'
p179
ag68
ag69
aS'LIFE 007'
p180
ag71
ag72
ag73
ag74
ag75
ag76
ag77
ag78
aS'MFIS 004'
p181
aS'MFIS 005'
p182
ag79
ag81
ag82
ag83
ag85
ag86
ag87
ag89
ag90
aS'MFIS 021'
p183
ag92
ag93
ag94
ag95
ag96
ag97
ag99
ag100
aS'MOCA 007'
p184
ag101
ag102
ag103
ag104
ag106
ag107
ag108
ag109
ag113
ag114
ag115
ag142
ag116
ag117
ag118
ag119
ag121
ag122
ag123
ag124
ag125
ag126
ag127
aS'EDINB006_0'
p185
ag129
ag130
ag168
aS'EDINB008_0'
p186
ag132
ag133
ag134
atbsg136
NstRp187
ag2
(g3
(dp188
g5
g6
(g7
(I0
tS'b'
tRp189
(I1
(I165
tg10
I00
(lp190
g147
ag12
ag13
aS'ABILH004'
p191
ag14
ag15
ag16
ag17
ag18
ag178
ag19
ag20
ag21
ag22
ag23
ag148
ag24
ag25
ag26
ag27
ag28
ag29
ag149
ag30
ag31
aS'EDINBSUB1'
p192
aS'EDINBTOT'
p193
ag150
ag32
ag33
ag34
ag35
ag36
aS'FIM (007'
p194
ag37
ag151
ag38
ag39
ag40
ag41
ag42
ag43
ag44
ag45
ag152
ag46
aS'FIM (SUB1'
p195
ag47
ag48
aS'FIM (SUB4'
p196
ag49
ag50
ag51
ag153
ag52
ag141
ag53
ag54
ag55
ag56
ag57
ag154
ag155
ag58
ag59
ag60
ag61
ag62
ag63
ag156
ag64
ag65
ag66
ag67
ag179
ag68
ag69
ag70
ag180
ag71
ag72
ag73
ag74
ag75
ag76
ag77
ag78
ag181
ag182
ag79
ag80
ag81
ag82
ag83
ag84
ag85
ag86
ag87
aS'MFIS 015'
p197
ag88
ag89
ag157
ag90
ag91
ag183
ag92
ag93
ag94
ag163
ag95
ag96
ag97
ag98
ag99
ag100
ag184
ag101
ag102
ag103
ag104
aS'MOCA SUB1'
p198
aS'MOCA TOT'
p199
ag105
ag106
ag107
ag108
ag109
ag110
ag111
ag112
aS'OAB-QTOT'
p200
ag113
ag114
ag115
ag142
ag158
ag116
ag117
ag118
ag119
ag120
ag121
ag122
ag123
ag124
ag125
ag126
ag127
ag128
ag173
ag185
ag129
ag130
aS'EDINB007_0'
p201
ag168
aS'EDINB007_2'
p202
ag186
aS'EDINB008_1'
p203
aS'EDINB008_2'
p204
ag131
ag132
ag133
ag134
ag135
aS'EDINB010_2'
p205
atbsg136
NstRp206
ag2
(g3
(dp207
g5
g6
(g7
(I0
tS'b'
tRp208
(I1
(I165
tg10
I00
(lp209
g147
ag12
ag13
ag191
ag14
ag15
ag16
ag17
ag18
ag178
ag19
ag20
ag21
ag22
ag23
ag148
ag24
ag25
ag26
ag27
ag28
ag29
ag149
ag30
ag31
ag192
ag193
ag150
ag32
ag33
ag34
ag35
ag36
ag194
ag37
ag151
ag38
ag39
ag40
ag41
ag42
ag43
ag44
ag45
ag152
ag46
ag195
ag47
ag48
ag196
ag49
ag50
ag51
ag153
ag52
ag141
ag53
ag54
ag55
ag56
ag57
ag154
ag155
ag58
ag59
ag60
ag61
ag62
ag63
ag156
ag64
ag65
ag66
ag67
ag179
ag68
ag69
ag70
ag180
ag71
ag72
ag73
ag74
ag75
ag76
ag77
ag78
ag181
ag182
ag79
ag80
ag81
ag82
ag83
ag84
ag85
ag86
ag87
ag197
ag88
ag89
ag157
ag90
ag91
ag183
ag92
ag93
ag94
ag163
ag95
ag96
ag97
ag98
ag99
ag100
ag184
ag101
ag102
ag103
ag104
ag198
ag199
ag105
ag106
ag107
ag108
ag109
ag110
ag111
ag112
ag200
ag113
ag114
ag115
ag142
ag158
ag116
ag117
ag118
ag119
ag120
ag121
ag122
ag123
ag124
ag125
ag126
ag127
ag128
ag173
ag185
ag129
ag130
ag201
ag168
ag202
ag186
ag203
ag204
ag131
ag132
ag133
ag134
ag135
ag205
atbsg136
NstRp210
ag2
(g3
(dp211
g5
g6
(g7
(I0
tS'b'
tRp212
(I1
(I165
tg10
I00
(lp213
g147
ag12
ag13
ag191
ag14
ag15
ag16
ag17
ag18
ag178
ag19
ag20
ag21
ag22
ag23
ag148
ag24
ag25
ag26
ag27
ag28
ag29
ag149
ag30
ag31
ag192
ag193
ag150
ag32
ag33
ag34
ag35
ag36
ag194
ag37
ag151
ag38
ag39
ag40
ag41
ag42
ag43
ag44
ag45
ag152
ag46
ag195
ag47
ag48
ag196
ag49
ag50
ag51
ag153
ag52
ag141
ag53
ag54
ag55
ag56
ag57
ag154
ag155
ag58
ag59
ag60
ag61
ag62
ag63
ag156
ag64
ag65
ag66
ag67
ag179
ag68
ag69
ag70
ag180
ag71
ag72
ag73
ag74
ag75
ag76
ag77
ag78
ag181
ag182
ag79
ag80
ag81
ag82
ag83
ag84
ag85
ag86
ag87
ag197
ag88
ag89
ag157
ag90
ag91
ag183
ag92
ag93
ag94
ag163
ag95
ag96
ag97
ag98
ag99
ag100
ag184
ag101
ag102
ag103
ag104
ag198
ag199
ag105
ag106
ag107
ag108
ag109
ag110
ag111
ag112
ag200
ag113
ag114
ag115
ag142
ag158
ag116
ag117
ag118
ag119
ag120
ag121
ag122
ag123
ag124
ag125
ag126
ag127
ag128
ag173
ag185
ag129
ag130
ag201
ag168
ag202
ag186
ag203
ag204
ag131
ag132
ag133
ag134
ag135
ag205
atbsg136
NstRp214
ag2
(g3
(dp215
g5
g6
(g7
(I0
tS'b'
tRp216
(I1
(I42
tg10
I00
(lp217
g13
ag191
ag16
ag18
ag20
ag23
ag25
ag28
ag30
ag31
ag32
ag33
ag34
ag36
ag151
ag38
ag39
ag40
ag44
ag45
ag48
ag49
ag50
ag52
ag54
ag56
ag155
ag60
ag62
ag63
ag156
ag77
ag82
ag87
ag197
ag91
ag92
ag163
ag109
ag115
ag116
ag117
atbsg136
NstRp218
ag2
(g3
(dp219
g5
g6
(g7
(I0
tS'b'
tRp220
(I1
(I42
tg10
I00
(lp221
g16
ag18
ag20
ag23
ag25
ag26
ag28
ag30
ag31
ag32
ag33
ag34
ag36
ag151
ag38
ag39
ag40
ag44
ag45
ag48
ag49
ag50
ag52
ag54
ag56
ag60
ag62
ag156
ag64
ag75
ag77
ag78
ag80
ag81
ag83
ag85
ag87
ag91
ag94
ag109
ag111
ag115
atbsg136
NstRp222
ag2
(g3
(dp223
g5
g6
(g7
(I0
tS'b'
tRp224
(I1
(I165
tg10
I00
(lp225
g147
ag12
ag13
ag191
ag14
ag15
ag16
ag17
ag18
ag178
ag19
ag20
ag21
ag22
ag23
ag148
ag24
ag25
ag26
ag27
ag28
ag29
ag149
ag30
ag31
ag192
ag193
ag150
ag32
ag33
ag34
ag35
ag36
ag194
ag37
ag151
ag38
ag39
ag40
ag41
ag42
ag43
ag44
ag45
ag152
ag46
ag195
ag47
ag48
ag196
ag49
ag50
ag51
ag153
ag52
ag141
ag53
ag54
ag55
ag56
ag57
ag154
ag155
ag58
ag59
ag60
ag61
ag62
ag63
ag156
ag64
ag65
ag66
ag67
ag179
ag68
ag69
ag70
ag180
ag71
ag72
ag73
ag74
ag75
ag76
ag77
ag78
ag181
ag182
ag79
ag80
ag81
ag82
ag83
ag84
ag85
ag86
ag87
ag197
ag88
ag89
ag157
ag90
ag91
ag183
ag92
ag93
ag94
ag163
ag95
ag96
ag97
ag98
ag99
ag100
ag184
ag101
ag102
ag103
ag104
ag198
ag199
ag105
ag106
ag107
ag108
ag109
ag110
ag111
ag112
ag200
ag113
ag114
ag115
ag142
ag158
ag116
ag117
ag118
ag119
ag120
ag121
ag122
ag123
ag124
ag125
ag126
ag127
ag128
ag173
ag185
ag129
ag130
ag201
ag168
ag202
ag186
ag203
ag204
ag131
ag132
ag133
ag134
ag135
ag205
atbsg136
NstRp226
ag2
(g3
(dp227
g5
g6
(g7
(I0
tS'b'
tRp228
(I1
(I42
tg10
I00
(lp229
g16
ag18
ag20
ag25
ag27
ag28
ag30
ag31
ag32
ag33
ag34
ag36
ag37
ag151
ag38
ag39
ag40
ag43
ag44
ag45
ag49
ag50
ag52
ag141
ag56
ag64
ag66
ag72
ag74
ag75
ag76
ag77
ag78
ag87
ag91
ag99
ag107
ag108
ag111
ag115
ag117
ag123
atbsg136
NstRp230
ag2
(g3
(dp231
g5
g6
(g7
(I0
tS'b'
tRp232
(I1
(I42
tg10
I00
(lp233
g13
ag15
ag18
ag20
ag24
ag25
ag27
ag28
ag150
ag32
ag34
ag35
ag36
ag37
ag151
ag38
ag39
ag40
ag43
ag44
ag45
ag49
ag50
ag52
ag54
ag56
ag60
ag156
ag75
ag77
ag78
ag85
ag163
ag99
ag108
ag109
ag115
ag116
ag117
ag123
ag125
ag130
atbsg136
NstRp234
ag2
(g3
(dp235
g5
g6
(g7
(I0
tS'b'
tRp236
(I1
(I165
tg10
I00
(lp237
g147
ag12
ag13
ag191
ag14
ag15
ag16
ag17
ag18
ag178
ag19
ag20
ag21
ag22
ag23
ag148
ag24
ag25
ag26
ag27
ag28
ag29
ag149
ag30
ag31
ag192
ag193
ag150
ag32
ag33
ag34
ag35
ag36
ag194
ag37
ag151
ag38
ag39
ag40
ag41
ag42
ag43
ag44
ag45
ag152
ag46
ag195
ag47
ag48
ag196
ag49
ag50
ag51
ag153
ag52
ag141
ag53
ag54
ag55
ag56
ag57
ag154
ag155
ag58
ag59
ag60
ag61
ag62
ag63
ag156
ag64
ag65
ag66
ag67
ag179
ag68
ag69
ag70
ag180
ag71
ag72
ag73
ag74
ag75
ag76
ag77
ag78
ag181
ag182
ag79
ag80
ag81
ag82
ag83
ag84
ag85
ag86
ag87
ag197
ag88
ag89
ag157
ag90
ag91
ag183
ag92
ag93
ag94
ag163
ag95
ag96
ag97
ag98
ag99
ag100
ag184
ag101
ag102
ag103
ag104
ag198
ag199
ag105
ag106
ag107
ag108
ag109
ag110
ag111
ag112
ag200
ag113
ag114
ag115
ag142
ag158
ag116
ag117
ag118
ag119
ag120
ag121
ag122
ag123
ag124
ag125
ag126
ag127
ag128
ag173
ag185
ag129
ag130
ag201
ag168
ag202
ag186
ag203
ag204
ag131
ag132
ag133
ag134
ag135
ag205
atbsg136
NstRp238
ag2
(g3
(dp239
g5
g6
(g7
(I0
tS'b'
tRp240
(I1
(I42
tg10
I00
(lp241
g16
ag20
ag25
ag26
ag28
ag29
ag32
ag33
ag34
ag36
ag37
ag151
ag38
ag39
ag40
ag44
ag45
ag49
ag50
ag51
ag52
ag53
ag54
ag56
ag60
ag63
ag156
ag64
ag75
ag77
ag81
ag197
ag91
ag92
ag93
ag94
ag99
ag108
ag109
ag115
ag117
ag123
atbsg136
NstRp242
ag2
(g3
(dp243
g5
g6
(g7
(I0
tS'b'
tRp244
(I1
(I83
tg10
I00
(lp245
g147
ag12
ag17
ag18
ag20
ag22
ag148
ag24
ag25
ag26
ag27
ag28
ag29
ag149
ag30
ag31
ag150
ag32
ag33
ag34
ag36
ag37
ag151
ag38
ag39
ag40
ag41
ag42
ag43
ag44
ag45
ag152
ag48
ag49
ag50
ag52
ag54
ag56
ag155
ag59
ag60
ag61
ag63
ag156
ag68
ag73
ag77
ag78
ag79
ag80
ag81
ag83
ag85
ag86
ag87
ag89
ag157
ag90
ag91
ag183
ag92
ag94
ag95
ag99
ag102
ag103
ag104
ag109
ag110
ag111
ag114
ag115
ag116
ag117
ag118
ag120
ag123
ag125
ag130
ag201
ag186
ag131
ag135
atbsg136
NstRp246
ag2
(g3
(dp247
g5
g6
(g7
(I0
tS'b'
tRp248
(I1
(I42
tg10
I00
(lp249
g16
ag18
ag20
ag23
ag25
ag27
ag28
ag32
ag33
ag36
ag37
ag38
ag39
ag40
ag41
ag42
ag44
ag45
ag49
ag50
ag52
ag54
ag56
ag59
ag60
ag64
ag68
ag77
ag78
ag79
ag82
ag90
ag95
ag99
ag103
ag109
ag111
ag115
ag116
ag117
ag118
ag123
atbsg136
NstRp250
ag2
(g3
(dp251
g5
g6
(g7
(I0
tS'b'
tRp252
(I1
(I42
tg10
I00
(lp253
g13
ag16
ag20
ag22
ag24
ag25
ag28
ag149
ag30
ag31
ag32
ag33
ag36
ag37
ag151
ag38
ag39
ag40
ag43
ag44
ag45
ag152
ag46
ag49
ag50
ag52
ag54
ag56
ag154
ag60
ag62
ag156
ag77
ag78
ag94
ag103
ag115
ag116
ag117
ag119
ag120
ag168
atbsg136
NstRp254
ag2
(g3
(dp255
g5
g6
(g7
(I0
tS'b'
tRp256
(I1
(I42
tg10
I00
(lp257
g16
ag18
ag19
ag20
ag23
ag24
ag25
ag28
ag30
ag31
ag33
ag34
ag36
ag37
ag38
ag39
ag40
ag43
ag44
ag49
ag50
ag52
ag56
ag60
ag64
ag68
ag73
ag77
ag78
ag79
ag81
ag82
ag90
ag91
ag95
ag99
ag109
ag115
ag116
ag117
ag118
ag120
atbsg136
NstRp258
ag2
(g3
(dp259
g5
g6
(g7
(I0
tS'b'
tRp260
(I1
(I42
tg10
I00
(lp261
g16
ag20
ag23
ag25
ag27
ag28
ag33
ag36
ag37
ag38
ag39
ag40
ag42
ag43
ag44
ag45
ag49
ag50
ag52
ag53
ag56
ag59
ag60
ag64
ag68
ag71
ag73
ag74
ag75
ag77
ag78
ag79
ag83
ag91
ag95
ag108
ag109
ag114
ag115
ag116
ag118
ag173
atbsg136
NstRp262
ag2
(g3
(dp263
g5
g6
(g7
(I0
tS'b'
tRp264
(I1
(I42
tg10
I00
(lp265
g16
ag18
ag19
ag20
ag25
ag27
ag30
ag31
ag32
ag33
ag34
ag36
ag37
ag151
ag38
ag39
ag40
ag41
ag43
ag44
ag45
ag152
ag49
ag50
ag52
ag54
ag56
ag60
ag72
ag75
ag77
ag78
ag85
ag87
ag93
ag102
ag115
ag116
ag117
ag118
ag120
ag125
atbsg136
NstRp266
ag2
(g3
(dp267
g5
g6
(g7
(I0
tS'b'
tRp268
(I1
(I42
tg10
I00
(lp269
g16
ag18
ag20
ag24
ag25
ag28
ag33
ag34
ag35
ag36
ag37
ag38
ag39
ag40
ag41
ag42
ag44
ag45
ag152
ag46
ag49
ag50
ag56
ag60
ag61
ag68
ag73
ag77
ag78
ag79
ag82
ag87
ag197
ag95
ag108
ag109
ag111
ag114
ag115
ag116
ag117
ag120
atbsg136
NstRp270
ag2
(g3
(dp271
g5
g6
(g7
(I0
tS'b'
tRp272
(I1
(I124
tg10
I00
(lp273
g147
ag13
ag191
ag14
ag15
ag16
ag17
ag18
ag178
ag19
ag20
ag21
ag22
ag25
ag26
ag27
ag28
ag149
ag30
ag31
ag150
ag32
ag33
ag34
ag36
ag194
ag37
ag151
ag38
ag39
ag40
ag41
ag42
ag43
ag44
ag45
ag46
ag195
ag47
ag48
ag49
ag50
ag51
ag153
ag52
ag141
ag53
ag54
ag55
ag56
ag155
ag58
ag59
ag60
ag61
ag62
ag156
ag64
ag65
ag66
ag179
ag68
ag69
ag180
ag71
ag72
ag73
ag76
ag77
ag78
ag79
ag80
ag81
ag82
ag83
ag85
ag87
ag197
ag88
ag90
ag91
ag183
ag92
ag93
ag94
ag95
ag99
ag100
ag184
ag101
ag102
ag103
ag104
ag107
ag108
ag109
ag110
ag111
ag112
ag113
ag114
ag115
ag142
ag158
ag116
ag117
ag118
ag122
ag123
ag124
ag125
ag126
ag185
ag129
ag130
ag201
ag168
ag202
ag186
ag203
ag132
ag133
ag134
ag135
atbsg136
NstRp274
ag2
(g3
(dp275
g5
g6
(g7
(I0
tS'b'
tRp276
(I1
(I42
tg10
I00
(lp277
g17
ag18
ag20
ag25
ag28
ag33
ag34
ag35
ag36
ag37
ag38
ag39
ag40
ag41
ag42
ag44
ag45
ag46
ag48
ag49
ag50
ag51
ag52
ag56
ag59
ag60
ag64
ag65
ag68
ag73
ag74
ag77
ag78
ag82
ag83
ag87
ag95
ag102
ag115
ag116
ag117
ag118
atbsg136
NstRp278
ag2
(g3
(dp279
g5
g6
(g7
(I0
tS'b'
tRp280
(I1
(I42
tg10
I00
(lp281
g147
ag12
ag17
ag18
ag20
ag23
ag25
ag27
ag28
ag32
ag33
ag35
ag36
ag37
ag151
ag38
ag39
ag40
ag44
ag45
ag49
ag50
ag52
ag54
ag56
ag154
ag58
ag60
ag62
ag156
ag65
ag77
ag82
ag87
ag157
ag92
ag110
ag115
ag116
ag117
ag120
ag123
atbsg136
NstRp282
ag2
(g3
(dp283
g5
g6
(g7
(I0
tS'b'
tRp284
(I1
(I42
tg10
I00
(lp285
g18
ag20
ag148
ag25
ag27
ag28
ag30
ag31
ag150
ag32
ag33
ag36
ag37
ag151
ag38
ag39
ag40
ag42
ag43
ag44
ag45
ag49
ag50
ag52
ag56
ag59
ag61
ag68
ag77
ag83
ag90
ag92
ag99
ag106
ag108
ag114
ag115
ag116
ag117
ag118
ag123
ag130
atbsg136
NstRp286
ag2
(g3
(dp287
g5
g6
(g7
(I0
tS'b'
tRp288
(I1
(I42
tg10
I00
(lp289
g20
ag25
ag28
ag33
ag36
ag37
ag151
ag38
ag39
ag40
ag44
ag45
ag196
ag49
ag50
ag153
ag52
ag141
ag53
ag54
ag56
ag57
ag154
ag155
ag58
ag60
ag62
ag63
ag156
ag181
ag182
ag79
ag80
ag83
ag85
ag86
ag157
ag91
ag183
ag92
ag93
ag115
atbsg136
NstRp290
ag2
(g3
(dp291
g5
g6
(g7
(I0
tS'b'
tRp292
(I1
(I42
tg10
I00
(lp293
g13
ag16
ag18
ag178
ag20
ag24
ag25
ag26
ag27
ag32
ag33
ag35
ag36
ag37
ag38
ag39
ag40
ag42
ag43
ag44
ag45
ag49
ag50
ag52
ag141
ag54
ag56
ag59
ag73
ag77
ag78
ag80
ag83
ag102
ag103
ag104
ag111
ag114
ag115
ag116
ag118
ag123
atbsg136
NstRp294
ag2
(g3
(dp295
g5
g6
(g7
(I0
tS'b'
tRp296
(I1
(I42
tg10
I00
(lp297
g16
ag18
ag20
ag21
ag25
ag30
ag31
ag150
ag32
ag33
ag36
ag37
ag151
ag38
ag39
ag40
ag42
ag43
ag44
ag45
ag49
ag50
ag153
ag52
ag141
ag54
ag56
ag154
ag58
ag60
ag62
ag156
ag182
ag81
ag92
ag94
ag163
ag109
ag111
ag115
ag117
ag120
atbsg136
NstRp298
ag2
(g3
(dp299
g5
g6
(g7
(I0
tS'b'
tRp300
(I1
(I165
tg10
I00
(lp301
g147
ag12
ag13
ag191
ag14
ag15
ag16
ag17
ag18
ag178
ag19
ag20
ag21
ag22
ag23
ag148
ag24
ag25
ag26
ag27
ag28
ag29
ag149
ag30
ag31
ag192
ag193
ag150
ag32
ag33
ag34
ag35
ag36
ag194
ag37
ag151
ag38
ag39
ag40
ag41
ag42
ag43
ag44
ag45
ag152
ag46
ag195
ag47
ag48
ag196
ag49
ag50
ag51
ag153
ag52
ag141
ag53
ag54
ag55
ag56
ag57
ag154
ag155
ag58
ag59
ag60
ag61
ag62
ag63
ag156
ag64
ag65
ag66
ag67
ag179
ag68
ag69
ag70
ag180
ag71
ag72
ag73
ag74
ag75
ag76
ag77
ag78
ag181
ag182
ag79
ag80
ag81
ag82
ag83
ag84
ag85
ag86
ag87
ag197
ag88
ag89
ag157
ag90
ag91
ag183
ag92
ag93
ag94
ag163
ag95
ag96
ag97
ag98
ag99
ag100
ag184
ag101
ag102
ag103
ag104
ag198
ag199
ag105
ag106
ag107
ag108
ag109
ag110
ag111
ag112
ag200
ag113
ag114
ag115
ag142
ag158
ag116
ag117
ag118
ag119
ag120
ag121
ag122
ag123
ag124
ag125
ag126
ag127
ag128
ag173
ag185
ag129
ag130
ag201
ag168
ag202
ag186
ag203
ag204
ag131
ag132
ag133
ag134
ag135
ag205
atbsg136
NstRp302
ag2
(g3
(dp303
g5
g6
(g7
(I0
tS'b'
tRp304
(I1
(I42
tg10
I00
(lp305
g15
ag16
ag18
ag20
ag24
ag25
ag28
ag150
ag32
ag33
ag36
ag37
ag151
ag38
ag39
ag40
ag44
ag45
ag46
ag48
ag49
ag50
ag52
ag54
ag56
ag59
ag60
ag156
ag64
ag73
ag77
ag78
ag80
ag87
ag90
ag95
ag99
ag103
ag114
ag115
ag116
ag117
atbsg136
NstRp306
ag2
(g3
(dp307
g5
g6
(g7
(I0
tS'b'
tRp308
(I1
(I42
tg10
I00
(lp309
g15
ag16
ag18
ag20
ag25
ag26
ag33
ag35
ag37
ag38
ag39
ag40
ag41
ag42
ag44
ag45
ag49
ag50
ag51
ag52
ag55
ag56
ag58
ag60
ag62
ag64
ag68
ag73
ag74
ag77
ag82
ag87
ag90
ag95
ag104
ag109
ag113
ag114
ag115
ag116
ag117
ag118
atbsg136
NstRp310
ag2
(g3
(dp311
g5
g6
(g7
(I0
tS'b'
tRp312
(I1
(I42
tg10
I00
(lp313
g17
ag20
ag23
ag25
ag29
ag32
ag33
ag36
ag37
ag38
ag39
ag40
ag41
ag42
ag44
ag45
ag49
ag50
ag52
ag54
ag56
ag59
ag60
ag62
ag67
ag68
ag73
ag77
ag81
ag87
ag90
ag95
ag99
ag109
ag113
ag115
ag142
ag116
ag117
ag118
ag123
ag130
atbsg136
NstRp314
ag2
(g3
(dp315
g5
g6
(g7
(I0
tS'b'
tRp316
(I1
(I42
tg10
I00
(lp317
g16
ag20
ag23
ag24
ag25
ag27
ag28
ag32
ag33
ag36
ag37
ag38
ag39
ag40
ag42
ag44
ag45
ag152
ag49
ag50
ag52
ag54
ag56
ag59
ag60
ag61
ag64
ag68
ag73
ag77
ag78
ag79
ag82
ag87
ag90
ag95
ag99
ag115
ag116
ag117
ag118
ag123
atbsg136
NstRp318
ag2
(g3
(dp319
g5
g6
(g7
(I0
tS'b'
tRp320
(I1
(I1
tg10
I00
(lp321
g40
atbsg136
NstRp322
ag2
(g3
(dp323
g5
g6
(g7
(I0
tS'b'
tRp324
(I1
(I42
tg10
I00
(lp325
g16
ag18
ag20
ag24
ag25
ag28
ag33
ag36
ag37
ag38
ag39
ag40
ag41
ag42
ag44
ag45
ag48
ag49
ag50
ag153
ag52
ag54
ag56
ag59
ag64
ag68
ag69
ag73
ag74
ag77
ag78
ag87
ag90
ag99
ag103
ag106
ag109
ag114
ag115
ag116
ag118
ag125
atbsg136
NstRp326
ag2
(g3
(dp327
g5
g6
(g7
(I0
tS'b'
tRp328
(I1
(I124
tg10
I00
(lp329
g147
ag191
ag15
ag16
ag17
ag18
ag178
ag20
ag23
ag24
ag25
ag26
ag27
ag28
ag30
ag31
ag150
ag32
ag33
ag35
ag36
ag37
ag151
ag38
ag39
ag40
ag41
ag42
ag43
ag44
ag45
ag46
ag47
ag48
ag196
ag49
ag50
ag51
ag153
ag52
ag141
ag53
ag54
ag55
ag56
ag155
ag58
ag59
ag60
ag61
ag62
ag64
ag65
ag66
ag67
ag68
ag69
ag70
ag180
ag72
ag73
ag74
ag75
ag76
ag77
ag78
ag181
ag182
ag79
ag80
ag81
ag82
ag84
ag85
ag86
ag87
ag197
ag89
ag157
ag90
ag92
ag93
ag94
ag95
ag97
ag98
ag99
ag184
ag102
ag103
ag104
ag105
ag106
ag107
ag108
ag109
ag110
ag111
ag112
ag113
ag114
ag115
ag142
ag158
ag116
ag117
ag118
ag119
ag120
ag122
ag123
ag125
ag127
ag173
ag129
ag130
ag168
ag202
ag186
ag203
ag204
ag134
ag135
ag205
atbsg136
NstRp330
ag2
(g3
(dp331
g5
g6
(g7
(I0
tS'b'
tRp332
(I1
(I42
tg10
I00
(lp333
g16
ag18
ag23
ag24
ag25
ag28
ag30
ag31
ag32
ag36
ag37
ag151
ag38
ag39
ag40
ag43
ag44
ag45
ag152
ag49
ag51
ag52
ag54
ag56
ag58
ag60
ag62
ag156
ag182
ag81
ag85
ag197
ag88
ag157
ag91
ag92
ag93
ag94
ag163
ag115
ag117
ag120
atbsg136
NstRp334
ag2
(g3
(dp335
g5
g6
(g7
(I0
tS'b'
tRp336
(I1
(I42
tg10
I00
(lp337
g16
ag17
ag18
ag20
ag22
ag25
ag27
ag28
ag149
ag30
ag31
ag32
ag33
ag34
ag36
ag37
ag151
ag38
ag39
ag40
ag43
ag44
ag45
ag49
ag50
ag52
ag54
ag56
ag60
ag62
ag156
ag75
ag78
ag81
ag85
ag92
ag94
ag102
ag109
ag115
ag117
ag132
atbsg136
NstRp338
ag2
(g3
(dp339
g5
g6
(g7
(I0
tS'b'
tRp340
(I1
(I42
tg10
I00
(lp341
g16
ag18
ag20
ag22
ag23
ag24
ag25
ag28
ag29
ag30
ag31
ag32
ag33
ag36
ag37
ag151
ag38
ag39
ag40
ag41
ag44
ag45
ag49
ag50
ag52
ag54
ag56
ag63
ag64
ag73
ag81
ag85
ag90
ag183
ag92
ag103
ag109
ag111
ag114
ag115
ag118
ag130
atbsg136
NstRp342
ag2
(g3
(dp343
g5
g6
(g7
(I0
tS'b'
tRp344
(I1
(I124
tg10
I00
(lp345
g147
ag12
ag13
ag191
ag14
ag16
ag17
ag18
ag178
ag20
ag21
ag23
ag148
ag24
ag25
ag26
ag27
ag28
ag29
ag30
ag31
ag150
ag32
ag33
ag34
ag35
ag36
ag194
ag37
ag151
ag38
ag39
ag40
ag42
ag43
ag44
ag45
ag152
ag46
ag47
ag48
ag196
ag49
ag50
ag51
ag153
ag52
ag53
ag54
ag56
ag57
ag154
ag155
ag58
ag60
ag62
ag63
ag156
ag64
ag66
ag69
ag70
ag72
ag73
ag74
ag75
ag77
ag78
ag181
ag182
ag79
ag80
ag81
ag82
ag83
ag85
ag87
ag197
ag88
ag89
ag157
ag90
ag91
ag92
ag93
ag94
ag163
ag95
ag98
ag99
ag184
ag102
ag103
ag104
ag106
ag107
ag108
ag109
ag110
ag111
ag114
ag115
ag142
ag158
ag116
ag117
ag118
ag119
ag120
ag121
ag122
ag123
ag124
ag125
ag128
ag173
ag185
ag129
ag130
ag201
ag186
ag203
ag131
ag134
atbsg136
NstRp346
ag2
(g3
(dp347
g5
g6
(g7
(I0
tS'b'
tRp348
(I1
(I42
tg10
I00
(lp349
g15
ag16
ag18
ag20
ag23
ag148
ag25
ag28
ag29
ag150
ag32
ag35
ag36
ag37
ag151
ag38
ag39
ag40
ag44
ag45
ag49
ag50
ag52
ag54
ag56
ag154
ag58
ag60
ag62
ag156
ag75
ag81
ag82
ag84
ag157
ag92
ag93
ag94
ag163
ag115
ag117
ag129
atbsg136
NstRp350
ag2
(g3
(dp351
g5
g6
(g7
(I0
tS'b'
tRp352
(I1
(I165
tg10
I00
(lp353
g147
ag12
ag13
ag191
ag14
ag15
ag16
ag17
ag18
ag178
ag19
ag20
ag21
ag22
ag23
ag148
ag24
ag25
ag26
ag27
ag28
ag29
ag149
ag30
ag31
ag192
ag193
ag150
ag32
ag33
ag34
ag35
ag36
ag194
ag37
ag151
ag38
ag39
ag40
ag41
ag42
ag43
ag44
ag45
ag152
ag46
ag195
ag47
ag48
ag196
ag49
ag50
ag51
ag153
ag52
ag141
ag53
ag54
ag55
ag56
ag57
ag154
ag155
ag58
ag59
ag60
ag61
ag62
ag63
ag156
ag64
ag65
ag66
ag67
ag179
ag68
ag69
ag70
ag180
ag71
ag72
ag73
ag74
ag75
ag76
ag77
ag78
ag181
ag182
ag79
ag80
ag81
ag82
ag83
ag84
ag85
ag86
ag87
ag197
ag88
ag89
ag157
ag90
ag91
ag183
ag92
ag93
ag94
ag163
ag95
ag96
ag97
ag98
ag99
ag100
ag184
ag101
ag102
ag103
ag104
ag198
ag199
ag105
ag106
ag107
ag108
ag109
ag110
ag111
ag112
ag200
ag113
ag114
ag115
ag142
ag158
ag116
ag117
ag118
ag119
ag120
ag121
ag122
ag123
ag124
ag125
ag126
ag127
ag128
ag173
ag185
ag129
ag130
ag201
ag168
ag202
ag186
ag203
ag204
ag131
ag132
ag133
ag134
ag135
ag205
atbsg136
NstRp354
ag2
(g3
(dp355
g5
g6
(g7
(I0
tS'b'
tRp356
(I1
(I42
tg10
I00
(lp357
g18
ag20
ag28
ag32
ag34
ag36
ag37
ag151
ag38
ag39
ag40
ag45
ag49
ag50
ag52
ag53
ag54
ag55
ag56
ag57
ag154
ag155
ag58
ag59
ag60
ag61
ag62
ag63
ag156
ag182
ag84
ag85
ag197
ag88
ag157
ag90
ag91
ag92
ag93
ag94
ag163
ag115
atbsg136
NstRp358
ag2
(g3
(dp359
g5
g6
(g7
(I0
tS'b'
tRp360
(I1
(I83
tg10
I00
(lp361
g147
ag12
ag13
ag16
ag17
ag18
ag20
ag23
ag24
ag25
ag27
ag28
ag29
ag30
ag31
ag32
ag33
ag36
ag37
ag38
ag39
ag40
ag41
ag42
ag43
ag44
ag45
ag46
ag47
ag48
ag49
ag50
ag51
ag52
ag141
ag54
ag56
ag154
ag58
ag59
ag60
ag64
ag68
ag69
ag73
ag74
ag76
ag77
ag78
ag79
ag80
ag82
ag85
ag87
ag197
ag88
ag90
ag92
ag95
ag99
ag184
ag102
ag103
ag104
ag107
ag108
ag109
ag110
ag111
ag113
ag114
ag115
ag142
ag116
ag117
ag118
ag119
ag120
ag122
ag123
ag185
ag130
ag203
atbsg136
NstRp362
ag2
(g3
(dp363
g5
g6
(g7
(I0
tS'b'
tRp364
(I1
(I83
tg10
I00
(lp365
g147
ag13
ag16
ag17
ag18
ag20
ag23
ag148
ag24
ag25
ag28
ag30
ag31
ag150
ag32
ag33
ag36
ag37
ag151
ag38
ag39
ag40
ag43
ag44
ag45
ag49
ag50
ag153
ag52
ag141
ag53
ag54
ag55
ag56
ag57
ag154
ag155
ag58
ag59
ag60
ag61
ag63
ag156
ag66
ag71
ag72
ag74
ag75
ag76
ag181
ag182
ag79
ag80
ag81
ag84
ag85
ag86
ag197
ag88
ag89
ag157
ag90
ag91
ag92
ag93
ag94
ag163
ag99
ag184
ag102
ag107
ag108
ag111
ag112
ag114
ag115
ag117
ag118
ag120
ag122
ag123
ag128
ag130
atbsg136
NstRp366
ag2
(g3
(dp367
g5
g6
(g7
(I0
tS'b'
tRp368
(I1
(I42
tg10
I00
(lp369
g16
ag18
ag20
ag23
ag25
ag27
ag28
ag149
ag30
ag31
ag36
ag151
ag38
ag39
ag40
ag42
ag43
ag44
ag45
ag46
ag48
ag49
ag50
ag52
ag54
ag56
ag59
ag64
ag73
ag77
ag78
ag82
ag85
ag87
ag92
ag95
ag99
ag109
ag111
ag115
ag117
ag130
atbsg136
NstRp370
ag2
(g3
(dp371
g5
g6
(g7
(I0
tS'b'
tRp372
(I1
(I42
tg10
I00
(lp373
g16
ag18
ag20
ag25
ag28
ag33
ag36
ag37
ag38
ag39
ag40
ag41
ag42
ag44
ag45
ag49
ag50
ag51
ag52
ag54
ag56
ag57
ag59
ag60
ag65
ag68
ag73
ag76
ag77
ag82
ag83
ag87
ag95
ag106
ag107
ag109
ag110
ag112
ag113
ag114
ag115
ag117
atbsg136
NstRp374
ag2
(g3
(dp375
g5
g6
(g7
(I0
tS'b'
tRp376
(I1
(I83
tg10
I00
(lp377
g12
ag191
ag14
ag16
ag18
ag178
ag19
ag20
ag21
ag22
ag23
ag24
ag25
ag26
ag27
ag28
ag30
ag31
ag150
ag32
ag33
ag34
ag35
ag36
ag37
ag38
ag39
ag40
ag41
ag42
ag43
ag44
ag45
ag152
ag48
ag49
ag50
ag51
ag52
ag53
ag54
ag56
ag154
ag59
ag60
ag61
ag64
ag68
ag69
ag73
ag74
ag77
ag78
ag80
ag81
ag82
ag83
ag85
ag87
ag197
ag90
ag93
ag95
ag98
ag99
ag102
ag103
ag106
ag107
ag109
ag110
ag111
ag114
ag115
ag142
ag116
ag117
ag118
ag122
ag123
ag185
ag129
ag130
atbsg136
NstRp378
ag2
(g3
(dp379
g5
g6
(g7
(I0
tS'b'
tRp380
(I1
(I42
tg10
I00
(lp381
g20
ag25
ag28
ag30
ag31
ag32
ag34
ag36
ag151
ag38
ag39
ag40
ag44
ag45
ag48
ag49
ag51
ag153
ag52
ag141
ag53
ag54
ag56
ag57
ag154
ag155
ag58
ag60
ag62
ag63
ag156
ag182
ag85
ag91
ag92
ag93
ag94
ag163
ag115
ag117
ag119
ag120
atbsg136
NstRp382
ag2
(g3
(dp383
g5
g6
(g7
(I0
tS'b'
tRp384
(I1
(I42
tg10
I00
(lp385
g15
ag17
ag18
ag20
ag24
ag25
ag27
ag33
ag35
ag36
ag37
ag38
ag39
ag40
ag41
ag42
ag44
ag45
ag46
ag48
ag49
ag50
ag153
ag52
ag54
ag56
ag64
ag73
ag77
ag78
ag83
ag87
ag197
ag103
ag104
ag106
ag108
ag115
ag116
ag117
ag118
ag125
atbsg136
NstRp386
ag2
(g3
(dp387
g5
g6
(g7
(I0
tS'b'
tRp388
(I1
(I42
tg10
I00
(lp389
g18
ag24
ag25
ag28
ag30
ag31
ag32
ag33
ag36
ag151
ag38
ag39
ag40
ag42
ag43
ag44
ag45
ag49
ag52
ag53
ag54
ag55
ag56
ag57
ag154
ag155
ag58
ag59
ag60
ag62
ag63
ag156
ag77
ag182
ag85
ag88
ag92
ag93
ag94
ag163
ag115
ag117
atbsg136
NstRp390
ag2
(g3
(dp391
g5
g6
(g7
(I0
tS'b'
tRp392
(I1
(I165
tg10
I00
(lp393
g147
ag12
ag13
ag191
ag14
ag15
ag16
ag17
ag18
ag178
ag19
ag20
ag21
ag22
ag23
ag148
ag24
ag25
ag26
ag27
ag28
ag29
ag149
ag30
ag31
ag192
ag193
ag150
ag32
ag33
ag34
ag35
ag36
ag194
ag37
ag151
ag38
ag39
ag40
ag41
ag42
ag43
ag44
ag45
ag152
ag46
ag195
ag47
ag48
ag196
ag49
ag50
ag51
ag153
ag52
ag141
ag53
ag54
ag55
ag56
ag57
ag154
ag155
ag58
ag59
ag60
ag61
ag62
ag63
ag156
ag64
ag65
ag66
ag67
ag179
ag68
ag69
ag70
ag180
ag71
ag72
ag73
ag74
ag75
ag76
ag77
ag78
ag181
ag182
ag79
ag80
ag81
ag82
ag83
ag84
ag85
ag86
ag87
ag197
ag88
ag89
ag157
ag90
ag91
ag183
ag92
ag93
ag94
ag163
ag95
ag96
ag97
ag98
ag99
ag100
ag184
ag101
ag102
ag103
ag104
ag198
ag199
ag105
ag106
ag107
ag108
ag109
ag110
ag111
ag112
ag200
ag113
ag114
ag115
ag142
ag158
ag116
ag117
ag118
ag119
ag120
ag121
ag122
ag123
ag124
ag125
ag126
ag127
ag128
ag173
ag185
ag129
ag130
ag201
ag168
ag202
ag186
ag203
ag204
ag131
ag132
ag133
ag134
ag135
ag205
atbsg136
NstRp394
ag2
(g3
(dp395
g5
g6
(g7
(I0
tS'b'
tRp396
(I1
(I42
tg10
I00
(lp397
g25
ag28
ag30
ag31
ag32
ag33
ag36
ag151
ag38
ag39
ag40
ag45
ag49
ag51
ag153
ag141
ag54
ag56
ag154
ag58
ag60
ag62
ag63
ag66
ag67
ag179
ag70
ag71
ag72
ag74
ag75
ag81
ag85
ag197
ag157
ag92
ag93
ag94
ag163
ag115
ag117
ag120
atbsg136
NstRp398
ag2
(g3
(dp399
g5
g6
(g7
(I0
tS'b'
tRp400
(I1
(I42
tg10
I00
(lp401
g16
ag23
ag32
ag36
ag37
ag151
ag38
ag39
ag40
ag43
ag44
ag45
ag49
ag52
ag141
ag53
ag54
ag55
ag56
ag57
ag154
ag155
ag58
ag59
ag60
ag61
ag62
ag63
ag182
ag81
ag82
ag84
ag85
ag197
ag88
ag157
ag90
ag92
ag94
ag163
ag115
ag117
atbsg136
NstRp402
ag2
(g3
(dp403
g5
g6
(g7
(I0
tS'b'
tRp404
(I1
(I42
tg10
I00
(lp405
g18
ag21
ag22
ag24
ag25
ag27
ag28
ag29
ag30
ag31
ag32
ag33
ag34
ag36
ag37
ag151
ag38
ag39
ag40
ag44
ag45
ag46
ag48
ag49
ag50
ag52
ag54
ag56
ag63
ag156
ag75
ag77
ag82
ag88
ag92
ag93
ag94
ag110
ag111
ag115
ag117
ag120
atbsg136
NstRp406
ag2
(g3
(dp407
g5
g6
(g7
(I0
tS'b'
tRp408
(I1
(I42
tg10
I00
(lp409
g18
ag20
ag23
ag25
ag30
ag31
ag32
ag36
ag37
ag38
ag39
ag40
ag45
ag52
ag141
ag53
ag54
ag55
ag56
ag57
ag154
ag155
ag58
ag60
ag62
ag63
ag156
ag182
ag81
ag82
ag84
ag85
ag197
ag88
ag157
ag92
ag93
ag94
ag163
ag115
ag117
ag120
atbsg136
NstRp410
ag2
(g3
(dp411
g5
g6
(g7
(I0
tS'b'
tRp412
(I1
(I42
tg10
I00
(lp413
g16
ag18
ag19
ag20
ag24
ag25
ag28
ag149
ag32
ag33
ag34
ag36
ag37
ag151
ag38
ag39
ag40
ag41
ag42
ag49
ag50
ag52
ag55
ag56
ag154
ag61
ag64
ag66
ag68
ag73
ag74
ag77
ag85
ag87
ag99
ag103
ag107
ag110
ag111
ag115
ag117
ag118
atbsg136
NstRp414
ag2
(g3
(dp415
g5
g6
(g7
(I0
tS'b'
tRp416
(I1
(I42
tg10
I00
(lp417
g15
ag16
ag18
ag20
ag23
ag24
ag25
ag28
ag33
ag34
ag36
ag37
ag38
ag39
ag40
ag43
ag44
ag45
ag46
ag49
ag50
ag52
ag56
ag59
ag60
ag179
ag73
ag77
ag78
ag79
ag90
ag99
ag102
ag107
ag115
ag116
ag117
ag118
ag120
ag123
ag125
ag130
atbsg136
NstRp418
ag2
(g3
(dp419
g5
g6
(g7
(I0
tS'b'
tRp420
(I1
(I42
tg10
I00
(lp421
g16
ag17
ag18
ag20
ag23
ag25
ag28
ag30
ag31
ag150
ag32
ag33
ag34
ag36
ag151
ag38
ag39
ag40
ag44
ag45
ag46
ag48
ag49
ag50
ag52
ag56
ag63
ag77
ag82
ag83
ag87
ag102
ag103
ag104
ag111
ag115
ag116
ag117
ag118
ag120
ag125
ag132
atbsg136
NstRp422
ag2
(g3
(dp423
g5
g6
(g7
(I0
tS'b'
tRp424
(I1
(I42
tg10
I00
(lp425
g16
ag18
ag20
ag23
ag148
ag24
ag25
ag27
ag28
ag30
ag31
ag33
ag34
ag36
ag37
ag38
ag39
ag40
ag43
ag44
ag45
ag49
ag50
ag52
ag54
ag56
ag60
ag64
ag69
ag73
ag77
ag78
ag82
ag87
ag95
ag106
ag108
ag115
ag116
ag117
ag118
ag120
atbsg136
NstRp426
ag2
(g3
(dp427
g5
g6
(g7
(I0
tS'b'
tRp428
(I1
(I42
tg10
I00
(lp429
g28
ag149
ag32
ag34
ag36
ag37
ag151
ag38
ag39
ag40
ag45
ag49
ag52
ag141
ag53
ag54
ag55
ag56
ag57
ag154
ag155
ag58
ag59
ag60
ag61
ag62
ag63
ag156
ag76
ag77
ag182
ag84
ag85
ag197
ag88
ag157
ag90
ag92
ag93
ag163
ag115
ag117
atbsg136
NstRp430
ag2
(g3
(dp431
g5
g6
(g7
(I0
tS'b'
tRp432
(I1
(I42
tg10
I00
(lp433
g24
ag28
ag29
ag32
ag34
ag36
ag38
ag39
ag40
ag45
ag50
ag153
ag52
ag53
ag54
ag55
ag56
ag57
ag155
ag58
ag59
ag60
ag61
ag62
ag63
ag156
ag75
ag76
ag182
ag81
ag82
ag84
ag85
ag197
ag88
ag157
ag90
ag92
ag93
ag94
ag163
ag115
atbsg136
NstRp434
ag2
(g3
(dp435
g5
g6
(g7
(I0
tS'b'
tRp436
(I1
(I42
tg10
I00
(lp437
g15
ag16
ag18
ag20
ag24
ag25
ag26
ag28
ag29
ag33
ag34
ag36
ag37
ag38
ag39
ag40
ag42
ag43
ag44
ag45
ag49
ag50
ag52
ag56
ag60
ag61
ag68
ag77
ag82
ag83
ag87
ag104
ag108
ag109
ag114
ag115
ag116
ag117
ag118
ag122
ag130
ag201
atbsg136
NstRp438
ag2
(g3
(dp439
g5
g6
(g7
(I0
tS'b'
tRp440
(I1
(I42
tg10
I00
(lp441
g13
ag16
ag18
ag20
ag148
ag25
ag28
ag30
ag31
ag150
ag32
ag34
ag36
ag37
ag151
ag38
ag39
ag40
ag44
ag45
ag46
ag49
ag50
ag52
ag54
ag56
ag63
ag156
ag75
ag77
ag78
ag81
ag83
ag87
ag93
ag94
ag111
ag115
ag116
ag117
ag119
ag120
atbsg136
NstRp442
ag2
(g3
(dp443
g5
g6
(g7
(I0
tS'b'
tRp444
(I1
(I42
tg10
I00
(lp445
g147
ag16
ag18
ag20
ag25
ag27
ag28
ag36
ag37
ag38
ag39
ag40
ag41
ag42
ag44
ag45
ag48
ag49
ag50
ag52
ag54
ag56
ag59
ag60
ag68
ag74
ag77
ag79
ag82
ag87
ag90
ag99
ag103
ag108
ag110
ag111
ag115
ag142
ag116
ag117
ag118
ag130
atbsg136
NstRp446
ag2
(g3
(dp447
g5
g6
(g7
(I0
tS'b'
tRp448
(I1
(I42
tg10
I00
(lp449
g15
ag16
ag18
ag20
ag25
ag27
ag28
ag32
ag33
ag36
ag37
ag38
ag39
ag40
ag41
ag42
ag44
ag45
ag48
ag49
ag50
ag153
ag52
ag54
ag56
ag59
ag60
ag68
ag73
ag77
ag81
ag83
ag90
ag95
ag99
ag102
ag103
ag110
ag115
ag116
ag117
ag118
atbsg136
NstRp450
ag2
(g3
(dp451
g5
g6
(g7
(I0
tS'b'
tRp452
(I1
(I42
tg10
I00
(lp453
g13
ag18
ag20
ag23
ag25
ag28
ag30
ag31
ag150
ag32
ag33
ag36
ag37
ag151
ag38
ag39
ag40
ag41
ag43
ag44
ag45
ag49
ag50
ag52
ag54
ag56
ag155
ag60
ag62
ag63
ag156
ag85
ag197
ag88
ag92
ag94
ag99
ag184
ag115
ag117
ag119
ag120
atbsg136
NstRp454
ag2
(g3
(dp455
g5
g6
(g7
(I0
tS'b'
tRp456
(I1
(I42
tg10
I00
(lp457
g18
ag20
ag25
ag27
ag28
ag149
ag33
ag34
ag36
ag37
ag38
ag39
ag40
ag42
ag43
ag44
ag45
ag48
ag49
ag50
ag52
ag141
ag56
ag60
ag64
ag68
ag73
ag77
ag78
ag87
ag197
ag90
ag95
ag99
ag184
ag102
ag107
ag115
ag116
ag117
ag118
ag120
atbsg136
NstRp458
ag2
(g3
(dp459
g5
g6
(g7
(I0
tS'b'
tRp460
(I1
(I42
tg10
I00
(lp461
g16
ag18
ag19
ag20
ag25
ag27
ag28
ag150
ag32
ag33
ag34
ag35
ag36
ag37
ag151
ag38
ag39
ag40
ag43
ag44
ag45
ag49
ag50
ag52
ag56
ag59
ag60
ag61
ag64
ag77
ag87
ag88
ag90
ag92
ag95
ag99
ag102
ag108
ag109
ag115
ag116
ag117
atbsg136
NstRp462
ag2
(g3
(dp463
g5
g6
(g7
(I0
tS'b'
tRp464
(I1
(I83
tg10
I00
(lp465
g16
ag17
ag18
ag19
ag20
ag21
ag23
ag148
ag25
ag26
ag27
ag28
ag149
ag32
ag33
ag36
ag37
ag38
ag39
ag40
ag41
ag42
ag43
ag44
ag45
ag46
ag48
ag49
ag50
ag51
ag52
ag141
ag54
ag55
ag56
ag59
ag60
ag61
ag62
ag63
ag64
ag66
ag68
ag73
ag74
ag76
ag77
ag78
ag79
ag80
ag81
ag82
ag83
ag85
ag87
ag197
ag90
ag92
ag95
ag99
ag184
ag102
ag103
ag104
ag106
ag107
ag108
ag109
ag110
ag111
ag114
ag115
ag116
ag117
ag118
ag122
ag123
ag127
ag129
ag130
ag168
ag202
ag135
atbsg136
NstRp466
ag2
(g3
(dp467
g5
g6
(g7
(I0
tS'b'
tRp468
(I1
(I42
tg10
I00
(lp469
g18
ag20
ag25
ag28
ag32
ag36
ag151
ag38
ag39
ag40
ag44
ag45
ag49
ag50
ag153
ag52
ag53
ag54
ag56
ag154
ag155
ag58
ag60
ag62
ag63
ag156
ag73
ag75
ag182
ag83
ag87
ag197
ag88
ag92
ag163
ag106
ag111
ag115
ag117
ag118
ag120
ag131
atbsg136
NstRp470
ag2
(g3
(dp471
g5
g6
(g7
(I0
tS'b'
tRp472
(I1
(I83
tg10
I00
(lp473
g147
ag191
ag16
ag17
ag18
ag19
ag20
ag23
ag25
ag27
ag28
ag29
ag150
ag32
ag33
ag34
ag36
ag194
ag37
ag38
ag39
ag40
ag41
ag42
ag43
ag44
ag45
ag152
ag48
ag49
ag50
ag51
ag153
ag52
ag54
ag55
ag56
ag154
ag59
ag60
ag61
ag62
ag64
ag68
ag69
ag73
ag74
ag76
ag77
ag78
ag79
ag81
ag82
ag83
ag85
ag86
ag87
ag90
ag91
ag92
ag95
ag99
ag184
ag101
ag102
ag103
ag104
ag106
ag107
ag108
ag109
ag114
ag115
ag142
ag116
ag117
ag118
ag121
ag122
ag123
ag129
ag130
ag202
atbsg136
NstRp474
ag2
(g3
(dp475
g5
g6
(g7
(I0
tS'b'
tRp476
(I1
(I42
tg10
I00
(lp477
g16
ag20
ag24
ag25
ag30
ag31
ag33
ag34
ag36
ag37
ag38
ag39
ag40
ag41
ag42
ag44
ag48
ag49
ag50
ag52
ag54
ag56
ag59
ag60
ag64
ag68
ag73
ag77
ag78
ag83
ag87
ag90
ag95
ag103
ag106
ag109
ag112
ag115
ag142
ag116
ag117
ag118
atbsg136
NstRp478
ag2
(g3
(dp479
g5
g6
(g7
(I0
tS'b'
tRp480
(I1
(I42
tg10
I00
(lp481
g18
ag20
ag25
ag28
ag30
ag31
ag32
ag36
ag38
ag39
ag40
ag44
ag45
ag49
ag50
ag153
ag52
ag141
ag54
ag56
ag154
ag58
ag60
ag62
ag156
ag75
ag76
ag182
ag81
ag82
ag84
ag85
ag197
ag88
ag157
ag90
ag92
ag93
ag94
ag163
ag115
ag117
atbsg136
NstRp482
ag2
(g3
(dp483
g5
g6
(g7
(I0
tS'b'
tRp484
(I1
(I42
tg10
I00
(lp485
g16
ag24
ag25
ag32
ag36
ag151
ag38
ag39
ag40
ag43
ag44
ag45
ag49
ag50
ag51
ag153
ag52
ag141
ag53
ag54
ag55
ag56
ag57
ag154
ag155
ag58
ag59
ag60
ag61
ag62
ag63
ag156
ag182
ag81
ag85
ag197
ag88
ag92
ag94
ag163
ag115
ag116
atbsg136
NstRp486
ag2
(g3
(dp487
g5
g6
(g7
(I0
tS'b'
tRp488
(I1
(I42
tg10
I00
(lp489
g14
ag18
ag20
ag24
ag25
ag28
ag30
ag31
ag32
ag33
ag34
ag36
ag37
ag151
ag38
ag39
ag40
ag43
ag44
ag45
ag49
ag50
ag51
ag52
ag54
ag56
ag60
ag62
ag63
ag75
ag77
ag78
ag85
ag91
ag92
ag93
ag94
ag95
ag115
ag117
ag118
ag120
atbsg136
NstRp490
ag2
(g3
(dp491
g5
g6
(g7
(I0
tS'b'
tRp492
(I1
(I42
tg10
I00
(lp493
g20
ag23
ag25
ag27
ag28
ag30
ag31
ag150
ag32
ag33
ag36
ag37
ag151
ag38
ag39
ag40
ag42
ag43
ag44
ag45
ag49
ag50
ag52
ag56
ag60
ag64
ag74
ag75
ag77
ag78
ag82
ag85
ag87
ag90
ag95
ag99
ag110
ag111
ag115
ag116
ag117
ag123
atbsg136
NstRp494
ag2
(g3
(dp495
g5
g6
(g7
(I0
tS'b'
tRp496
(I1
(I124
tg10
I00
(lp497
g12
ag13
ag191
ag14
ag15
ag16
ag17
ag18
ag19
ag20
ag23
ag24
ag25
ag26
ag27
ag28
ag30
ag31
ag32
ag33
ag34
ag36
ag194
ag37
ag38
ag39
ag40
ag41
ag42
ag43
ag44
ag45
ag152
ag46
ag47
ag48
ag49
ag50
ag51
ag153
ag52
ag54
ag55
ag56
ag57
ag59
ag60
ag61
ag62
ag63
ag64
ag65
ag66
ag67
ag68
ag69
ag71
ag72
ag73
ag74
ag75
ag76
ag77
ag78
ag182
ag79
ag81
ag82
ag84
ag85
ag86
ag87
ag197
ag88
ag89
ag90
ag91
ag183
ag92
ag93
ag94
ag95
ag96
ag97
ag98
ag99
ag100
ag184
ag102
ag103
ag104
ag106
ag107
ag108
ag109
ag110
ag111
ag112
ag113
ag114
ag115
ag142
ag158
ag116
ag117
ag118
ag120
ag121
ag122
ag123
ag124
ag125
ag126
ag127
ag173
ag129
ag130
ag201
ag186
ag203
ag204
ag132
ag133
ag134
atbsg136
NstRp498
ag2
(g3
(dp499
g5
g6
(g7
(I0
tS'b'
tRp500
(I1
(I42
tg10
I00
(lp501
g18
ag20
ag23
ag25
ag27
ag28
ag30
ag31
ag33
ag34
ag36
ag37
ag38
ag39
ag40
ag44
ag45
ag46
ag49
ag50
ag52
ag141
ag54
ag56
ag59
ag64
ag73
ag76
ag77
ag78
ag83
ag87
ag197
ag90
ag95
ag96
ag108
ag109
ag115
ag116
ag117
ag118
atbsg136
NstRp502
ag2
(g3
(dp503
g5
g6
(g7
(I0
tS'b'
tRp504
(I1
(I83
tg10
I00
(lp505
g13
ag191
ag15
ag16
ag18
ag19
ag20
ag23
ag24
ag25
ag26
ag27
ag28
ag30
ag31
ag150
ag32
ag33
ag34
ag35
ag36
ag37
ag38
ag39
ag40
ag41
ag42
ag43
ag44
ag45
ag152
ag46
ag47
ag48
ag49
ag50
ag51
ag52
ag54
ag56
ag59
ag60
ag61
ag64
ag66
ag72
ag73
ag74
ag75
ag76
ag77
ag78
ag80
ag82
ag83
ag85
ag86
ag87
ag197
ag89
ag90
ag91
ag93
ag95
ag98
ag99
ag184
ag102
ag103
ag104
ag107
ag108
ag110
ag112
ag114
ag115
ag142
ag116
ag117
ag118
ag120
ag122
ag123
atbsg136
NstRp506
ag2
(g3
(dp507
g5
g6
(g7
(I0
tS'b'
tRp508
(I1
(I42
tg10
I00
(lp509
g18
ag20
ag28
ag32
ag34
ag36
ag37
ag151
ag38
ag39
ag40
ag44
ag45
ag46
ag50
ag153
ag52
ag141
ag53
ag54
ag55
ag56
ag57
ag154
ag155
ag58
ag59
ag60
ag61
ag62
ag63
ag156
ag73
ag75
ag77
ag81
ag82
ag91
ag93
ag94
ag111
ag115
atbsg136
NstRp510
ag2
(g3
(dp511
g5
g6
(g7
(I0
tS'b'
tRp512
(I1
(I42
tg10
I00
(lp513
g16
ag18
ag20
ag148
ag24
ag25
ag27
ag28
ag29
ag33
ag34
ag36
ag37
ag151
ag38
ag39
ag40
ag43
ag44
ag45
ag49
ag50
ag52
ag54
ag56
ag60
ag61
ag64
ag73
ag77
ag78
ag79
ag85
ag197
ag99
ag102
ag111
ag115
ag117
ag118
ag123
ag130
atbsg136
NstRp514
ag2
(g3
(dp515
g5
g6
(g7
(I0
tS'b'
tRp516
(I1
(I42
tg10
I00
(lp517
g20
ag24
ag25
ag33
ag36
ag37
ag38
ag39
ag40
ag41
ag42
ag44
ag45
ag48
ag49
ag50
ag52
ag54
ag56
ag59
ag60
ag64
ag67
ag73
ag74
ag76
ag77
ag78
ag79
ag82
ag85
ag87
ag95
ag97
ag99
ag108
ag110
ag113
ag114
ag115
ag116
ag118
atbsg136
NstRp518
ag2
(g3
(dp519
g5
g6
(g7
(I0
tS'b'
tRp520
(I1
(I42
tg10
I00
(lp521
g22
ag24
ag25
ag27
ag29
ag30
ag31
ag150
ag32
ag33
ag36
ag37
ag151
ag38
ag39
ag40
ag42
ag43
ag44
ag45
ag49
ag50
ag52
ag54
ag56
ag60
ag62
ag156
ag64
ag77
ag78
ag85
ag91
ag92
ag95
ag99
ag102
ag111
ag115
ag116
ag117
ag118
atbsg136
NstRp522
ag2
(g3
(dp523
g5
g6
(g7
(I0
tS'b'
tRp524
(I1
(I42
tg10
I00
(lp525
g15
ag18
ag20
ag23
ag25
ag30
ag31
ag32
ag34
ag35
ag36
ag37
ag151
ag38
ag39
ag40
ag43
ag44
ag45
ag152
ag49
ag50
ag52
ag54
ag56
ag60
ag179
ag73
ag75
ag77
ag78
ag81
ag83
ag85
ag90
ag95
ag102
ag115
ag116
ag117
ag125
ag129
atbsg136
NstRp526
ag2
(g3
(dp527
g5
g6
(g7
(I0
tS'b'
tRp528
(I1
(I42
tg10
I00
(lp529
g13
ag16
ag17
ag18
ag20
ag23
ag25
ag28
ag32
ag33
ag36
ag37
ag151
ag38
ag39
ag40
ag44
ag45
ag46
ag49
ag50
ag52
ag54
ag56
ag58
ag60
ag62
ag63
ag156
ag74
ag77
ag80
ag82
ag92
ag93
ag163
ag106
ag109
ag111
ag115
ag116
ag117
atbsg136
NstRp530
ag2
(g3
(dp531
g5
g6
(g7
(I0
tS'b'
tRp532
(I1
(I124
tg10
I00
(lp533
g147
ag12
ag13
ag14
ag16
ag17
ag18
ag19
ag20
ag22
ag148
ag24
ag25
ag26
ag27
ag28
ag30
ag31
ag150
ag32
ag33
ag35
ag36
ag194
ag37
ag151
ag38
ag39
ag40
ag41
ag42
ag43
ag44
ag45
ag152
ag46
ag195
ag47
ag48
ag49
ag50
ag51
ag52
ag141
ag53
ag54
ag55
ag56
ag154
ag155
ag58
ag59
ag60
ag61
ag62
ag156
ag64
ag65
ag66
ag67
ag179
ag68
ag69
ag70
ag180
ag71
ag72
ag73
ag74
ag75
ag76
ag77
ag78
ag182
ag79
ag80
ag81
ag82
ag83
ag84
ag85
ag87
ag197
ag89
ag90
ag92
ag93
ag95
ag96
ag97
ag99
ag100
ag102
ag103
ag104
ag198
ag106
ag107
ag108
ag109
ag110
ag111
ag113
ag114
ag115
ag142
ag116
ag117
ag118
ag120
ag122
ag123
ag125
ag126
ag185
ag129
ag130
ag168
ag202
ag186
ag203
ag132
ag135
ag205
atbsg136
NstRp534
ag2
(g3
(dp535
g5
g6
(g7
(I0
tS'b'
tRp536
(I1
(I42
tg10
I00
(lp537
g18
ag20
ag24
ag25
ag28
ag30
ag31
ag32
ag34
ag37
ag151
ag38
ag39
ag40
ag42
ag43
ag44
ag45
ag49
ag50
ag153
ag52
ag141
ag53
ag54
ag55
ag56
ag57
ag154
ag155
ag58
ag59
ag60
ag61
ag62
ag63
ag77
ag94
ag163
ag102
ag115
ag116
atbsg136
NstRp538
ag2
(g3
(dp539
g5
g6
(g7
(I0
tS'b'
tRp540
(I1
(I42
tg10
I00
(lp541
g20
ag25
ag30
ag31
ag32
ag33
ag37
ag151
ag38
ag39
ag40
ag44
ag45
ag49
ag50
ag51
ag52
ag53
ag54
ag56
ag57
ag155
ag59
ag62
ag63
ag156
ag181
ag79
ag80
ag81
ag82
ag85
ag89
ag91
ag92
ag93
ag94
ag163
ag115
ag117
ag118
ag120
atbsg136
NstRp542
ag2
(g3
(dp543
g5
g6
(g7
(I0
tS'b'
tRp544
(I1
(I42
tg10
I00
(lp545
g16
ag18
ag20
ag24
ag25
ag26
ag32
ag33
ag36
ag38
ag39
ag40
ag41
ag42
ag44
ag49
ag50
ag52
ag54
ag56
ag60
ag67
ag73
ag74
ag77
ag78
ag79
ag82
ag87
ag90
ag95
ag99
ag184
ag108
ag110
ag115
ag142
ag116
ag117
ag118
ag120
ag121
atbsg136
NstRp546
ag2
(g3
(dp547
g5
g6
(g7
(I0
tS'b'
tRp548
(I1
(I124
tg10
I00
(lp549
g12
ag13
ag15
ag17
ag18
ag19
ag20
ag21
ag22
ag23
ag148
ag24
ag25
ag26
ag27
ag28
ag149
ag30
ag31
ag150
ag32
ag33
ag34
ag35
ag36
ag194
ag37
ag151
ag38
ag39
ag40
ag41
ag42
ag43
ag44
ag45
ag152
ag46
ag47
ag48
ag196
ag49
ag50
ag51
ag153
ag52
ag141
ag53
ag54
ag55
ag56
ag57
ag154
ag155
ag58
ag59
ag60
ag61
ag62
ag63
ag64
ag67
ag68
ag69
ag73
ag74
ag75
ag76
ag77
ag78
ag181
ag182
ag79
ag80
ag81
ag82
ag83
ag84
ag85
ag86
ag87
ag197
ag89
ag157
ag90
ag91
ag92
ag95
ag99
ag100
ag184
ag101
ag102
ag103
ag104
ag106
ag107
ag108
ag109
ag111
ag112
ag113
ag114
ag115
ag142
ag116
ag117
ag118
ag119
ag120
ag121
ag122
ag123
ag124
ag125
ag126
ag129
ag130
ag201
ag168
ag202
ag203
ag204
ag134
atbsg136
NstRp550
ag2
(g3
(dp551
g5
g6
(g7
(I0
tS'b'
tRp552
(I1
(I42
tg10
I00
(lp553
g18
ag20
ag25
ag27
ag28
ag33
ag36
ag37
ag38
ag39
ag40
ag42
ag44
ag45
ag49
ag50
ag52
ag56
ag59
ag60
ag68
ag73
ag74
ag76
ag77
ag82
ag87
ag90
ag95
ag184
ag102
ag106
ag108
ag109
ag114
ag115
ag142
ag116
ag117
ag118
ag123
ag130
atbsg136
NstRp554
ag2
(g3
(dp555
g5
g6
(g7
(I0
tS'b'
tRp556
(I1
(I42
tg10
I00
(lp557
g18
ag20
ag24
ag25
ag30
ag31
ag33
ag36
ag151
ag38
ag39
ag40
ag44
ag45
ag49
ag153
ag52
ag141
ag53
ag54
ag56
ag57
ag154
ag155
ag58
ag60
ag62
ag63
ag156
ag75
ag182
ag82
ag85
ag197
ag88
ag157
ag92
ag93
ag163
ag115
ag117
ag120
atbsg136
NstRp558
ag2
(g3
(dp559
g5
g6
(g7
(I0
tS'b'
tRp560
(I1
(I165
tg10
I00
(lp561
g147
ag12
ag13
ag191
ag14
ag15
ag16
ag17
ag18
ag178
ag19
ag20
ag21
ag22
ag23
ag148
ag24
ag25
ag26
ag27
ag28
ag29
ag149
ag30
ag31
ag192
ag193
ag150
ag32
ag33
ag34
ag35
ag36
ag194
ag37
ag151
ag38
ag39
ag40
ag41
ag42
ag43
ag44
ag45
ag152
ag46
ag195
ag47
ag48
ag196
ag49
ag50
ag51
ag153
ag52
ag141
ag53
ag54
ag55
ag56
ag57
ag154
ag155
ag58
ag59
ag60
ag61
ag62
ag63
ag156
ag64
ag65
ag66
ag67
ag179
ag68
ag69
ag70
ag180
ag71
ag72
ag73
ag74
ag75
ag76
ag77
ag78
ag181
ag182
ag79
ag80
ag81
ag82
ag83
ag84
ag85
ag86
ag87
ag197
ag88
ag89
ag157
ag90
ag91
ag183
ag92
ag93
ag94
ag163
ag95
ag96
ag97
ag98
ag99
ag100
ag184
ag101
ag102
ag103
ag104
ag198
ag199
ag105
ag106
ag107
ag108
ag109
ag110
ag111
ag112
ag200
ag113
ag114
ag115
ag142
ag158
ag116
ag117
ag118
ag119
ag120
ag121
ag122
ag123
ag124
ag125
ag126
ag127
ag128
ag173
ag185
ag129
ag130
ag201
ag168
ag202
ag186
ag203
ag204
ag131
ag132
ag133
ag134
ag135
ag205
atbsg136
NstRp562
ag2
(g3
(dp563
g5
g6
(g7
(I0
tS'b'
tRp564
(I1
(I83
tg10
I00
(lp565
g12
ag191
ag15
ag16
ag17
ag18
ag178
ag20
ag23
ag24
ag25
ag26
ag27
ag28
ag149
ag30
ag31
ag150
ag33
ag34
ag35
ag36
ag37
ag38
ag39
ag40
ag41
ag42
ag44
ag45
ag47
ag48
ag49
ag50
ag51
ag153
ag52
ag53
ag54
ag55
ag56
ag58
ag59
ag60
ag61
ag64
ag66
ag68
ag69
ag180
ag71
ag73
ag74
ag76
ag77
ag78
ag79
ag80
ag82
ag83
ag85
ag87
ag90
ag95
ag99
ag103
ag104
ag106
ag107
ag108
ag109
ag111
ag112
ag113
ag115
ag142
ag116
ag117
ag118
ag122
ag123
ag129
ag130
atbsg136
NstRp566
ag2
(g3
(dp567
g5
g6
(g7
(I0
tS'b'
tRp568
(I1
(I42
tg10
I00
(lp569
g16
ag20
ag24
ag25
ag27
ag150
ag33
ag36
ag37
ag38
ag39
ag40
ag41
ag42
ag44
ag45
ag49
ag50
ag51
ag52
ag56
ag59
ag60
ag68
ag73
ag74
ag77
ag78
ag79
ag82
ag83
ag87
ag95
ag103
ag108
ag113
ag115
ag142
ag116
ag117
ag118
ag123
atbsg136
NstRp570
ag2
(g3
(dp571
g5
g6
(g7
(I0
tS'b'
tRp572
(I1
(I42
tg10
I00
(lp573
g18
ag25
ag30
ag31
ag32
ag36
ag37
ag151
ag38
ag39
ag40
ag43
ag44
ag45
ag49
ag50
ag153
ag52
ag141
ag53
ag54
ag55
ag56
ag57
ag154
ag155
ag58
ag59
ag60
ag61
ag62
ag63
ag156
ag75
ag85
ag92
ag93
ag94
ag95
ag115
ag117
ag120
atbsg136
NstRp574
a.