(lp1
cpandas.core.indexes.base
_new_Index
p2
(cpandas.core.indexes.base
Index
p3
(dp4
S'data'
p5
cnumpy.core.multiarray
_reconstruct
p6
(cnumpy
ndarray
p7
(I0
tS'b'
tRp8
(I1
(I42
tcnumpy
dtype
p9
(S'O8'
I0
I1
tRp10
(I3
S'|'
NNNI-1
I-1
I63
tbI00
(lp11
S'ABILH007'
p12
aS'ABILH009'
p13
aS'ABILH011'
p14
aS'ABILH012'
p15
aS'ABILH015'
p16
aS'ABILH018'
p17
aS'ABILH021'
p18
aS'FIM (003'
p19
aS'FIM (006'
p20
aS'FIM (008'
p21
aS'FIM (010'
p22
aS'FIM (011'
p23
aS'FIM (012'
p24
aS'FIM (013'
p25
aS'FIM (014'
p26
aS'FIM (016'
p27
aS'FIM (017'
p28
aS'FIM (SUB5'
p29
aS'FIM (SUB6'
p30
aS'HADS 002'
p31
aS'HADS 004'
p32
aS'HADS 005'
p33
aS'HADS 007'
p34
aS'HADS 012'
p35
aS'HADS 014'
p36
aS'HEIG'
p37
aS'LIFE 004'
p38
aS'LIFE 010'
p39
aS'MFIS 001'
p40
aS'MFIS 002'
p41
aS'MFIS 003'
p42
aS'MFIS 014'
p43
aS'MFIS 019'
p44
aS'MOCA 005'
p45
aS'MOCA 011'
p46
aS'OAB-Q003'
p47
aS'OAB-Q005'
p48
aS'OAB-Q006'
p49
aS'RELAPS'
p50
aS'SDMT TOT'
p51
aS'EDINB002_0'
p52
aS'EDINB003_2'
p53
atbsS'name'
p54
NstRp55
ag2
(g3
(dp56
g5
g6
(g7
(I0
tS'b'
tRp57
(I1
(I42
tg10
I00
(lp58
S'ABILH003'
p59
aS'ABILH006'
p60
ag13
ag15
ag16
ag17
ag18
aS'ABILHSUB1'
p61
aS'ABILHTOT'
p62
aS'FIM (001'
p63
aS'FIM (002'
p64
ag19
aS'FIM (004'
p65
ag20
ag21
aS'FIM (009'
p66
ag22
ag23
ag24
ag26
aS'FIM (015'
p67
ag27
ag28
aS'FIM (SUB3'
p68
ag29
ag30
ag31
ag34
aS'HADS 013'
p69
aS'HADS TOT'
p70
aS'LIFE TOT'
p71
ag41
ag42
aS'MFIS 012'
p72
aS'MFIS SUB3'
p73
aS'MOCA 001'
p74
ag45
ag49
aS'OAB-Q007'
p75
ag50
ag51
aS'EDINB001_1'
p76
atbsg54
NstRp77
ag2
(g3
(dp78
g5
g6
(g7
(I0
tS'b'
tRp79
(I1
(I42
tg10
I00
(lp80
g59
ag13
ag16
ag17
aS'ABILH020'
p81
ag18
ag61
ag62
ag19
ag20
ag66
ag22
ag23
ag24
ag27
ag28
ag68
ag29
aS'FIM (TOT'
p82
ag31
aS'HADS 003'
p83
ag33
ag34
aS'HADS 009'
p84
aS'HADS 010'
p85
aS'HADS 011'
p86
ag69
aS'HADS SUB1'
p87
aS'HADS SUB2'
p88
ag41
ag42
aS'MFIS 008'
p89
aS'MFIS 009'
p90
ag44
aS'MFIS 020'
p91
aS'MFIS SUB2'
p92
ag73
aS'MFIS TOT'
p93
ag51
ag76
aS'EDINB001_2'
p94
aS'EDINB002_2'
p95
atbsg54
NstRp96
ag2
(g3
(dp97
g5
g6
(g7
(I0
tS'b'
tRp98
(I1
(I42
tg10
I00
(lp99
g59
ag60
ag12
ag13
ag15
aS'ABILH017'
p100
ag17
ag81
ag18
ag64
ag19
ag20
ag21
ag22
ag23
ag24
ag25
ag26
ag27
ag28
ag68
ag29
ag30
ag83
ag33
ag34
ag37
ag38
ag39
ag40
ag41
ag42
ag90
ag43
ag44
ag74
ag45
ag47
ag48
ag51
ag76
ag52
atbsg54
NstRp101
ag2
(g3
(dp102
g5
g6
(g7
(I0
tS'b'
tRp103
(I1
(I83
tg10
I00
(lp104
S'ABILH001'
p105
aS'ABILH002'
p106
aS'ABILH004'
p107
ag12
aS'ABILH008'
p108
ag13
ag15
ag100
ag17
aS'ABILH019'
p109
ag18
ag61
ag62
ag19
ag20
ag21
ag66
ag22
ag23
ag24
ag25
ag26
ag67
ag27
ag28
aS'FIM (019'
p110
ag68
ag29
ag30
ag82
ag31
ag83
ag32
ag33
ag34
ag35
ag69
ag87
ag37
aS'LIFE 002'
p111
ag38
aS'LIFE 005'
p112
aS'LIFE 007'
p113
ag39
aS'LIFE 011'
p114
ag40
ag41
ag42
aS'MFIS 006'
p115
ag89
ag90
aS'MFIS 010'
p116
ag43
aS'MFIS 017'
p117
ag44
aS'MFIS 021'
p118
aS'MFIS SUB1'
p119
ag92
ag74
ag45
aS'MOCA 010'
p120
ag46
aS'OAB-Q002'
p121
ag47
aS'OAB-Q004'
p122
ag48
ag49
ag75
aS'PASATTOT'
p123
ag50
ag51
aS'WEIG'
p124
aS'EDINB001_0'
p125
ag76
ag94
ag52
aS'EDINB003_0'
p126
aS'EDINB003_1'
p127
ag53
aS'EDINB006_0'
p128
aS'EDINB006_2'
p129
aS'EDINB008_2'
p130
aS'EDINB010_0'
p131
atbsg54
NstRp132
ag2
(g3
(dp133
g5
g6
(g7
(I0
tS'b'
tRp134
(I1
(I42
tg10
I00
(lp135
g18
ag61
ag62
ag64
ag20
ag66
ag22
ag23
ag24
ag67
ag27
ag29
aS'HADS 001'
p136
ag31
ag83
ag32
ag33
aS'HADS 006'
p137
ag34
aS'HADS 008'
p138
ag84
ag85
ag86
ag35
ag69
ag36
ag87
ag88
ag70
ag71
ag40
ag89
ag90
aS'MFIS 011'
p139
ag72
aS'MFIS 016'
p140
ag119
ag92
ag73
ag93
ag51
ag94
atbsg54
NstRp141
ag2
(g3
(dp142
g5
g6
(g7
(I0
tS'b'
tRp143
(I1
(I42
tg10
I00
(lp144
g13
ag15
aS'ABILH014'
p145
aS'ABILH016'
p146
ag100
ag17
ag18
aS'ABILH023'
p147
ag64
ag65
aS'FIM (005'
p148
ag20
ag21
ag66
ag22
ag23
ag24
ag26
ag27
ag28
aS'FIM (018'
p149
ag29
ag30
ag31
ag33
ag34
ag69
ag87
ag70
aS'LIFE 001'
p150
ag71
ag41
ag115
ag72
ag119
ag93
ag46
ag122
ag51
ag94
aS'EDINB002_1'
p151
ag95
atbsg54
NstRp152
ag2
(g3
(dp153
g5
g6
(g7
(I0
tS'b'
tRp154
(I1
(I42
tg10
I00
(lp155
g13
ag15
aS'ABILH013'
p156
ag17
ag81
ag18
ag61
ag62
ag64
ag20
ag21
ag66
ag22
ag23
ag24
ag67
ag27
ag28
ag149
ag29
ag30
ag31
ag33
ag34
ag88
ag37
ag39
ag41
ag42
ag43
ag117
ag91
ag74
ag45
aS'MOCA 008'
p157
ag49
ag75
ag51
ag76
ag94
ag53
aS'EDINB004_0'
p158
atbsg54
NstRp159
ag2
(g3
(dp160
g5
g6
(g7
(I0
tS'b'
tRp161
(I1
(I124
tg10
I00
(lp162
g105
ag106
ag59
ag60
ag12
ag108
ag13
aS'ABILH010'
p163
ag14
ag15
ag145
ag16
ag100
ag17
ag109
ag81
ag18
aS'ABILH022'
p164
ag61
ag62
ag63
ag64
ag19
ag65
ag148
ag20
ag21
ag66
ag22
ag23
ag24
ag25
ag26
ag67
ag27
ag28
ag110
aS'FIM (SUB2'
p165
ag68
ag29
ag30
ag82
ag136
ag31
ag83
ag32
ag33
ag137
ag34
ag84
ag85
ag86
ag35
ag69
ag36
ag87
ag88
ag37
aS'ISTRU'
p166
ag38
ag112
aS'LIFE 006'
p167
aS'LIFE 008'
p168
aS'LIFE 009'
p169
ag39
ag114
ag71
ag40
ag41
ag42
ag115
aS'MFIS 007'
p170
ag89
ag90
ag116
ag72
ag43
ag140
ag117
aS'MFIS 018'
p171
ag44
ag91
ag118
ag119
ag92
ag73
ag74
aS'MOCA 002'
p172
aS'MOCA 003'
p173
aS'MOCA 004'
p174
ag45
aS'MOCA 006'
p175
aS'MOCA 007'
p176
aS'MOCA 009'
p177
ag120
ag46
ag121
ag47
ag122
ag48
ag49
ag75
aS'OAB-Q008'
p178
ag123
ag50
ag51
ag124
ag76
ag94
ag52
ag95
ag127
ag53
aS'EDINB004_1'
p179
aS'EDINB004_2'
p180
aS'EDINB005_0'
p181
aS'EDINB005_2'
p182
ag128
aS'EDINB007_0'
p183
aS'EDINB008_0'
p184
aS'EDINB008_1'
p185
aS'EDINB009_0'
p186
aS'EDINB010_1'
p187
aS'EDINB010_2'
p188
atbsg54
NstRp189
ag2
(g3
(dp190
g5
g6
(g7
(I0
tS'b'
tRp191
(I1
(I42
tg10
I00
(lp192
g13
ag15
ag17
ag18
ag64
ag20
ag21
ag66
ag22
ag23
ag24
ag27
ag28
ag29
ag30
ag82
ag31
ag83
ag32
ag33
ag34
ag138
ag84
ag85
ag86
ag35
ag69
ag36
ag87
ag88
ag70
ag71
ag89
ag90
ag72
ag140
ag119
ag73
ag93
ag122
ag51
ag94
atbsg54
NstRp193
ag2
(g3
(dp194
g5
g6
(g7
(I0
tS'b'
tRp195
(I1
(I42
tg10
I00
(lp196
g12
ag13
ag14
ag15
ag17
ag18
ag61
ag62
ag63
ag64
ag19
ag65
ag20
ag21
ag66
ag22
ag23
ag24
ag67
ag27
ag28
ag29
ag30
ag31
ag33
ag34
ag84
ag69
ag87
ag70
ag41
ag42
aS'MFIS 005'
p197
ag119
ag92
ag74
ag75
ag51
ag76
ag94
ag151
ag95
atbsg54
NstRp198
ag2
(g3
(dp199
g5
g6
(g7
(I0
tS'b'
tRp200
(I1
(I42
tg10
I00
(lp201
g105
ag13
ag15
ag145
ag146
ag100
ag17
ag81
ag18
ag61
ag62
ag64
ag19
ag65
ag20
ag21
ag66
ag22
ag23
ag24
ag27
ag28
ag68
ag29
ag30
ag31
ag34
ag69
ag38
ag41
ag42
ag115
ag43
aS'MFIS 015'
p202
ag91
ag119
ag120
ag121
ag50
ag51
ag94
ag53
atbsg54
NstRp203
ag2
(g3
(dp204
g5
g6
(g7
(I0
tS'b'
tRp205
(I1
(I42
tg10
I00
(lp206
g12
ag15
ag17
ag64
ag20
ag21
ag66
ag22
ag23
ag24
ag67
ag27
ag28
ag29
ag30
ag82
ag136
ag31
ag83
ag33
ag34
ag84
ag86
ag69
ag87
ag70
ag71
ag197
ag115
ag116
ag139
ag72
ag43
ag202
ag140
ag171
ag119
ag93
ag51
ag76
ag94
ag95
atbsg54
NstRp207
ag2
(g3
(dp208
g5
g6
(g7
(I0
tS'b'
tRp209
(I1
(I42
tg10
I00
(lp210
g13
ag17
ag18
ag64
ag19
ag20
ag21
ag66
ag22
ag23
ag24
ag28
ag29
ag31
ag32
ag33
ag137
ag34
ag138
ag85
ag35
ag69
ag36
ag88
ag70
ag40
ag197
ag89
ag90
ag139
ag72
ag140
ag171
ag44
ag119
ag92
ag73
ag93
ag51
ag76
ag94
ag95
atbsg54
NstRp211
ag2
(g3
(dp212
g5
g6
(g7
(I0
tS'b'
tRp213
(I1
(I42
tg10
I00
(lp214
g13
ag17
ag18
ag61
ag62
ag64
ag65
ag20
ag21
ag66
ag22
ag23
ag24
ag27
ag28
ag29
ag30
ag136
ag31
ag83
ag32
ag33
ag34
ag138
ag84
ag85
ag86
ag69
ag36
ag87
ag88
ag70
ag71
ag89
ag90
ag116
ag119
ag73
ag93
ag51
ag151
ag95
atbsg54
NstRp215
ag2
(g3
(dp216
g5
g6
(g7
(I0
tS'b'
tRp217
(I1
(I42
tg10
I00
(lp218
g13
ag15
ag156
ag145
ag17
ag18
ag164
ag64
ag65
ag20
ag21
ag22
ag23
ag24
ag26
ag27
ag28
ag68
ag29
ag30
ag31
ag34
ag69
ag88
ag37
ag38
ag39
ag40
ag41
ag90
ag43
ag44
ag45
ag177
ag120
ag47
ag48
ag51
ag94
ag52
ag53
ag129
atbsg54
NstRp219
ag2
(g3
(dp220
g5
g6
(g7
(I0
tS'b'
tRp221
(I1
(I165
tg10
I00
(lp222
g105
ag106
ag59
ag107
aS'ABILH005'
p223
ag60
ag12
ag108
ag13
ag163
ag14
ag15
ag156
ag145
ag16
ag146
ag100
ag17
ag109
ag81
ag18
ag164
ag147
ag61
ag62
aS'EDINBSUB1'
p224
aS'EDINBTOT'
p225
ag63
ag64
ag19
ag65
ag148
ag20
aS'FIM (007'
p226
ag21
ag66
ag22
ag23
ag24
ag25
ag26
ag67
ag27
ag28
ag149
ag110
aS'FIM (SUB1'
p227
ag165
ag68
aS'FIM (SUB4'
p228
ag29
ag30
ag82
ag136
ag31
ag83
ag32
ag33
ag137
ag34
ag138
ag84
ag85
ag86
ag35
ag69
ag36
ag87
ag88
ag70
ag37
ag166
ag150
ag111
aS'LIFE 003'
p229
ag38
ag112
ag167
ag113
ag168
ag169
ag39
ag114
ag71
ag40
ag41
ag42
aS'MFIS 004'
p230
ag197
ag115
ag170
ag89
ag90
ag116
ag139
ag72
aS'MFIS 013'
p231
ag43
ag202
ag140
ag117
ag171
ag44
ag91
ag118
ag119
ag92
ag73
ag93
ag74
ag172
ag173
ag174
ag45
ag175
ag176
ag157
ag177
ag120
ag46
aS'MOCA SUB1'
p232
aS'MOCA TOT'
p233
aS'OAB-Q001'
p234
ag121
ag47
ag122
ag48
ag49
ag75
ag178
aS'OAB-QTOT'
p235
ag123
ag50
ag51
ag124
ag125
ag76
ag94
ag52
ag151
ag95
ag126
ag127
ag53
ag158
ag179
ag180
ag181
aS'EDINB005_1'
p236
ag182
ag128
aS'EDINB006_1'
p237
ag129
ag183
aS'EDINB007_1'
p238
aS'EDINB007_2'
p239
ag184
ag185
ag130
ag186
aS'EDINB009_1'
p240
aS'EDINB009_2'
p241
ag131
ag187
ag188
atbsg54
NstRp242
ag2
(g3
(dp243
g5
g6
(g7
(I0
tS'b'
tRp244
(I1
(I42
tg10
I00
(lp245
g59
ag13
ag15
ag17
ag18
ag61
ag62
ag19
ag148
ag20
ag21
ag66
ag22
ag23
ag24
ag27
ag28
ag149
ag29
ag30
ag136
ag31
ag83
ag33
ag34
ag138
ag84
ag86
ag69
ag87
ag88
ag70
ag71
ag72
ag202
ag140
ag171
ag119
ag92
ag93
ag51
ag94
atbsg54
NstRp246
ag2
(g3
(dp247
g5
g6
(g7
(I0
tS'b'
tRp248
(I1
(I42
tg10
I00
(lp249
g59
ag108
ag13
ag14
ag15
ag17
ag81
ag18
ag61
ag62
ag63
ag64
ag19
ag20
ag66
ag22
ag23
ag24
ag26
ag27
ag28
ag68
ag29
ag30
ag31
ag33
ag34
ag35
ag70
ag38
ag112
ag41
ag42
ag43
ag45
ag47
ag75
ag51
ag76
ag94
ag151
ag95
atbsg54
NstRp250
ag2
(g3
(dp251
g5
g6
(g7
(I0
tS'b'
tRp252
(I1
(I42
tg10
I00
(lp253
g13
ag15
ag156
ag17
ag81
ag18
ag61
ag62
ag64
ag19
ag65
ag20
ag66
ag22
ag23
ag24
ag27
ag28
ag149
ag68
ag29
ag30
ag31
ag34
ag69
ag87
ag70
ag37
ag150
ag169
ag114
ag71
ag41
ag90
ag116
ag43
ag119
ag73
ag121
ag51
ag94
ag95
atbsg54
NstRp254
ag2
(g3
(dp255
g5
g6
(g7
(I0
tS'b'
tRp256
(I1
(I42
tg10
I00
(lp257
g12
ag13
ag14
ag15
ag17
ag18
ag61
ag62
ag64
ag19
ag65
ag20
ag21
ag66
ag22
ag23
ag24
ag67
ag27
ag28
ag29
ag30
ag31
ag34
ag69
ag37
ag112
ag41
ag42
ag43
ag74
ag45
ag46
ag47
ag75
ag50
ag51
ag76
ag94
ag95
ag127
ag129
atbsg54
NstRp258
ag2
(g3
(dp259
g5
g6
(g7
(I0
tS'b'
tRp260
(I1
(I42
tg10
I00
(lp261
g59
ag13
ag15
ag145
ag17
ag18
ag61
ag62
ag63
ag64
ag19
ag20
ag21
ag66
ag22
ag23
ag24
ag26
ag67
ag27
ag28
ag29
ag30
ag82
ag31
ag33
ag34
ag69
ag87
ag70
ag37
ag197
ag89
ag72
ag202
ag171
ag119
ag73
ag93
ag51
ag76
ag94
atbsg54
NstRp262
ag2
(g3
(dp263
g5
g6
(g7
(I0
tS'b'
tRp264
(I1
(I83
tg10
I00
(lp265
g59
ag107
ag12
ag108
ag13
ag14
ag15
ag156
ag145
ag100
ag17
ag109
ag18
ag164
ag61
ag62
ag64
ag19
ag65
ag20
ag21
ag22
ag23
ag24
ag25
ag26
ag67
ag27
ag28
ag149
ag110
ag165
ag68
ag29
ag30
ag82
ag31
ag83
ag34
ag35
ag69
ag37
ag150
ag38
ag112
ag39
ag114
ag40
ag41
ag42
ag197
ag170
ag90
ag116
ag43
ag202
ag44
ag118
ag119
ag74
ag45
ag175
ag177
ag120
ag46
ag234
ag121
ag122
ag48
ag75
ag123
ag51
ag76
ag94
ag52
ag95
ag53
ag181
ag128
ag237
ag129
ag185
ag186
atbsg54
NstRp266
ag2
(g3
(dp267
g5
g6
(g7
(I0
tS'b'
tRp268
(I1
(I42
tg10
I00
(lp269
g108
ag13
ag14
ag15
ag17
ag18
ag19
ag65
ag20
ag21
ag66
ag22
ag23
ag24
ag67
ag27
ag28
ag149
ag68
ag29
ag30
ag31
ag33
ag34
ag35
ag37
ag38
ag41
ag42
ag90
ag44
ag74
ag177
ag121
ag122
ag48
ag51
ag76
ag94
ag52
ag95
ag53
atbsg54
NstRp270
ag2
(g3
(dp271
g5
g6
(g7
(I0
tS'b'
tRp272
(I1
(I42
tg10
I00
(lp273
g13
ag17
ag61
ag62
ag64
ag65
ag20
ag21
ag66
ag22
ag23
ag24
ag27
ag28
ag68
ag29
ag30
ag82
ag31
ag32
ag33
ag137
ag138
ag69
ag36
ag88
ag70
ag114
ag230
ag115
ag116
ag72
ag43
ag117
ag118
ag92
ag73
ag93
ag51
ag94
ag151
ag95
atbsg54
NstRp274
ag2
(g3
(dp275
g5
g6
(g7
(I0
tS'b'
tRp276
(I1
(I83
tg10
I00
(lp277
g105
ag59
ag60
ag12
ag108
ag13
ag15
ag16
ag100
ag17
ag81
ag18
ag164
ag61
ag62
ag63
ag64
ag19
ag65
ag20
ag21
ag66
ag22
ag23
ag24
ag25
ag67
ag27
ag28
ag110
ag165
ag68
ag29
ag30
ag82
ag136
ag31
ag33
ag34
ag35
ag69
ag37
ag150
ag38
ag112
ag39
ag114
ag40
ag41
ag42
ag115
ag170
ag89
ag90
ag116
ag72
ag43
ag202
ag117
ag171
ag44
ag91
ag118
ag119
ag74
ag45
ag177
ag120
ag46
ag121
ag47
ag122
ag48
ag49
ag75
ag50
ag51
ag124
ag76
ag94
ag52
ag53
ag129
atbsg54
NstRp278
ag2
(g3
(dp279
g5
g6
(g7
(I0
tS'b'
tRp280
(I1
(I42
tg10
I00
(lp281
g59
ag108
ag15
ag17
ag61
ag62
ag64
ag65
ag148
ag20
ag21
ag66
ag22
ag23
ag24
ag25
ag67
ag27
ag28
ag29
ag30
ag82
ag31
ag33
ag34
ag86
ag69
ag87
ag71
ag72
ag171
ag119
ag92
ag73
ag93
ag45
ag47
ag51
ag76
ag94
ag151
ag95
atbsg54
NstRp282
ag2
(g3
(dp283
g5
g6
(g7
(I0
tS'b'
tRp284
(I1
(I165
tg10
I00
(lp285
g105
ag106
ag59
ag107
ag223
ag60
ag12
ag108
ag13
ag163
ag14
ag15
ag156
ag145
ag16
ag146
ag100
ag17
ag109
ag81
ag18
ag164
ag147
ag61
ag62
ag224
ag225
ag63
ag64
ag19
ag65
ag148
ag20
ag226
ag21
ag66
ag22
ag23
ag24
ag25
ag26
ag67
ag27
ag28
ag149
ag110
ag227
ag165
ag68
ag228
ag29
ag30
ag82
ag136
ag31
ag83
ag32
ag33
ag137
ag34
ag138
ag84
ag85
ag86
ag35
ag69
ag36
ag87
ag88
ag70
ag37
ag166
ag150
ag111
ag229
ag38
ag112
ag167
ag113
ag168
ag169
ag39
ag114
ag71
ag40
ag41
ag42
ag230
ag197
ag115
ag170
ag89
ag90
ag116
ag139
ag72
ag231
ag43
ag202
ag140
ag117
ag171
ag44
ag91
ag118
ag119
ag92
ag73
ag93
ag74
ag172
ag173
ag174
ag45
ag175
ag176
ag157
ag177
ag120
ag46
ag232
ag233
ag234
ag121
ag47
ag122
ag48
ag49
ag75
ag178
ag235
ag123
ag50
ag51
ag124
ag125
ag76
ag94
ag52
ag151
ag95
ag126
ag127
ag53
ag158
ag179
ag180
ag181
ag236
ag182
ag128
ag237
ag129
ag183
ag238
ag239
ag184
ag185
ag130
ag186
ag240
ag241
ag131
ag187
ag188
atbsg54
NstRp286
ag2
(g3
(dp287
g5
g6
(g7
(I0
tS'b'
tRp288
(I1
(I42
tg10
I00
(lp289
g12
ag13
ag15
ag16
ag146
ag17
ag81
ag18
ag61
ag62
ag64
ag19
ag20
ag21
ag22
ag23
ag24
ag27
ag28
ag110
ag68
ag29
ag30
ag31
ag33
ag34
ag35
ag69
ag37
ag41
ag42
ag115
ag90
ag116
ag43
ag140
ag44
ag91
ag45
ag48
ag51
ag94
atbsg54
NstRp290
ag2
(g3
(dp291
g5
g6
(g7
(I0
tS'b'
tRp292
(I1
(I42
tg10
I00
(lp293
g59
ag12
ag17
ag64
ag19
ag20
ag21
ag66
ag22
ag23
ag24
ag27
ag28
ag29
ag31
ag32
ag33
ag137
ag34
ag138
ag85
ag35
ag69
ag36
ag87
ag88
ag70
ag71
ag89
ag90
ag139
ag72
ag202
ag140
ag171
ag119
ag92
ag73
ag93
ag75
ag51
ag94
atbsg54
NstRp294
ag2
(g3
(dp295
g5
g6
(g7
(I0
tS'b'
tRp296
(I1
(I42
tg10
I00
(lp297
g107
ag60
ag12
ag15
ag17
ag19
ag20
ag21
ag22
ag23
ag24
ag25
ag26
ag27
ag28
ag110
ag68
ag29
ag30
ag136
ag31
ag34
ag69
ag37
ag166
ag38
ag39
ag41
ag42
ag115
ag90
ag43
ag44
ag74
ag45
ag46
ag49
ag123
ag51
ag76
ag94
ag52
atbsg54
NstRp298
ag2
(g3
(dp299
g5
g6
(g7
(I0
tS'b'
tRp300
(I1
(I42
tg10
I00
(lp301
g15
ag146
ag17
ag18
ag63
ag64
ag65
ag20
ag66
ag22
ag23
ag24
ag27
ag28
ag29
ag30
ag136
ag31
ag32
ag33
ag34
ag84
ag85
ag86
ag69
ag87
ag88
ag70
ag72
ag119
ag92
ag93
ag120
ag47
ag48
ag75
ag51
ag76
ag94
ag95
ag129
ag238
atbsg54
NstRp302
ag2
(g3
(dp303
g5
g6
(g7
(I0
tS'b'
tRp304
(I1
(I42
tg10
I00
(lp305
g15
ag17
ag18
ag61
ag62
ag64
ag19
ag20
ag66
ag22
ag23
ag24
ag67
ag27
ag28
ag228
ag29
ag30
ag31
ag32
ag33
ag137
ag34
ag138
ag85
ag35
ag87
ag88
ag70
ag197
ag89
ag90
ag72
ag202
ag140
ag171
ag119
ag73
ag48
ag51
ag76
ag94
atbsg54
NstRp306
ag2
(g3
(dp307
g5
g6
(g7
(I0
tS'b'
tRp308
(I1
(I165
tg10
I00
(lp309
g105
ag106
ag59
ag107
ag223
ag60
ag12
ag108
ag13
ag163
ag14
ag15
ag156
ag145
ag16
ag146
ag100
ag17
ag109
ag81
ag18
ag164
ag147
ag61
ag62
ag224
ag225
ag63
ag64
ag19
ag65
ag148
ag20
ag226
ag21
ag66
ag22
ag23
ag24
ag25
ag26
ag67
ag27
ag28
ag149
ag110
ag227
ag165
ag68
ag228
ag29
ag30
ag82
ag136
ag31
ag83
ag32
ag33
ag137
ag34
ag138
ag84
ag85
ag86
ag35
ag69
ag36
ag87
ag88
ag70
ag37
ag166
ag150
ag111
ag229
ag38
ag112
ag167
ag113
ag168
ag169
ag39
ag114
ag71
ag40
ag41
ag42
ag230
ag197
ag115
ag170
ag89
ag90
ag116
ag139
ag72
ag231
ag43
ag202
ag140
ag117
ag171
ag44
ag91
ag118
ag119
ag92
ag73
ag93
ag74
ag172
ag173
ag174
ag45
ag175
ag176
ag157
ag177
ag120
ag46
ag232
ag233
ag234
ag121
ag47
ag122
ag48
ag49
ag75
ag178
ag235
ag123
ag50
ag51
ag124
ag125
ag76
ag94
ag52
ag151
ag95
ag126
ag127
ag53
ag158
ag179
ag180
ag181
ag236
ag182
ag128
ag237
ag129
ag183
ag238
ag239
ag184
ag185
ag130
ag186
ag240
ag241
ag131
ag187
ag188
atbsg54
NstRp310
ag2
(g3
(dp311
g5
g6
(g7
(I0
tS'b'
tRp312
(I1
(I42
tg10
I00
(lp313
g106
ag12
ag15
ag17
ag20
ag21
ag66
ag22
ag23
ag24
ag27
ag29
ag30
ag82
ag31
ag32
ag33
ag137
ag34
ag138
ag84
ag85
ag86
ag35
ag69
ag87
ag88
ag114
ag71
ag41
ag42
ag89
ag90
ag119
ag73
ag93
ag177
ag49
ag51
ag76
ag94
ag95
atbsg54
NstRp314
ag2
(g3
(dp315
g5
g6
(g7
(I0
tS'b'
tRp316
(I1
(I42
tg10
I00
(lp317
g17
ag18
ag61
ag62
ag64
ag65
ag148
ag20
ag21
ag66
ag22
ag23
ag24
ag67
ag27
ag28
ag29
ag136
ag31
ag83
ag32
ag33
ag34
ag138
ag84
ag85
ag86
ag35
ag69
ag87
ag88
ag70
ag72
ag202
ag140
ag171
ag91
ag119
ag92
ag93
ag51
ag94
atbsg54
NstRp318
ag2
(g3
(dp319
g5
g6
(g7
(I0
tS'b'
tRp320
(I1
(I42
tg10
I00
(lp321
g105
ag108
ag13
ag15
ag17
ag18
ag63
ag64
ag19
ag20
ag21
ag66
ag22
ag23
ag24
ag27
ag28
ag29
ag30
ag31
ag83
ag34
ag35
ag69
ag37
ag71
ag40
ag41
ag115
ag116
ag43
ag74
ag174
ag46
ag47
ag122
ag49
ag123
ag51
ag76
ag94
ag95
atbsg54
NstRp322
ag2
(g3
(dp323
g5
g6
(g7
(I0
tS'b'
tRp324
(I1
(I42
tg10
I00
(lp325
g15
ag17
ag18
ag63
ag64
ag19
ag20
ag66
ag22
ag23
ag24
ag27
ag28
ag68
ag29
ag30
ag31
ag83
ag33
ag34
ag138
ag84
ag85
ag86
ag69
ag87
ag88
ag70
ag197
ag115
ag116
ag72
ag43
ag140
ag119
ag92
ag73
ag93
ag51
ag76
ag94
ag95
atbsg54
NstRp326
ag2
(g3
(dp327
g5
g6
(g7
(I0
tS'b'
tRp328
(I1
(I124
tg10
I00
(lp329
g105
ag106
ag223
ag60
ag12
ag13
ag163
ag14
ag15
ag156
ag145
ag16
ag146
ag100
ag17
ag109
ag81
ag18
ag164
ag147
ag61
ag62
ag64
ag19
ag65
ag148
ag20
ag226
ag21
ag66
ag22
ag23
ag24
ag25
ag26
ag67
ag27
ag28
ag149
ag110
ag165
ag68
ag228
ag29
ag30
ag82
ag136
ag31
ag83
ag33
ag137
ag34
ag84
ag69
ag36
ag87
ag88
ag70
ag37
ag150
ag229
ag112
ag167
ag113
ag168
ag169
ag39
ag114
ag71
ag41
ag42
ag230
ag197
ag170
ag90
ag116
ag72
ag43
ag140
ag44
ag91
ag118
ag119
ag92
ag73
ag93
ag74
ag174
ag45
ag176
ag157
ag177
ag120
ag46
ag233
ag234
ag47
ag122
ag48
ag49
ag75
ag178
ag50
ag51
ag124
ag76
ag94
ag52
ag151
ag95
ag126
ag127
ag53
ag158
ag179
ag180
ag181
ag236
ag182
ag238
ag240
ag241
ag131
ag187
atbsg54
NstRp330
ag2
(g3
(dp331
g5
g6
(g7
(I0
tS'b'
tRp332
(I1
(I42
tg10
I00
(lp333
g108
ag13
ag15
ag17
ag18
ag64
ag19
ag65
ag20
ag21
ag22
ag23
ag24
ag25
ag26
ag27
ag28
ag110
ag68
ag29
ag30
ag31
ag137
ag34
ag69
ag37
ag38
ag39
ag41
ag115
ag90
ag43
ag44
ag177
ag120
ag46
ag75
ag51
ag124
ag52
ag53
ag129
atbsg54
NstRp334
ag2
(g3
(dp335
g5
g6
(g7
(I0
tS'b'
tRp336
(I1
(I83
tg10
I00
(lp337
g105
ag107
ag60
ag12
ag108
ag15
ag100
ag17
ag109
ag81
ag18
ag63
ag19
ag148
ag20
ag226
ag21
ag66
ag22
ag23
ag24
ag25
ag26
ag27
ag28
ag110
ag68
ag29
ag30
ag82
ag31
ag33
ag34
ag35
ag36
ag87
ag37
ag166
ag150
ag38
ag168
ag169
ag39
ag40
ag41
ag42
ag115
ag170
ag89
ag90
ag116
ag43
ag44
ag74
ag45
ag175
ag176
ag177
ag120
ag46
ag121
ag47
ag122
ag48
ag49
ag75
ag123
ag50
ag51
ag124
ag125
ag76
ag94
ag52
ag126
ag127
ag53
ag158
ag179
ag128
ag129
ag185
ag130
atbsg54
NstRp338
ag2
(g3
(dp339
g5
g6
(g7
(I0
tS'b'
tRp340
(I1
(I42
tg10
I00
(lp341
g12
ag17
ag81
ag18
ag64
ag19
ag65
ag20
ag66
ag22
ag23
ag24
ag27
ag28
ag228
ag29
ag30
ag136
ag31
ag83
ag32
ag33
ag137
ag34
ag138
ag84
ag85
ag86
ag35
ag69
ag36
ag87
ag88
ag70
ag89
ag72
ag43
ag119
ag92
ag73
ag93
ag51
atbsg54
NstRp342
ag2
(g3
(dp343
g5
g6
(g7
(I0
tS'b'
tRp344
(I1
(I42
tg10
I00
(lp345
g13
ag64
ag65
ag148
ag20
ag226
ag66
ag22
ag23
ag24
ag27
ag28
ag29
ag82
ag136
ag31
ag83
ag32
ag33
ag137
ag34
ag138
ag84
ag85
ag86
ag35
ag69
ag36
ag87
ag88
ag70
ag37
ag71
ag89
ag43
ag117
ag171
ag91
ag73
ag93
ag51
ag241
atbsg54
NstRp346
ag2
(g3
(dp347
g5
g6
(g7
(I0
tS'b'
tRp348
(I1
(I42
tg10
I00
(lp349
g13
ag15
ag16
ag17
ag81
ag18
ag61
ag62
ag64
ag20
ag21
ag66
ag22
ag23
ag24
ag67
ag27
ag28
ag29
ag30
ag31
ag33
ag34
ag86
ag69
ag87
ag70
ag37
ag169
ag71
ag41
ag89
ag202
ag45
ag47
ag48
ag75
ag51
ag76
ag94
ag53
ag129
atbsg54
NstRp350
ag2
(g3
(dp351
g5
g6
(g7
(I0
tS'b'
tRp352
(I1
(I124
tg10
I00
(lp353
g105
ag106
ag107
ag223
ag60
ag12
ag108
ag13
ag163
ag14
ag15
ag16
ag146
ag100
ag17
ag109
ag81
ag18
ag147
ag61
ag62
ag64
ag19
ag65
ag20
ag226
ag21
ag66
ag22
ag23
ag24
ag25
ag26
ag67
ag27
ag28
ag149
ag110
ag227
ag165
ag68
ag29
ag30
ag82
ag136
ag31
ag83
ag33
ag137
ag34
ag138
ag84
ag35
ag69
ag36
ag87
ag88
ag150
ag38
ag112
ag169
ag39
ag114
ag40
ag41
ag42
ag197
ag115
ag170
ag89
ag90
ag116
ag72
ag231
ag43
ag202
ag140
ag117
ag171
ag44
ag118
ag119
ag73
ag74
ag172
ag173
ag174
ag45
ag176
ag157
ag177
ag120
ag46
ag121
ag47
ag122
ag48
ag49
ag75
ag123
ag50
ag51
ag124
ag125
ag76
ag94
ag52
ag151
ag95
ag126
ag53
ag158
ag179
ag182
ag128
ag237
ag129
ag183
ag238
ag239
ag184
ag240
ag241
ag131
atbsg54
NstRp354
ag2
(g3
(dp355
g5
g6
(g7
(I0
tS'b'
tRp356
(I1
(I124
tg10
I00
(lp357
g105
ag106
ag59
ag107
ag223
ag60
ag12
ag108
ag13
ag14
ag15
ag156
ag145
ag16
ag100
ag17
ag109
ag81
ag18
ag164
ag61
ag62
ag63
ag64
ag19
ag65
ag148
ag20
ag226
ag21
ag66
ag22
ag23
ag24
ag25
ag26
ag67
ag27
ag28
ag110
ag165
ag68
ag29
ag30
ag82
ag136
ag31
ag83
ag33
ag137
ag34
ag84
ag86
ag35
ag69
ag36
ag87
ag88
ag37
ag166
ag150
ag111
ag229
ag38
ag112
ag113
ag169
ag39
ag114
ag41
ag42
ag230
ag197
ag115
ag89
ag90
ag116
ag139
ag72
ag231
ag43
ag202
ag140
ag44
ag91
ag118
ag119
ag73
ag93
ag74
ag172
ag174
ag45
ag175
ag176
ag177
ag120
ag46
ag121
ag47
ag122
ag48
ag49
ag75
ag50
ag51
ag124
ag76
ag94
ag52
ag151
ag95
ag126
ag127
ag53
ag179
ag180
ag181
ag128
ag237
ag129
ag184
ag240
ag241
atbsg54
NstRp358
ag2
(g3
(dp359
g5
g6
(g7
(I0
tS'b'
tRp360
(I1
(I165
tg10
I00
(lp361
g105
ag106
ag59
ag107
ag223
ag60
ag12
ag108
ag13
ag163
ag14
ag15
ag156
ag145
ag16
ag146
ag100
ag17
ag109
ag81
ag18
ag164
ag147
ag61
ag62
ag224
ag225
ag63
ag64
ag19
ag65
ag148
ag20
ag226
ag21
ag66
ag22
ag23
ag24
ag25
ag26
ag67
ag27
ag28
ag149
ag110
ag227
ag165
ag68
ag228
ag29
ag30
ag82
ag136
ag31
ag83
ag32
ag33
ag137
ag34
ag138
ag84
ag85
ag86
ag35
ag69
ag36
ag87
ag88
ag70
ag37
ag166
ag150
ag111
ag229
ag38
ag112
ag167
ag113
ag168
ag169
ag39
ag114
ag71
ag40
ag41
ag42
ag230
ag197
ag115
ag170
ag89
ag90
ag116
ag139
ag72
ag231
ag43
ag202
ag140
ag117
ag171
ag44
ag91
ag118
ag119
ag92
ag73
ag93
ag74
ag172
ag173
ag174
ag45
ag175
ag176
ag157
ag177
ag120
ag46
ag232
ag233
ag234
ag121
ag47
ag122
ag48
ag49
ag75
ag178
ag235
ag123
ag50
ag51
ag124
ag125
ag76
ag94
ag52
ag151
ag95
ag126
ag127
ag53
ag158
ag179
ag180
ag181
ag236
ag182
ag128
ag237
ag129
ag183
ag238
ag239
ag184
ag185
ag130
ag186
ag240
ag241
ag131
ag187
ag188
atbsg54
NstRp362
ag2
(g3
(dp363
g5
g6
(g7
(I0
tS'b'
tRp364
(I1
(I124
tg10
I00
(lp365
g59
ag107
ag223
ag12
ag108
ag13
ag163
ag14
ag15
ag156
ag145
ag16
ag146
ag100
ag17
ag109
ag81
ag18
ag164
ag147
ag61
ag62
ag63
ag64
ag19
ag65
ag20
ag21
ag66
ag22
ag23
ag24
ag25
ag26
ag67
ag27
ag28
ag149
ag110
ag165
ag68
ag29
ag30
ag82
ag136
ag31
ag83
ag32
ag33
ag137
ag34
ag138
ag84
ag35
ag69
ag36
ag87
ag37
ag150
ag111
ag38
ag112
ag113
ag39
ag114
ag71
ag40
ag41
ag42
ag230
ag115
ag170
ag89
ag90
ag116
ag139
ag72
ag231
ag43
ag202
ag140
ag117
ag171
ag44
ag91
ag118
ag119
ag73
ag74
ag172
ag174
ag45
ag175
ag177
ag120
ag46
ag47
ag122
ag48
ag49
ag75
ag178
ag123
ag51
ag124
ag76
ag94
ag52
ag95
ag126
ag127
ag53
ag158
ag179
ag180
ag181
ag236
ag128
ag237
ag129
ag185
ag130
ag186
ag187
atbsg54
NstRp366
ag2
(g3
(dp367
g5
g6
(g7
(I0
tS'b'
tRp368
(I1
(I42
tg10
I00
(lp369
g13
ag15
ag17
ag18
ag61
ag62
ag19
ag20
ag21
ag66
ag22
ag23
ag24
ag26
ag67
ag27
ag28
ag29
ag30
ag31
ag34
ag35
ag69
ag38
ag41
ag42
ag115
ag74
ag172
ag45
ag120
ag47
ag122
ag49
ag51
ag124
ag76
ag94
ag52
ag53
ag129
ag183
atbsg54
NstRp370
ag2
(g3
(dp371
g5
g6
(g7
(I0
tS'b'
tRp372
(I1
(I42
tg10
I00
(lp373
g12
ag15
ag16
ag17
ag81
ag18
ag61
ag62
ag19
ag20
ag21
ag66
ag22
ag23
ag24
ag67
ag27
ag28
ag29
ag30
ag31
ag34
ag69
ag39
ag114
ag41
ag42
ag116
ag72
ag43
ag118
ag45
ag47
ag122
ag48
ag75
ag50
ag51
ag76
ag94
ag151
ag95
atbsg54
NstRp374
ag2
(g3
(dp375
g5
g6
(g7
(I0
tS'b'
tRp376
(I1
(I83
tg10
I00
(lp377
g12
ag13
ag163
ag15
ag16
ag146
ag17
ag81
ag18
ag61
ag62
ag63
ag19
ag148
ag20
ag21
ag22
ag23
ag24
ag25
ag26
ag67
ag27
ag28
ag110
ag68
ag29
ag30
ag82
ag136
ag31
ag83
ag32
ag33
ag137
ag34
ag85
ag35
ag69
ag37
ag150
ag111
ag38
ag112
ag169
ag39
ag114
ag41
ag42
ag115
ag89
ag90
ag116
ag72
ag231
ag43
ag140
ag44
ag74
ag173
ag45
ag176
ag120
ag46
ag121
ag47
ag122
ag48
ag49
ag75
ag123
ag50
ag51
ag76
ag94
ag52
ag95
ag127
ag53
ag128
ag237
ag129
ag238
atbsg54
NstRp378
ag2
(g3
(dp379
g5
g6
(g7
(I0
tS'b'
tRp380
(I1
(I83
tg10
I00
(lp381
g59
ag108
ag13
ag14
ag15
ag146
ag100
ag17
ag109
ag18
ag164
ag61
ag62
ag63
ag64
ag19
ag65
ag148
ag20
ag21
ag66
ag22
ag23
ag24
ag67
ag27
ag28
ag29
ag30
ag31
ag32
ag33
ag34
ag138
ag84
ag85
ag86
ag35
ag69
ag36
ag87
ag88
ag70
ag37
ag39
ag114
ag40
ag197
ag170
ag89
ag139
ag72
ag43
ag202
ag140
ag171
ag44
ag91
ag119
ag92
ag73
ag93
ag74
ag172
ag45
ag176
ag177
ag47
ag48
ag75
ag178
ag50
ag51
ag76
ag94
ag52
ag151
ag95
ag127
ag53
ag158
ag128
ag184
atbsg54
NstRp382
ag2
(g3
(dp383
g5
g6
(g7
(I0
tS'b'
tRp384
(I1
(I83
tg10
I00
(lp385
g105
ag106
ag107
ag60
ag12
ag13
ag14
ag15
ag17
ag109
ag18
ag61
ag62
ag19
ag148
ag20
ag21
ag66
ag22
ag23
ag24
ag25
ag26
ag27
ag28
ag110
ag165
ag68
ag29
ag30
ag82
ag31
ag32
ag33
ag34
ag35
ag87
ag37
ag150
ag111
ag38
ag167
ag113
ag39
ag114
ag71
ag40
ag41
ag42
ag115
ag170
ag90
ag43
ag202
ag117
ag44
ag119
ag92
ag73
ag74
ag174
ag45
ag176
ag120
ag46
ag47
ag122
ag48
ag49
ag75
ag178
ag123
ag50
ag51
ag124
ag76
ag94
ag52
ag126
ag53
ag185
ag130
ag186
atbsg54
NstRp386
ag2
(g3
(dp387
g5
g6
(g7
(I0
tS'b'
tRp388
(I1
(I42
tg10
I00
(lp389
g105
ag15
ag17
ag18
ag19
ag20
ag21
ag22
ag23
ag24
ag25
ag26
ag27
ag28
ag29
ag30
ag31
ag33
ag34
ag138
ag35
ag69
ag37
ag166
ag38
ag39
ag114
ag40
ag41
ag42
ag115
ag90
ag43
ag44
ag45
ag122
ag123
ag51
ag124
ag76
ag94
ag52
atbsg54
NstRp390
ag2
(g3
(dp391
g5
g6
(g7
(I0
tS'b'
tRp392
(I1
(I42
tg10
I00
(lp393
g12
ag15
ag16
ag17
ag81
ag18
ag64
ag65
ag20
ag21
ag66
ag22
ag23
ag24
ag67
ag27
ag29
ag30
ag136
ag31
ag83
ag33
ag34
ag84
ag86
ag69
ag87
ag88
ag70
ag72
ag202
ag140
ag171
ag91
ag119
ag92
ag73
ag93
ag51
ag94
ag151
ag95
atbsg54
NstRp394
ag2
(g3
(dp395
g5
g6
(g7
(I0
tS'b'
tRp396
(I1
(I42
tg10
I00
(lp397
g59
ag12
ag13
ag15
ag16
ag17
ag18
ag61
ag62
ag64
ag20
ag21
ag66
ag22
ag23
ag24
ag26
ag27
ag28
ag29
ag30
ag31
ag33
ag34
ag69
ag88
ag37
ag39
ag41
ag42
ag90
ag72
ag43
ag44
ag45
ag177
ag122
ag75
ag51
ag76
ag94
ag52
atbsg54
NstRp398
ag2
(g3
(dp399
g5
g6
(g7
(I0
tS'b'
tRp400
(I1
(I42
tg10
I00
(lp401
g15
ag17
ag18
ag64
ag20
ag21
ag66
ag22
ag23
ag24
ag27
ag28
ag29
ag30
ag82
ag136
ag31
ag83
ag32
ag33
ag137
ag34
ag138
ag84
ag85
ag86
ag35
ag69
ag36
ag87
ag88
ag70
ag71
ag41
ag89
ag90
ag119
ag92
ag73
ag51
ag76
ag95
atbsg54
NstRp402
ag2
(g3
(dp403
g5
g6
(g7
(I0
tS'b'
tRp404
(I1
(I42
tg10
I00
(lp405
g13
ag15
ag16
ag100
ag17
ag81
ag18
ag61
ag62
ag63
ag64
ag19
ag20
ag21
ag66
ag22
ag23
ag24
ag67
ag27
ag28
ag29
ag30
ag31
ag33
ag34
ag69
ag70
ag38
ag41
ag44
ag119
ag74
ag45
ag122
ag48
ag51
ag76
ag94
ag52
ag151
ag95
atbsg54
NstRp406
ag2
(g3
(dp407
g5
g6
(g7
(I0
tS'b'
tRp408
(I1
(I42
tg10
I00
(lp409
g13
ag16
ag17
ag18
ag61
ag62
ag64
ag19
ag65
ag20
ag21
ag66
ag22
ag23
ag24
ag27
ag28
ag29
ag30
ag31
ag33
ag34
ag84
ag86
ag69
ag87
ag88
ag70
ag71
ag197
ag89
ag139
ag72
ag202
ag140
ag171
ag119
ag92
ag73
ag93
ag51
ag94
atbsg54
NstRp410
ag2
(g3
(dp411
g5
g6
(g7
(I0
tS'b'
tRp412
(I1
(I42
tg10
I00
(lp413
g108
ag13
ag15
ag145
ag16
ag17
ag81
ag18
ag164
ag61
ag62
ag63
ag64
ag19
ag20
ag66
ag22
ag23
ag24
ag27
ag28
ag29
ag30
ag136
ag31
ag83
ag33
ag34
ag84
ag86
ag69
ag87
ag70
ag37
ag202
ag140
ag171
ag119
ag92
ag93
ag51
ag94
atbsg54
NstRp414
ag2
(g3
(dp415
g5
g6
(g7
(I0
tS'b'
tRp416
(I1
(I83
tg10
I00
(lp417
g106
ag107
ag60
ag12
ag13
ag163
ag14
ag15
ag145
ag16
ag17
ag109
ag81
ag18
ag61
ag62
ag19
ag65
ag20
ag21
ag22
ag23
ag24
ag25
ag26
ag67
ag27
ag28
ag110
ag68
ag29
ag30
ag82
ag136
ag31
ag32
ag33
ag34
ag84
ag35
ag69
ag36
ag87
ag88
ag37
ag166
ag150
ag111
ag38
ag112
ag39
ag114
ag71
ag40
ag41
ag42
ag115
ag89
ag90
ag43
ag44
ag119
ag92
ag74
ag173
ag176
ag120
ag46
ag121
ag47
ag122
ag48
ag49
ag123
ag50
ag51
ag124
ag76
ag94
ag52
ag126
ag127
ag53
atbsg54
NstRp418
ag2
(g3
(dp419
g5
g6
(g7
(I0
tS'b'
tRp420
(I1
(I124
tg10
I00
(lp421
g105
ag106
ag59
ag107
ag12
ag108
ag13
ag14
ag15
ag145
ag146
ag100
ag17
ag109
ag81
ag18
ag147
ag61
ag62
ag63
ag64
ag19
ag65
ag20
ag226
ag21
ag66
ag22
ag23
ag24
ag25
ag26
ag67
ag27
ag28
ag149
ag110
ag165
ag68
ag228
ag29
ag30
ag82
ag136
ag31
ag83
ag32
ag33
ag137
ag34
ag138
ag85
ag35
ag69
ag36
ag87
ag88
ag37
ag150
ag111
ag38
ag112
ag167
ag168
ag169
ag39
ag114
ag71
ag40
ag41
ag42
ag230
ag197
ag115
ag170
ag89
ag90
ag116
ag72
ag231
ag43
ag202
ag140
ag117
ag44
ag119
ag74
ag173
ag45
ag175
ag176
ag157
ag177
ag120
ag46
ag121
ag47
ag122
ag48
ag49
ag178
ag123
ag50
ag51
ag124
ag76
ag94
ag52
ag95
ag126
ag127
ag53
ag179
ag180
ag236
ag182
ag128
ag237
ag129
ag238
ag239
ag240
ag241
ag131
atbsg54
NstRp422
ag2
(g3
(dp423
g5
g6
(g7
(I0
tS'b'
tRp424
(I1
(I83
tg10
I00
(lp425
g105
ag106
ag59
ag108
ag13
ag14
ag15
ag145
ag146
ag17
ag109
ag81
ag18
ag164
ag61
ag62
ag63
ag64
ag148
ag20
ag21
ag66
ag22
ag23
ag24
ag25
ag26
ag67
ag27
ag28
ag110
ag68
ag29
ag30
ag82
ag136
ag31
ag83
ag33
ag34
ag35
ag69
ag36
ag37
ag150
ag38
ag112
ag39
ag40
ag41
ag42
ag115
ag90
ag43
ag202
ag140
ag171
ag118
ag119
ag74
ag45
ag176
ag177
ag46
ag47
ag122
ag48
ag49
ag75
ag178
ag51
ag124
ag76
ag94
ag52
ag95
ag179
ag128
ag237
ag129
ag183
ag130
ag187
atbsg54
NstRp426
ag2
(g3
(dp427
g5
g6
(g7
(I0
tS'b'
tRp428
(I1
(I42
tg10
I00
(lp429
g14
ag15
ag17
ag81
ag18
ag64
ag19
ag65
ag20
ag21
ag66
ag22
ag23
ag24
ag25
ag67
ag27
ag28
ag110
ag29
ag30
ag31
ag34
ag69
ag37
ag114
ag71
ag41
ag42
ag116
ag43
ag44
ag91
ag92
ag74
ag177
ag120
ag122
ag51
ag94
ag52
ag129
atbsg54
NstRp430
ag2
(g3
(dp431
g5
g6
(g7
(I0
tS'b'
tRp432
(I1
(I165
tg10
I00
(lp433
g105
ag106
ag59
ag107
ag223
ag60
ag12
ag108
ag13
ag163
ag14
ag15
ag156
ag145
ag16
ag146
ag100
ag17
ag109
ag81
ag18
ag164
ag147
ag61
ag62
ag224
ag225
ag63
ag64
ag19
ag65
ag148
ag20
ag226
ag21
ag66
ag22
ag23
ag24
ag25
ag26
ag67
ag27
ag28
ag149
ag110
ag227
ag165
ag68
ag228
ag29
ag30
ag82
ag136
ag31
ag83
ag32
ag33
ag137
ag34
ag138
ag84
ag85
ag86
ag35
ag69
ag36
ag87
ag88
ag70
ag37
ag166
ag150
ag111
ag229
ag38
ag112
ag167
ag113
ag168
ag169
ag39
ag114
ag71
ag40
ag41
ag42
ag230
ag197
ag115
ag170
ag89
ag90
ag116
ag139
ag72
ag231
ag43
ag202
ag140
ag117
ag171
ag44
ag91
ag118
ag119
ag92
ag73
ag93
ag74
ag172
ag173
ag174
ag45
ag175
ag176
ag157
ag177
ag120
ag46
ag232
ag233
ag234
ag121
ag47
ag122
ag48
ag49
ag75
ag178
ag235
ag123
ag50
ag51
ag124
ag125
ag76
ag94
ag52
ag151
ag95
ag126
ag127
ag53
ag158
ag179
ag180
ag181
ag236
ag182
ag128
ag237
ag129
ag183
ag238
ag239
ag184
ag185
ag130
ag186
ag240
ag241
ag131
ag187
ag188
atbsg54
NstRp434
ag2
(g3
(dp435
g5
g6
(g7
(I0
tS'b'
tRp436
(I1
(I165
tg10
I00
(lp437
g105
ag106
ag59
ag107
ag223
ag60
ag12
ag108
ag13
ag163
ag14
ag15
ag156
ag145
ag16
ag146
ag100
ag17
ag109
ag81
ag18
ag164
ag147
ag61
ag62
ag224
ag225
ag63
ag64
ag19
ag65
ag148
ag20
ag226
ag21
ag66
ag22
ag23
ag24
ag25
ag26
ag67
ag27
ag28
ag149
ag110
ag227
ag165
ag68
ag228
ag29
ag30
ag82
ag136
ag31
ag83
ag32
ag33
ag137
ag34
ag138
ag84
ag85
ag86
ag35
ag69
ag36
ag87
ag88
ag70
ag37
ag166
ag150
ag111
ag229
ag38
ag112
ag167
ag113
ag168
ag169
ag39
ag114
ag71
ag40
ag41
ag42
ag230
ag197
ag115
ag170
ag89
ag90
ag116
ag139
ag72
ag231
ag43
ag202
ag140
ag117
ag171
ag44
ag91
ag118
ag119
ag92
ag73
ag93
ag74
ag172
ag173
ag174
ag45
ag175
ag176
ag157
ag177
ag120
ag46
ag232
ag233
ag234
ag121
ag47
ag122
ag48
ag49
ag75
ag178
ag235
ag123
ag50
ag51
ag124
ag125
ag76
ag94
ag52
ag151
ag95
ag126
ag127
ag53
ag158
ag179
ag180
ag181
ag236
ag182
ag128
ag237
ag129
ag183
ag238
ag239
ag184
ag185
ag130
ag186
ag240
ag241
ag131
ag187
ag188
atbsg54
NstRp438
ag2
(g3
(dp439
g5
g6
(g7
(I0
tS'b'
tRp440
(I1
(I42
tg10
I00
(lp441
g13
ag15
ag145
ag100
ag17
ag18
ag147
ag61
ag62
ag64
ag65
ag148
ag20
ag21
ag66
ag22
ag23
ag24
ag27
ag28
ag110
ag29
ag30
ag31
ag33
ag34
ag69
ag87
ag70
ag37
ag71
ag197
ag89
ag90
ag119
ag73
ag93
ag121
ag51
ag94
ag151
ag95
atbsg54
NstRp442
ag2
(g3
(dp443
g5
g6
(g7
(I0
tS'b'
tRp444
(I1
(I165
tg10
I00
(lp445
g105
ag106
ag59
ag107
ag223
ag60
ag12
ag108
ag13
ag163
ag14
ag15
ag156
ag145
ag16
ag146
ag100
ag17
ag109
ag81
ag18
ag164
ag147
ag61
ag62
ag224
ag225
ag63
ag64
ag19
ag65
ag148
ag20
ag226
ag21
ag66
ag22
ag23
ag24
ag25
ag26
ag67
ag27
ag28
ag149
ag110
ag227
ag165
ag68
ag228
ag29
ag30
ag82
ag136
ag31
ag83
ag32
ag33
ag137
ag34
ag138
ag84
ag85
ag86
ag35
ag69
ag36
ag87
ag88
ag70
ag37
ag166
ag150
ag111
ag229
ag38
ag112
ag167
ag113
ag168
ag169
ag39
ag114
ag71
ag40
ag41
ag42
ag230
ag197
ag115
ag170
ag89
ag90
ag116
ag139
ag72
ag231
ag43
ag202
ag140
ag117
ag171
ag44
ag91
ag118
ag119
ag92
ag73
ag93
ag74
ag172
ag173
ag174
ag45
ag175
ag176
ag157
ag177
ag120
ag46
ag232
ag233
ag234
ag121
ag47
ag122
ag48
ag49
ag75
ag178
ag235
ag123
ag50
ag51
ag124
ag125
ag76
ag94
ag52
ag151
ag95
ag126
ag127
ag53
ag158
ag179
ag180
ag181
ag236
ag182
ag128
ag237
ag129
ag183
ag238
ag239
ag184
ag185
ag130
ag186
ag240
ag241
ag131
ag187
ag188
atbsg54
NstRp446
ag2
(g3
(dp447
g5
g6
(g7
(I0
tS'b'
tRp448
(I1
(I42
tg10
I00
(lp449
g12
ag108
ag13
ag14
ag15
ag100
ag17
ag81
ag18
ag19
ag20
ag21
ag22
ag23
ag24
ag26
ag27
ag28
ag110
ag68
ag29
ag30
ag31
ag34
ag69
ag88
ag37
ag38
ag41
ag42
ag90
ag43
ag74
ag45
ag48
ag49
ag50
ag51
ag94
ag52
ag179
ag129
atbsg54
NstRp450
ag2
(g3
(dp451
g5
g6
(g7
(I0
tS'b'
tRp452
(I1
(I124
tg10
I00
(lp453
g106
ag59
ag223
ag60
ag12
ag13
ag163
ag14
ag15
ag156
ag16
ag146
ag100
ag17
ag109
ag81
ag18
ag61
ag62
ag63
ag64
ag19
ag65
ag148
ag20
ag21
ag66
ag22
ag23
ag24
ag25
ag26
ag67
ag27
ag28
ag149
ag110
ag68
ag228
ag29
ag30
ag82
ag136
ag31
ag83
ag32
ag33
ag137
ag34
ag138
ag84
ag85
ag86
ag35
ag69
ag36
ag87
ag88
ag70
ag37
ag150
ag111
ag38
ag113
ag169
ag39
ag114
ag71
ag40
ag41
ag42
ag230
ag197
ag115
ag170
ag89
ag90
ag116
ag139
ag72
ag231
ag43
ag202
ag140
ag117
ag171
ag44
ag91
ag119
ag92
ag73
ag93
ag74
ag174
ag45
ag177
ag120
ag46
ag234
ag121
ag122
ag48
ag75
ag178
ag123
ag50
ag51
ag76
ag94
ag52
ag151
ag95
ag126
ag127
ag53
ag179
ag180
ag236
ag182
ag128
ag237
ag129
ag183
ag240
atbsg54
NstRp454
ag2
(g3
(dp455
g5
g6
(g7
(I0
tS'b'
tRp456
(I1
(I42
tg10
I00
(lp457
g105
ag107
ag12
ag13
ag15
ag17
ag81
ag18
ag63
ag64
ag19
ag65
ag20
ag21
ag22
ag23
ag24
ag25
ag26
ag67
ag27
ag28
ag110
ag29
ag30
ag31
ag34
ag35
ag69
ag39
ag114
ag41
ag42
ag90
ag74
ag121
ag51
ag124
ag76
ag94
ag52
ag129
atbsg54
NstRp458
ag2
(g3
(dp459
g5
g6
(g7
(I0
tS'b'
tRp460
(I1
(I83
tg10
I00
(lp461
g105
ag12
ag13
ag15
ag16
ag100
ag17
ag18
ag61
ag62
ag63
ag19
ag65
ag20
ag21
ag22
ag23
ag24
ag25
ag26
ag27
ag28
ag110
ag165
ag68
ag29
ag30
ag82
ag31
ag83
ag32
ag33
ag137
ag34
ag85
ag35
ag69
ag36
ag87
ag37
ag150
ag111
ag38
ag112
ag113
ag168
ag39
ag114
ag71
ag40
ag41
ag42
ag115
ag89
ag90
ag43
ag171
ag44
ag118
ag119
ag92
ag74
ag45
ag176
ag177
ag46
ag47
ag122
ag48
ag49
ag51
ag76
ag94
ag52
ag127
ag53
ag179
ag128
ag237
ag129
ag238
ag185
ag187
atbsg54
NstRp462
ag2
(g3
(dp463
g5
g6
(g7
(I0
tS'b'
tRp464
(I1
(I42
tg10
I00
(lp465
g12
ag13
ag15
ag145
ag16
ag100
ag17
ag18
ag61
ag62
ag64
ag19
ag65
ag20
ag21
ag66
ag22
ag23
ag24
ag27
ag28
ag29
ag30
ag33
ag34
ag69
ag37
ag112
ag41
ag42
ag90
ag43
ag74
ag45
ag120
ag121
ag122
ag48
ag50
ag51
ag76
ag53
atbsg54
NstRp466
ag2
(g3
(dp467
g5
g6
(g7
(I0
tS'b'
tRp468
(I1
(I42
tg10
I00
(lp469
g12
ag108
ag13
ag15
ag16
ag100
ag17
ag81
ag61
ag62
ag63
ag64
ag19
ag20
ag21
ag22
ag23
ag24
ag67
ag27
ag28
ag68
ag29
ag30
ag34
ag35
ag38
ag39
ag41
ag42
ag116
ag139
ag45
ag177
ag75
ag51
ag76
ag94
ag95
ag53
ag179
ag129
atbsg54
NstRp470
ag2
(g3
(dp471
g5
g6
(g7
(I0
tS'b'
tRp472
(I1
(I42
tg10
I00
(lp473
g15
ag100
ag17
ag81
ag18
ag61
ag62
ag63
ag64
ag19
ag20
ag22
ag23
ag24
ag25
ag27
ag28
ag110
ag29
ag30
ag31
ag34
ag69
ag39
ag114
ag41
ag42
ag90
ag116
ag43
ag118
ag45
ag177
ag120
ag47
ag75
ag51
ag124
ag76
ag94
ag52
ag95
atbsg54
NstRp474
ag2
(g3
(dp475
g5
g6
(g7
(I0
tS'b'
tRp476
(I1
(I42
tg10
I00
(lp477
g12
ag108
ag13
ag15
ag16
ag17
ag18
ag61
ag62
ag63
ag64
ag19
ag20
ag21
ag66
ag22
ag23
ag24
ag67
ag27
ag28
ag149
ag29
ag30
ag31
ag33
ag34
ag86
ag69
ag87
ag70
ag41
ag90
ag72
ag43
ag92
ag93
ag122
ag48
ag51
ag76
ag94
atbsg54
NstRp478
ag2
(g3
(dp479
g5
g6
(g7
(I0
tS'b'
tRp480
(I1
(I42
tg10
I00
(lp481
g15
ag17
ag18
ag64
ag20
ag66
ag22
ag23
ag24
ag27
ag29
ag30
ag82
ag136
ag31
ag83
ag32
ag33
ag137
ag34
ag138
ag84
ag85
ag86
ag35
ag69
ag87
ag88
ag70
ag197
ag89
ag90
ag72
ag202
ag140
ag119
ag92
ag73
ag93
ag51
ag76
ag95
atbsg54
NstRp482
ag2
(g3
(dp483
g5
g6
(g7
(I0
tS'b'
tRp484
(I1
(I42
tg10
I00
(lp485
g13
ag15
ag145
ag146
ag17
ag81
ag18
ag61
ag62
ag64
ag19
ag65
ag20
ag66
ag22
ag23
ag24
ag27
ag28
ag110
ag29
ag136
ag31
ag83
ag33
ag34
ag84
ag86
ag69
ag87
ag70
ag89
ag90
ag72
ag140
ag119
ag92
ag73
ag93
ag51
ag94
ag95
atbsg54
NstRp486
ag2
(g3
(dp487
g5
g6
(g7
(I0
tS'b'
tRp488
(I1
(I42
tg10
I00
(lp489
g12
ag13
ag15
ag16
ag100
ag17
ag81
ag18
ag61
ag62
ag63
ag64
ag19
ag65
ag20
ag21
ag22
ag23
ag24
ag67
ag27
ag28
ag68
ag29
ag30
ag31
ag34
ag138
ag69
ag37
ag39
ag41
ag42
ag90
ag45
ag120
ag121
ag75
ag51
ag76
ag94
ag52
atbsg54
NstRp490
ag2
(g3
(dp491
g5
g6
(g7
(I0
tS'b'
tRp492
(I1
(I42
tg10
I00
(lp493
g13
ag15
ag17
ag18
ag61
ag62
ag64
ag20
ag21
ag66
ag22
ag23
ag24
ag29
ag30
ag136
ag31
ag83
ag32
ag33
ag137
ag34
ag138
ag84
ag85
ag86
ag35
ag69
ag36
ag87
ag88
ag70
ag150
ag71
ag197
ag202
ag140
ag171
ag119
ag51
ag94
ag95
atbsg54
NstRp494
ag2
(g3
(dp495
g5
g6
(g7
(I0
tS'b'
tRp496
(I1
(I42
tg10
I00
(lp497
g13
ag15
ag17
ag18
ag61
ag62
ag64
ag65
ag20
ag21
ag66
ag22
ag23
ag24
ag27
ag28
ag29
ag30
ag136
ag31
ag83
ag32
ag33
ag34
ag84
ag86
ag69
ag87
ag88
ag70
ag197
ag89
ag139
ag72
ag202
ag140
ag119
ag92
ag73
ag93
ag51
ag94
atbsg54
NstRp498
ag2
(g3
(dp499
g5
g6
(g7
(I0
tS'b'
tRp500
(I1
(I42
tg10
I00
(lp501
g12
ag15
ag18
ag64
ag19
ag65
ag20
ag21
ag66
ag22
ag23
ag24
ag27
ag29
ag30
ag82
ag31
ag32
ag33
ag137
ag34
ag138
ag84
ag85
ag86
ag35
ag69
ag36
ag70
ag72
ag202
ag140
ag171
ag119
ag92
ag73
ag93
ag120
ag51
ag76
ag151
ag95
atbsg54
NstRp502
ag2
(g3
(dp503
g5
g6
(g7
(I0
tS'b'
tRp504
(I1
(I42
tg10
I00
(lp505
g105
ag13
ag15
ag17
ag18
ag19
ag20
ag21
ag22
ag23
ag24
ag26
ag27
ag28
ag110
ag29
ag30
ag31
ag137
ag34
ag35
ag69
ag38
ag39
ag40
ag41
ag42
ag90
ag43
ag44
ag45
ag47
ag75
ag123
ag51
ag76
ag94
ag52
ag127
ag53
ag179
ag129
atbsg54
NstRp506
ag2
(g3
(dp507
g5
g6
(g7
(I0
tS'b'
tRp508
(I1
(I42
tg10
I00
(lp509
g12
ag15
ag17
ag64
ag19
ag65
ag20
ag66
ag22
ag23
ag24
ag27
ag28
ag29
ag82
ag136
ag31
ag83
ag32
ag33
ag34
ag138
ag84
ag85
ag86
ag69
ag87
ag88
ag70
ag197
ag139
ag72
ag202
ag140
ag171
ag119
ag92
ag73
ag93
ag75
ag51
ag94
atbsg54
NstRp510
ag2
(g3
(dp511
g5
g6
(g7
(I0
tS'b'
tRp512
(I1
(I83
tg10
I00
(lp513
g105
ag12
ag108
ag13
ag163
ag15
ag156
ag100
ag17
ag109
ag18
ag61
ag62
ag64
ag19
ag20
ag21
ag22
ag23
ag24
ag25
ag26
ag27
ag28
ag110
ag68
ag29
ag30
ag82
ag31
ag83
ag32
ag33
ag34
ag138
ag35
ag69
ag36
ag37
ag150
ag38
ag39
ag41
ag42
ag115
ag89
ag90
ag116
ag72
ag231
ag43
ag44
ag119
ag74
ag45
ag175
ag176
ag177
ag120
ag46
ag121
ag122
ag48
ag49
ag75
ag123
ag50
ag51
ag124
ag76
ag94
ag52
ag95
ag127
ag53
ag179
ag180
ag237
ag183
ag238
ag185
ag240
ag241
atbsg54
NstRp514
ag2
(g3
(dp515
g5
g6
(g7
(I0
tS'b'
tRp516
(I1
(I42
tg10
I00
(lp517
g15
ag17
ag18
ag64
ag19
ag21
ag66
ag22
ag23
ag24
ag67
ag29
ag30
ag82
ag136
ag31
ag83
ag32
ag33
ag137
ag34
ag138
ag84
ag85
ag86
ag35
ag69
ag36
ag87
ag88
ag40
ag197
ag139
ag72
ag202
ag140
ag171
ag44
ag119
ag92
ag93
ag51
atbsg54
NstRp518
ag2
(g3
(dp519
g5
g6
(g7
(I0
tS'b'
tRp520
(I1
(I42
tg10
I00
(lp521
g59
ag12
ag13
ag14
ag15
ag17
ag18
ag164
ag61
ag62
ag64
ag19
ag65
ag20
ag66
ag22
ag23
ag24
ag67
ag27
ag28
ag68
ag228
ag29
ag30
ag31
ag33
ag34
ag69
ag88
ag70
ag71
ag41
ag116
ag43
ag92
ag73
ag93
ag178
ag51
ag94
ag238
atbsg54
NstRp522
ag2
(g3
(dp523
g5
g6
(g7
(I0
tS'b'
tRp524
(I1
(I42
tg10
I00
(lp525
g12
ag13
ag15
ag17
ag81
ag18
ag64
ag19
ag65
ag20
ag21
ag66
ag22
ag23
ag24
ag67
ag27
ag28
ag29
ag30
ag136
ag33
ag34
ag84
ag86
ag69
ag87
ag71
ag89
ag90
ag202
ag171
ag119
ag92
ag73
ag93
ag74
ag233
ag51
ag94
ag151
ag95
atbsg54
NstRp526
ag2
(g3
(dp527
g5
g6
(g7
(I0
tS'b'
tRp528
(I1
(I42
tg10
I00
(lp529
g13
ag15
ag17
ag18
ag61
ag62
ag65
ag20
ag66
ag22
ag23
ag24
ag26
ag27
ag29
ag30
ag31
ag32
ag33
ag137
ag34
ag138
ag85
ag35
ag69
ag36
ag87
ag88
ag70
ag169
ag71
ag89
ag90
ag202
ag140
ag119
ag92
ag73
ag93
ag51
ag94
ag53
atbsg54
NstRp530
ag2
(g3
(dp531
g5
g6
(g7
(I0
tS'b'
tRp532
(I1
(I42
tg10
I00
(lp533
g13
ag15
ag16
ag17
ag18
ag61
ag62
ag20
ag21
ag66
ag22
ag23
ag24
ag67
ag27
ag28
ag29
ag30
ag31
ag34
ag69
ag87
ag88
ag70
ag37
ag150
ag71
ag42
ag115
ag89
ag72
ag43
ag140
ag119
ag73
ag93
ag48
ag75
ag51
ag94
ag53
ag241
atbsg54
NstRp534
ag2
(g3
(dp535
g5
g6
(g7
(I0
tS'b'
tRp536
(I1
(I165
tg10
I00
(lp537
g105
ag106
ag59
ag107
ag223
ag60
ag12
ag108
ag13
ag163
ag14
ag15
ag156
ag145
ag16
ag146
ag100
ag17
ag109
ag81
ag18
ag164
ag147
ag61
ag62
ag224
ag225
ag63
ag64
ag19
ag65
ag148
ag20
ag226
ag21
ag66
ag22
ag23
ag24
ag25
ag26
ag67
ag27
ag28
ag149
ag110
ag227
ag165
ag68
ag228
ag29
ag30
ag82
ag136
ag31
ag83
ag32
ag33
ag137
ag34
ag138
ag84
ag85
ag86
ag35
ag69
ag36
ag87
ag88
ag70
ag37
ag166
ag150
ag111
ag229
ag38
ag112
ag167
ag113
ag168
ag169
ag39
ag114
ag71
ag40
ag41
ag42
ag230
ag197
ag115
ag170
ag89
ag90
ag116
ag139
ag72
ag231
ag43
ag202
ag140
ag117
ag171
ag44
ag91
ag118
ag119
ag92
ag73
ag93
ag74
ag172
ag173
ag174
ag45
ag175
ag176
ag157
ag177
ag120
ag46
ag232
ag233
ag234
ag121
ag47
ag122
ag48
ag49
ag75
ag178
ag235
ag123
ag50
ag51
ag124
ag125
ag76
ag94
ag52
ag151
ag95
ag126
ag127
ag53
ag158
ag179
ag180
ag181
ag236
ag182
ag128
ag237
ag129
ag183
ag238
ag239
ag184
ag185
ag130
ag186
ag240
ag241
ag131
ag187
ag188
atbsg54
NstRp538
ag2
(g3
(dp539
g5
g6
(g7
(I0
tS'b'
tRp540
(I1
(I124
tg10
I00
(lp541
g105
ag59
ag107
ag12
ag108
ag13
ag14
ag15
ag156
ag145
ag146
ag100
ag17
ag109
ag18
ag164
ag147
ag61
ag62
ag63
ag64
ag19
ag65
ag148
ag20
ag226
ag21
ag22
ag23
ag24
ag25
ag26
ag67
ag27
ag28
ag149
ag110
ag165
ag68
ag29
ag30
ag82
ag31
ag83
ag32
ag33
ag137
ag34
ag84
ag35
ag69
ag36
ag87
ag37
ag166
ag150
ag38
ag112
ag113
ag169
ag39
ag114
ag71
ag40
ag41
ag42
ag230
ag115
ag170
ag89
ag90
ag116
ag139
ag72
ag231
ag43
ag202
ag117
ag44
ag91
ag118
ag119
ag92
ag73
ag74
ag172
ag174
ag45
ag175
ag176
ag177
ag120
ag46
ag121
ag47
ag122
ag48
ag49
ag75
ag178
ag123
ag50
ag51
ag124
ag76
ag94
ag52
ag95
ag126
ag127
ag53
ag158
ag179
ag128
ag237
ag129
ag183
ag238
ag239
ag184
ag240
ag241
ag131
ag187
atbsg54
NstRp542
ag2
(g3
(dp543
g5
g6
(g7
(I0
tS'b'
tRp544
(I1
(I1
tg10
I00
(lp545
g22
atbsg54
NstRp546
ag2
(g3
(dp547
g5
g6
(g7
(I0
tS'b'
tRp548
(I1
(I42
tg10
I00
(lp549
g107
ag15
ag17
ag81
ag18
ag19
ag20
ag21
ag22
ag23
ag24
ag25
ag26
ag27
ag28
ag110
ag29
ag30
ag82
ag136
ag31
ag34
ag35
ag38
ag39
ag41
ag42
ag115
ag90
ag43
ag44
ag74
ag45
ag121
ag48
ag123
ag50
ag51
ag76
ag94
ag52
ag53
atbsg54
NstRp550
ag2
(g3
(dp551
g5
g6
(g7
(I0
tS'b'
tRp552
(I1
(I83
tg10
I00
(lp553
g60
ag12
ag108
ag13
ag163
ag15
ag156
ag100
ag17
ag109
ag81
ag63
ag19
ag20
ag226
ag21
ag22
ag23
ag24
ag25
ag26
ag27
ag28
ag110
ag68
ag29
ag30
ag82
ag31
ag83
ag33
ag34
ag138
ag85
ag35
ag69
ag36
ag87
ag88
ag37
ag166
ag150
ag111
ag229
ag38
ag112
ag168
ag169
ag39
ag114
ag40
ag41
ag42
ag115
ag89
ag90
ag116
ag72
ag231
ag43
ag44
ag119
ag74
ag45
ag177
ag120
ag46
ag121
ag47
ag122
ag48
ag49
ag123
ag50
ag51
ag124
ag76
ag94
ag52
ag126
ag127
ag53
ag185
atbsg54
NstRp554
ag2
(g3
(dp555
g5
g6
(g7
(I0
tS'b'
tRp556
(I1
(I42
tg10
I00
(lp557
g13
ag15
ag146
ag100
ag17
ag81
ag18
ag61
ag62
ag64
ag19
ag20
ag21
ag66
ag22
ag23
ag24
ag67
ag27
ag28
ag29
ag30
ag82
ag31
ag33
ag34
ag69
ag88
ag71
ag41
ag42
ag119
ag74
ag45
ag47
ag122
ag75
ag51
ag76
ag94
ag151
ag95
atbsg54
NstRp558
ag2
(g3
(dp559
g5
g6
(g7
(I0
tS'b'
tRp560
(I1
(I42
tg10
I00
(lp561
g13
ag15
ag146
ag17
ag18
ag61
ag62
ag64
ag19
ag20
ag21
ag66
ag22
ag23
ag24
ag27
ag28
ag29
ag30
ag31
ag83
ag32
ag33
ag34
ag138
ag84
ag86
ag69
ag87
ag88
ag70
ag41
ag89
ag90
ag72
ag202
ag119
ag92
ag73
ag93
ag51
ag76
atbsg54
NstRp562
ag2
(g3
(dp563
g5
g6
(g7
(I0
tS'b'
tRp564
(I1
(I42
tg10
I00
(lp565
g12
ag13
ag15
ag16
ag17
ag81
ag18
ag64
ag65
ag20
ag66
ag22
ag23
ag24
ag67
ag27
ag28
ag149
ag68
ag29
ag30
ag82
ag31
ag33
ag34
ag69
ag87
ag70
ag41
ag89
ag116
ag91
ag73
ag74
ag45
ag47
ag51
ag76
ag94
ag95
ag53
ag129
atbsg54
NstRp566
ag2
(g3
(dp567
g5
g6
(g7
(I0
tS'b'
tRp568
(I1
(I165
tg10
I00
(lp569
g105
ag106
ag59
ag107
ag223
ag60
ag12
ag108
ag13
ag163
ag14
ag15
ag156
ag145
ag16
ag146
ag100
ag17
ag109
ag81
ag18
ag164
ag147
ag61
ag62
ag224
ag225
ag63
ag64
ag19
ag65
ag148
ag20
ag226
ag21
ag66
ag22
ag23
ag24
ag25
ag26
ag67
ag27
ag28
ag149
ag110
ag227
ag165
ag68
ag228
ag29
ag30
ag82
ag136
ag31
ag83
ag32
ag33
ag137
ag34
ag138
ag84
ag85
ag86
ag35
ag69
ag36
ag87
ag88
ag70
ag37
ag166
ag150
ag111
ag229
ag38
ag112
ag167
ag113
ag168
ag169
ag39
ag114
ag71
ag40
ag41
ag42
ag230
ag197
ag115
ag170
ag89
ag90
ag116
ag139
ag72
ag231
ag43
ag202
ag140
ag117
ag171
ag44
ag91
ag118
ag119
ag92
ag73
ag93
ag74
ag172
ag173
ag174
ag45
ag175
ag176
ag157
ag177
ag120
ag46
ag232
ag233
ag234
ag121
ag47
ag122
ag48
ag49
ag75
ag178
ag235
ag123
ag50
ag51
ag124
ag125
ag76
ag94
ag52
ag151
ag95
ag126
ag127
ag53
ag158
ag179
ag180
ag181
ag236
ag182
ag128
ag237
ag129
ag183
ag238
ag239
ag184
ag185
ag130
ag186
ag240
ag241
ag131
ag187
ag188
atbsg54
NstRp570
ag2
(g3
(dp571
g5
g6
(g7
(I0
tS'b'
tRp572
(I1
(I42
tg10
I00
(lp573
g12
ag13
ag14
ag15
ag17
ag19
ag20
ag21
ag22
ag23
ag24
ag26
ag27
ag29
ag30
ag31
ag34
ag35
ag69
ag37
ag38
ag39
ag41
ag42
ag115
ag90
ag43
ag117
ag44
ag45
ag120
ag46
ag47
ag122
ag48
ag123
ag51
ag124
ag94
ag52
ag126
ag179
atbsg54
NstRp574
a.