(lp1
cpandas.core.indexes.base
_new_Index
p2
(cpandas.core.indexes.base
Index
p3
(dp4
S'data'
p5
cnumpy.core.multiarray
_reconstruct
p6
(cnumpy
ndarray
p7
(I0
tS'b'
tRp8
(I1
(I124
tcnumpy
dtype
p9
(S'O8'
I0
I1
tRp10
(I3
S'|'
NNNI-1
I-1
I63
tbI00
(lp11
S'ABILH001'
p12
aS'ABILH003'
p13
aS'ABILH004'
p14
aS'ABILH005'
p15
aS'ABILH007'
p16
aS'ABILH009'
p17
aS'ABILH010'
p18
aS'ABILH011'
p19
aS'ABILH012'
p20
aS'ABILH014'
p21
aS'ABILH015'
p22
aS'ABILH016'
p23
aS'ABILH017'
p24
aS'ABILH018'
p25
aS'ABILH020'
p26
aS'ABILH021'
p27
aS'ABILH022'
p28
aS'ABILH023'
p29
aS'ABILHSUB1'
p30
aS'ABILHTOT'
p31
aS'FIM (002'
p32
aS'FIM (003'
p33
aS'FIM (004'
p34
aS'FIM (005'
p35
aS'FIM (006'
p36
aS'FIM (008'
p37
aS'FIM (009'
p38
aS'FIM (010'
p39
aS'FIM (011'
p40
aS'FIM (012'
p41
aS'FIM (014'
p42
aS'FIM (015'
p43
aS'FIM (016'
p44
aS'FIM (017'
p45
aS'FIM (018'
p46
aS'FIM (019'
p47
aS'FIM (SUB2'
p48
aS'FIM (SUB3'
p49
aS'FIM (SUB5'
p50
aS'FIM (SUB6'
p51
aS'FIM (TOT'
p52
aS'HADS 001'
p53
aS'HADS 002'
p54
aS'HADS 003'
p55
aS'HADS 004'
p56
aS'HADS 005'
p57
aS'HADS 006'
p58
aS'HADS 007'
p59
aS'HADS 008'
p60
aS'HADS 009'
p61
aS'HADS 010'
p62
aS'HADS 011'
p63
aS'HADS 012'
p64
aS'HADS 013'
p65
aS'HADS 014'
p66
aS'HADS SUB1'
p67
aS'HADS SUB2'
p68
aS'HADS TOT'
p69
aS'HEIG'
p70
aS'LIFE 001'
p71
aS'LIFE 003'
p72
aS'LIFE 004'
p73
aS'LIFE 005'
p74
aS'LIFE 006'
p75
aS'LIFE 007'
p76
aS'LIFE 010'
p77
aS'LIFE 011'
p78
aS'LIFE TOT'
p79
aS'MFIS 001'
p80
aS'MFIS 002'
p81
aS'MFIS 003'
p82
aS'MFIS 004'
p83
aS'MFIS 005'
p84
aS'MFIS 006'
p85
aS'MFIS 008'
p86
aS'MFIS 009'
p87
aS'MFIS 010'
p88
aS'MFIS 012'
p89
aS'MFIS 014'
p90
aS'MFIS 015'
p91
aS'MFIS 016'
p92
aS'MFIS 017'
p93
aS'MFIS 018'
p94
aS'MFIS 019'
p95
aS'MFIS 021'
p96
aS'MFIS SUB1'
p97
aS'MFIS SUB2'
p98
aS'MFIS SUB3'
p99
aS'MFIS TOT'
p100
aS'MOCA 001'
p101
aS'MOCA 002'
p102
aS'MOCA 003'
p103
aS'MOCA 004'
p104
aS'MOCA 005'
p105
aS'MOCA 007'
p106
aS'MOCA 008'
p107
aS'MOCA 009'
p108
aS'MOCA 010'
p109
aS'MOCA 011'
p110
aS'OAB-Q002'
p111
aS'OAB-Q003'
p112
aS'OAB-Q004'
p113
aS'OAB-Q005'
p114
aS'OAB-Q007'
p115
aS'OAB-Q008'
p116
aS'PASATTOT'
p117
aS'RELAPS'
p118
aS'SDMT TOT'
p119
aS'EDINB001_1'
p120
aS'EDINB001_2'
p121
aS'EDINB002_0'
p122
aS'EDINB002_2'
p123
aS'EDINB003_1'
p124
aS'EDINB003_2'
p125
aS'EDINB004_1'
p126
aS'EDINB004_2'
p127
aS'EDINB005_0'
p128
aS'EDINB005_1'
p129
aS'EDINB005_2'
p130
aS'EDINB007_0'
p131
aS'EDINB007_1'
p132
aS'EDINB009_0'
p133
aS'EDINB009_1'
p134
aS'EDINB009_2'
p135
atbsS'name'
p136
NstRp137
ag2
(g3
(dp138
g5
g6
(g7
(I0
tS'b'
tRp139
(I1
(I42
tg10
I00
(lp140
g16
aS'ABILH008'
p141
ag17
ag20
ag25
ag27
ag30
ag31
ag33
ag34
ag36
ag37
ag38
ag39
ag40
ag41
aS'FIM (013'
p142
ag42
ag43
ag44
ag45
ag49
ag50
ag51
ag54
ag56
ag59
ag65
ag77
ag81
ag82
ag89
ag94
ag98
ag101
ag115
ag119
ag120
ag121
ag122
ag123
ag125
atbsg136
NstRp143
ag2
(g3
(dp144
g5
g6
(g7
(I0
tS'b'
tRp145
(I1
(I42
tg10
I00
(lp146
g16
ag17
ag20
ag25
ag27
ag33
ag35
ag36
ag37
ag38
ag39
ag40
ag41
ag142
ag42
ag45
ag49
ag50
ag51
ag54
ag59
ag66
ag73
ag77
ag78
ag79
ag80
ag81
ag82
ag85
ag90
ag98
ag101
ag105
aS'MOCA 006'
p147
ag117
ag118
ag119
ag120
ag121
ag122
ag125
atbsg136
NstRp148
ag2
(g3
(dp149
g5
g6
(g7
(I0
tS'b'
tRp150
(I1
(I42
tg10
I00
(lp151
g17
ag21
ag22
ag25
ag26
ag28
ag30
ag31
ag32
ag33
ag34
ag36
ag37
ag38
ag39
ag40
ag41
ag43
ag44
ag45
ag50
ag51
ag53
ag54
ag55
ag57
ag59
ag61
ag63
ag65
ag67
ag69
ag78
ag79
ag81
ag82
ag86
ag99
ag112
ag119
ag121
ag125
atbsg136
NstRp152
ag2
(g3
(dp153
g5
g6
(g7
(I0
tS'b'
tRp154
(I1
(I42
tg10
I00
(lp155
g12
ag17
ag20
aS'ABILH013'
p156
ag24
ag25
ag26
ag27
ag32
ag33
ag36
ag37
ag39
ag40
ag41
ag42
ag44
ag47
ag49
ag50
ag51
ag52
ag53
ag54
ag57
ag59
ag65
ag70
ag73
ag81
ag82
ag91
ag95
ag105
ag109
ag110
ag112
ag113
ag115
ag119
ag121
ag122
atbsg136
NstRp157
ag2
(g3
(dp158
g5
g6
(g7
(I0
tS'b'
tRp159
(I1
(I42
tg10
I00
(lp160
g13
ag14
ag17
ag20
ag22
ag24
ag25
ag26
ag27
aS'FIM (001'
p161
ag32
ag33
ag34
ag36
ag37
ag38
ag39
ag40
ag41
ag43
ag44
ag45
ag49
ag50
ag51
ag54
ag57
ag59
ag65
ag68
ag77
ag80
ag81
ag87
ag89
ag90
ag101
ag105
ag108
ag119
ag120
ag121
atbsg136
NstRp162
ag2
(g3
(dp163
g5
g6
(g7
(I0
tS'b'
tRp164
(I1
(I42
tg10
I00
(lp165
g17
ag20
ag27
ag28
ag32
ag36
ag38
ag39
ag40
ag41
ag44
ag45
ag49
ag50
ag51
ag53
ag54
ag55
ag56
ag57
ag59
ag60
ag61
ag62
ag63
ag65
ag66
ag67
ag68
ag69
ag84
aS'MFIS 011'
p166
ag89
aS'MFIS 013'
p167
ag91
ag94
aS'MFIS 020'
p168
ag97
ag98
ag119
ag121
aS'EDINB006_2'
p169
atbsg136
NstRp170
ag2
(g3
(dp171
g5
g6
(g7
(I0
tS'b'
tRp172
(I1
(I42
tg10
I00
(lp173
g15
ag17
ag20
ag25
ag27
ag30
ag31
ag32
ag33
ag34
ag36
ag37
ag38
ag39
ag40
ag41
ag43
ag44
ag45
ag50
ag51
ag54
ag56
ag59
ag65
ag68
ag69
ag79
ag81
ag82
ag87
ag89
ag92
ag105
ag108
ag112
ag115
ag119
ag120
ag121
aS'EDINB002_1'
p174
ag123
atbsg136
NstRp175
ag2
(g3
(dp176
g5
g6
(g7
(I0
tS'b'
tRp177
(I1
(I83
tg10
I00
(lp178
g14
ag15
ag16
ag141
ag17
ag18
ag20
ag24
ag25
aS'ABILH019'
p179
ag27
ag30
ag31
ag32
ag33
ag34
ag36
ag37
ag39
ag40
ag41
ag142
ag42
ag43
ag44
ag45
ag46
ag47
ag48
ag49
ag50
ag51
ag52
ag54
ag55
ag56
ag57
ag59
ag64
ag65
ag70
ag71
ag73
ag76
ag77
ag78
ag79
ag80
ag81
ag82
ag85
ag86
ag87
ag88
ag167
ag90
ag168
ag96
ag97
ag101
ag103
ag104
ag105
ag147
ag106
ag109
ag110
aS'OAB-Q001'
p180
ag111
ag112
ag113
ag114
aS'OAB-Q006'
p181
ag115
ag119
aS'WEIG'
p182
ag120
ag121
ag122
ag123
ag125
aS'EDINB006_0'
p183
aS'EDINB008_1'
p184
atbsg136
NstRp185
ag2
(g3
(dp186
g5
g6
(g7
(I0
tS'b'
tRp187
(I1
(I124
tg10
I00
(lp188
g12
aS'ABILH002'
p189
ag13
ag14
ag15
ag16
ag17
ag19
ag20
ag21
ag22
ag23
ag24
ag25
ag179
ag26
ag27
ag28
ag29
ag30
ag31
ag32
ag33
ag36
aS'FIM (007'
p190
ag37
ag38
ag39
ag40
ag41
ag142
ag42
ag43
ag44
ag45
ag47
aS'FIM (SUB1'
p191
ag48
ag49
ag50
ag51
ag52
ag53
ag54
ag55
ag56
ag57
ag58
ag59
ag60
ag61
ag62
ag63
ag64
ag65
ag66
ag67
ag68
ag70
aS'ISTRU'
p192
ag71
aS'LIFE 002'
p193
ag72
ag73
ag74
aS'LIFE 008'
p194
aS'LIFE 009'
p195
ag77
ag78
ag79
ag80
ag81
ag82
ag83
ag84
aS'MFIS 007'
p196
ag86
ag87
ag88
ag166
ag89
ag90
ag91
ag92
ag94
ag95
ag168
ag97
ag98
ag101
ag102
ag105
ag106
ag108
ag109
ag110
ag112
ag113
ag114
ag181
ag115
ag117
ag118
ag119
ag182
ag120
ag121
ag122
ag174
ag123
aS'EDINB003_0'
p197
ag124
ag125
aS'EDINB004_0'
p198
ag126
ag127
ag183
aS'EDINB006_1'
p199
ag169
ag132
aS'EDINB008_0'
p200
ag184
ag133
aS'EDINB010_2'
p201
atbsg136
NstRp202
ag2
(g3
(dp203
g5
g6
(g7
(I0
tS'b'
tRp204
(I1
(I42
tg10
I00
(lp205
g13
ag16
ag17
ag19
ag21
ag25
ag32
ag34
ag36
ag37
ag38
ag39
ag40
ag41
ag44
ag45
ag50
ag51
ag52
ag53
ag54
ag57
ag59
ag61
ag63
ag65
ag67
ag68
ag69
ag81
ag196
ag167
ag93
ag168
ag97
ag98
ag101
ag109
ag119
ag121
ag122
ag123
atbsg136
NstRp206
ag2
(g3
(dp207
g5
g6
(g7
(I0
tS'b'
tRp208
(I1
(I124
tg10
I00
(lp209
g12
ag189
ag13
ag14
aS'ABILH006'
p210
ag16
ag17
ag18
ag19
ag20
ag21
ag22
ag23
ag24
ag25
ag179
ag26
ag27
ag28
ag29
ag30
ag31
ag32
ag33
ag34
ag36
ag37
ag38
ag39
ag40
ag41
ag142
ag42
ag43
ag44
ag45
ag46
ag47
ag191
ag48
ag49
ag50
ag51
ag52
ag53
ag54
ag55
ag57
ag59
ag60
ag61
ag62
ag63
ag64
ag65
ag67
ag68
ag69
ag70
ag72
ag75
ag76
ag194
ag195
ag77
ag78
ag79
ag80
ag81
ag82
ag83
ag84
ag85
ag86
ag87
ag88
ag166
ag89
ag90
ag91
ag92
ag93
ag94
ag95
ag96
ag97
ag98
ag99
ag100
ag101
ag102
ag104
ag105
ag147
ag106
ag107
ag108
ag109
ag180
ag111
ag113
ag114
ag181
ag115
ag116
ag117
ag118
ag119
aS'EDINB001_0'
p211
ag120
ag121
ag122
ag174
ag123
ag124
ag125
ag126
ag127
ag128
ag129
ag183
ag169
aS'EDINB010_0'
p212
aS'EDINB010_1'
p213
atbsg136
NstRp214
ag2
(g3
(dp215
g5
g6
(g7
(I0
tS'b'
tRp216
(I1
(I42
tg10
I00
(lp217
g16
ag17
ag19
ag20
ag25
ag26
ag27
ag30
ag31
ag161
ag32
ag36
ag37
ag38
ag39
ag40
ag41
ag44
ag45
ag47
ag49
ag50
ag51
ag54
ag59
ag68
ag70
ag79
ag81
ag82
ag85
ag91
ag95
ag105
ag112
ag114
ag115
ag119
ag120
ag121
ag123
ag169
atbsg136
NstRp218
ag2
(g3
(dp219
g5
g6
(g7
(I0
tS'b'
tRp220
(I1
(I124
tg10
I00
(lp221
g12
ag16
ag17
ag18
ag19
ag20
ag156
ag21
ag22
ag23
ag24
ag25
ag179
ag26
ag27
ag28
ag29
ag30
ag31
ag161
ag33
ag36
ag37
ag38
ag39
ag40
ag41
ag142
ag42
ag43
ag44
ag45
ag47
ag48
ag49
ag50
ag51
ag52
ag53
ag54
ag56
ag57
ag58
ag59
ag60
ag61
ag63
ag64
ag65
ag66
ag67
ag68
ag70
ag192
ag71
ag193
ag73
ag74
ag75
ag194
ag77
ag78
ag80
ag81
ag82
ag84
ag85
ag86
ag87
ag88
ag166
ag89
ag167
ag90
ag92
ag93
ag94
ag95
ag168
ag96
ag97
ag98
ag99
ag101
ag102
ag103
ag104
ag105
ag147
ag106
ag108
ag109
ag180
ag111
ag112
ag113
ag114
ag181
ag115
ag116
ag117
ag118
ag119
ag120
ag121
ag122
ag174
ag123
ag197
ag124
ag125
ag198
ag126
ag127
ag183
ag199
ag169
ag132
aS'EDINB007_2'
p222
ag184
aS'EDINB008_2'
p223
ag133
ag134
ag135
atbsg136
NstRp224
ag2
(g3
(dp225
g5
g6
(g7
(I0
tS'b'
tRp226
(I1
(I42
tg10
I00
(lp227
g16
ag17
ag19
ag20
ag25
ag179
ag32
ag33
ag34
ag36
ag37
ag39
ag40
ag41
ag142
ag42
ag44
ag45
ag50
ag51
ag53
ag54
ag59
ag64
ag65
ag67
ag70
ag73
ag78
ag81
ag82
ag87
ag89
ag90
ag95
ag108
ag110
ag114
ag118
ag119
ag122
ag169
atbsg136
NstRp228
ag2
(g3
(dp229
g5
g6
(g7
(I0
tS'b'
tRp230
(I1
(I42
tg10
I00
(lp231
g16
ag17
ag20
ag24
ag25
ag27
ag33
ag34
ag36
ag38
ag39
ag40
ag41
ag142
ag44
ag45
ag49
ag50
ag51
ag52
ag54
ag56
ag58
ag59
ag60
ag62
ag64
ag65
ag66
ag68
ag69
ag86
ag87
ag89
ag92
ag97
ag99
ag111
ag119
ag120
ag121
ag135
atbsg136
NstRp232
ag2
(g3
(dp233
g5
g6
(g7
(I0
tS'b'
tRp234
(I1
(I83
tg10
I00
(lp235
g12
ag189
ag13
ag14
ag15
ag210
ag16
ag17
ag20
ag24
ag25
ag26
ag27
ag30
ag31
ag161
ag32
ag33
ag36
ag37
ag38
ag39
ag40
ag41
ag142
ag42
ag43
ag44
ag45
ag47
ag50
ag51
ag52
ag53
ag54
ag55
ag56
ag57
ag59
ag64
ag65
ag70
ag71
ag73
ag74
ag77
ag78
ag80
ag81
ag82
ag85
ag87
ag166
ag89
ag167
ag90
ag92
ag95
ag96
ag101
ag104
ag105
ag108
ag109
ag110
ag111
ag113
ag181
ag117
ag118
ag119
ag182
ag120
ag121
ag122
ag124
ag125
ag198
ag126
ag183
ag169
ag200
ag184
atbsg136
NstRp236
ag2
(g3
(dp237
g5
g6
(g7
(I0
tS'b'
tRp238
(I1
(I42
tg10
I00
(lp239
g17
ag20
ag25
ag27
ag28
ag33
ag36
ag37
ag39
ag40
ag41
ag42
ag44
ag45
ag49
ag50
ag51
ag54
ag59
ag64
ag65
ag70
ag77
ag78
ag81
ag82
ag86
ag87
ag88
ag90
ag101
ag105
ag110
ag111
ag118
ag119
ag120
ag121
ag122
ag124
ag125
ag135
atbsg136
NstRp240
ag2
(g3
(dp241
g5
g6
(g7
(I0
tS'b'
tRp242
(I1
(I42
tg10
I00
(lp243
g16
ag17
ag19
ag22
ag25
ag27
ag30
ag31
ag161
ag32
ag34
ag36
ag37
ag38
ag39
ag40
ag41
ag45
ag49
ag52
ag54
ag57
ag59
ag61
ag63
ag65
ag67
ag68
ag77
ag79
ag84
ag86
ag87
ag88
ag89
ag91
ag94
ag97
ag99
ag100
ag119
ag121
atbsg136
NstRp244
ag2
(g3
(dp245
g5
g6
(g7
(I0
tS'b'
tRp246
(I1
(I42
tg10
I00
(lp247
g16
ag19
ag20
ag24
ag25
ag26
ag27
ag33
ag36
ag37
ag39
ag40
ag41
ag42
ag44
ag45
ag49
ag50
ag51
ag54
ag59
ag64
ag65
ag66
ag73
ag77
ag78
ag81
ag82
ag88
ag90
ag95
ag105
ag109
ag115
ag119
ag182
ag120
ag121
ag122
ag125
ag126
atbsg136
NstRp248
ag2
(g3
(dp249
g5
g6
(g7
(I0
tS'b'
tRp250
(I1
(I42
tg10
I00
(lp251
g189
ag17
ag20
ag24
ag25
ag26
ag27
ag30
ag31
ag32
ag33
ag34
ag36
ag37
ag39
ag40
ag41
ag43
ag44
ag45
ag50
ag51
ag52
ag54
ag59
ag65
ag70
ag81
ag82
ag88
ag90
ag95
ag105
ag108
ag109
ag114
ag119
ag120
ag121
ag122
ag174
ag123
atbsg136
NstRp252
ag2
(g3
(dp253
g5
g6
(g7
(I0
tS'b'
tRp254
(I1
(I42
tg10
I00
(lp255
g12
ag20
ag25
ag27
ag32
ag33
ag34
ag36
ag37
ag38
ag39
ag40
ag41
ag45
ag50
ag51
ag53
ag54
ag55
ag56
ag57
ag59
ag60
ag61
ag62
ag63
ag65
ag67
ag68
ag69
ag79
ag89
ag92
ag168
ag97
ag98
ag99
ag108
ag115
ag119
ag121
ag123
atbsg136
NstRp256
ag2
(g3
(dp257
g5
g6
(g7
(I0
tS'b'
tRp258
(I1
(I42
tg10
I00
(lp259
g17
ag25
ag27
ag32
ag34
ag36
ag37
ag38
ag39
ag40
ag41
ag44
ag45
ag50
ag51
ag53
ag54
ag55
ag57
ag58
ag59
ag61
ag62
ag63
ag65
ag67
ag68
ag69
ag79
ag84
ag86
ag87
ag166
ag89
ag91
ag92
ag94
ag97
ag98
ag99
ag100
ag119
atbsg136
NstRp260
ag2
(g3
(dp261
g5
g6
(g7
(I0
tS'b'
tRp262
(I1
(I42
tg10
I00
(lp263
g16
ag17
ag20
ag156
ag25
ag161
ag32
ag33
ag37
ag39
ag40
ag41
ag42
ag44
ag45
ag49
ag50
ag51
ag54
ag57
ag59
ag64
ag65
ag66
ag73
ag77
ag81
ag82
ag85
ag90
ag101
ag105
ag109
ag112
ag115
ag119
ag182
ag120
ag121
ag122
ag125
ag223
atbsg136
NstRp264
ag2
(g3
(dp265
g5
g6
(g7
(I0
tS'b'
tRp266
(I1
(I42
tg10
I00
(lp267
g16
ag17
ag20
ag25
ag27
ag32
ag33
ag34
ag36
ag37
ag39
ag40
ag41
ag42
ag44
ag45
ag47
ag50
ag51
ag54
ag55
ag57
ag59
ag70
ag73
ag77
ag78
ag81
ag82
ag90
ag92
ag95
ag105
ag109
ag112
ag114
ag181
ag115
ag118
ag119
ag125
ag184
atbsg136
NstRp268
ag2
(g3
(dp269
g5
g6
(g7
(I0
tS'b'
tRp270
(I1
(I42
tg10
I00
(lp271
g13
ag16
ag17
ag20
ag24
ag25
ag27
ag30
ag31
ag33
ag36
ag37
ag39
ag40
ag41
ag142
ag42
ag44
ag45
ag47
ag49
ag50
ag51
ag54
ag59
ag71
ag73
ag81
ag82
ag87
ag88
ag90
ag105
ag108
ag109
ag111
ag181
ag115
ag119
ag120
ag121
ag122
atbsg136
NstRp272
ag2
(g3
(dp273
g5
g6
(g7
(I0
tS'b'
tRp274
(I1
(I42
tg10
I00
(lp275
g13
ag18
ag20
ag25
ag26
ag27
ag29
ag30
ag31
ag161
ag32
ag33
ag36
ag37
ag38
ag39
ag40
ag41
ag43
ag44
ag45
ag47
ag50
ag51
ag59
ag64
ag73
ag81
ag85
ag89
ag95
ag106
ag109
ag110
ag111
ag116
ag118
ag119
ag182
ag121
ag122
ag223
atbsg136
NstRp276
ag2
(g3
(dp277
g5
g6
(g7
(I0
tS'b'
tRp278
(I1
(I42
tg10
I00
(lp279
g13
ag16
ag141
ag19
ag20
ag156
ag24
ag25
ag33
ag36
ag37
ag39
ag40
ag41
ag42
ag44
ag45
ag47
ag49
ag50
ag51
ag54
ag59
ag64
ag65
ag70
ag73
ag74
ag77
ag80
ag81
ag82
ag87
ag105
ag110
ag112
ag119
ag121
ag122
ag125
ag198
ag131
atbsg136
NstRp280
ag2
(g3
(dp281
g5
g6
(g7
(I0
tS'b'
tRp282
(I1
(I42
tg10
I00
(lp283
g13
ag15
ag16
ag17
ag19
ag20
ag22
ag25
ag27
ag161
ag33
ag36
ag37
ag39
ag40
ag41
ag44
ag45
ag50
ag51
ag54
ag59
ag64
ag65
ag70
ag73
ag77
ag78
ag80
ag81
ag82
ag88
ag89
ag90
ag92
ag108
ag109
ag111
ag112
ag114
ag119
ag122
atbsg136
NstRp284
ag2
(g3
(dp285
g5
g6
(g7
(I0
tS'b'
tRp286
(I1
(I42
tg10
I00
(lp287
g17
ag19
ag20
ag25
ag26
ag27
ag31
ag32
ag33
ag34
ag36
ag38
ag39
ag40
ag41
ag42
ag43
ag44
ag45
ag49
ag50
ag53
ag55
ag57
ag59
ag61
ag63
ag65
ag67
ag69
ag79
ag88
ag89
ag90
ag92
ag97
ag98
ag100
ag115
ag119
ag121
ag123
atbsg136
NstRp288
ag2
(g3
(dp289
g5
g6
(g7
(I0
tS'b'
tRp290
(I1
(I42
tg10
I00
(lp291
g25
ag32
ag34
ag36
ag37
ag38
ag39
ag40
ag41
ag43
ag44
ag50
ag51
ag53
ag54
ag55
ag56
ag57
ag58
ag59
ag60
ag61
ag62
ag63
ag64
ag65
ag68
ag69
ag84
ag88
ag166
ag89
ag90
ag91
ag92
ag94
ag97
ag99
ag100
ag119
ag121
ag123
atbsg136
NstRp292
ag2
(g3
(dp293
g5
g6
(g7
(I0
tS'b'
tRp294
(I1
(I42
tg10
I00
(lp295
g210
ag16
ag17
ag20
ag25
ag26
ag27
ag161
ag33
ag34
ag36
ag37
ag39
ag40
ag41
ag42
ag44
ag45
ag47
ag50
ag51
ag53
ag54
ag55
ag59
ag65
ag66
ag70
ag73
ag77
ag81
ag82
ag89
ag90
ag94
ag108
ag111
ag181
ag119
ag121
ag122
ag129
atbsg136
NstRp296
ag2
(g3
(dp297
g5
g6
(g7
(I0
tS'b'
tRp298
(I1
(I124
tg10
I00
(lp299
g189
ag13
ag14
ag210
ag16
ag141
ag17
ag18
ag20
ag156
ag21
ag22
ag23
ag24
ag25
ag179
ag26
ag27
ag28
ag30
ag31
ag161
ag33
ag34
ag35
ag36
ag37
ag39
ag40
ag41
ag142
ag42
ag44
ag45
ag47
ag48
ag49
ag50
ag51
ag52
ag53
ag54
ag55
ag56
ag57
ag58
ag59
ag60
ag61
ag63
ag64
ag65
ag66
ag67
ag68
ag69
ag70
ag192
ag71
ag193
ag72
ag73
ag74
ag76
ag195
ag77
ag78
ag79
ag80
ag81
ag82
ag85
ag196
ag86
ag87
ag88
ag89
ag90
ag91
ag93
ag95
ag97
ag98
ag99
ag101
ag103
ag105
ag147
ag107
ag109
ag110
aS'MOCA SUB1'
p300
ag111
ag112
ag113
ag114
ag181
ag115
ag116
aS'OAB-QTOT'
p301
ag117
ag118
ag119
ag182
ag120
ag121
ag122
ag123
ag197
ag124
ag125
ag198
ag126
ag127
ag128
ag183
ag199
ag169
ag132
ag200
ag184
ag223
ag134
ag135
atbsg136
NstRp302
ag2
(g3
(dp303
g5
g6
(g7
(I0
tS'b'
tRp304
(I1
(I42
tg10
I00
(lp305
g17
ag20
ag25
ag27
ag33
ag36
ag37
ag38
ag39
ag40
ag41
ag45
ag50
ag51
ag54
ag55
ag56
ag57
ag58
ag59
ag60
ag62
ag63
ag64
ag65
ag66
ag67
ag68
ag69
ag81
ag168
ag97
ag98
ag300
aS'MOCA TOT'
p306
ag114
ag181
ag301
ag119
ag120
ag121
ag130
atbsg136
NstRp307
ag2
(g3
(dp308
g5
g6
(g7
(I0
tS'b'
tRp309
(I1
(I42
tg10
I00
(lp310
g17
ag20
ag24
ag25
ag27
ag32
ag34
ag36
ag38
ag39
ag40
ag41
ag43
ag44
ag45
ag50
ag51
ag54
ag55
ag56
ag57
ag58
ag59
ag60
ag61
ag62
ag63
ag64
ag65
ag66
ag67
ag68
ag69
ag79
ag81
ag89
ag94
ag97
ag98
ag100
ag119
ag121
atbsg136
NstRp311
ag2
(g3
(dp312
g5
g6
(g7
(I0
tS'b'
tRp313
(I1
(I83
tg10
I00
(lp314
g210
ag16
ag17
ag19
ag20
ag156
ag22
ag25
ag26
ag27
ag28
ag30
ag31
ag32
ag33
ag36
ag37
ag38
ag39
ag40
ag41
ag142
ag42
ag43
ag44
ag45
ag49
ag50
ag51
ag52
ag54
ag57
ag59
ag61
ag64
ag65
ag67
ag70
ag192
ag193
ag73
ag74
ag77
ag78
ag81
ag82
ag85
ag86
ag87
ag90
ag91
ag92
ag95
ag168
ag99
ag101
ag105
ag108
ag109
ag111
ag112
ag114
ag181
ag115
ag118
ag119
ag182
ag120
ag121
ag122
ag197
ag124
ag125
ag126
ag127
ag183
ag199
ag169
ag131
ag132
ag200
ag184
ag135
atbsg136
NstRp315
ag2
(g3
(dp316
g5
g6
(g7
(I0
tS'b'
tRp317
(I1
(I42
tg10
I00
(lp318
g16
ag25
ag27
ag32
ag33
ag36
ag38
ag39
ag40
ag41
ag43
ag44
ag45
ag46
ag50
ag51
ag52
ag54
ag56
ag57
ag59
ag60
ag62
ag65
ag67
ag68
ag69
ag80
ag84
ag86
ag87
ag166
ag89
ag91
ag92
ag94
ag97
ag98
ag99
ag100
ag105
ag119
atbsg136
NstRp319
ag2
(g3
(dp320
g5
g6
(g7
(I0
tS'b'
tRp321
(I1
(I42
tg10
I00
(lp322
g17
ag20
ag25
ag179
ag27
ag28
ag33
ag34
ag36
ag37
ag39
ag40
ag41
ag42
ag44
ag45
ag47
ag50
ag51
ag54
ag57
ag59
ag64
ag70
ag71
ag77
ag80
ag81
ag82
ag87
ag88
ag89
ag91
ag95
ag105
ag110
ag111
ag113
ag114
ag118
ag119
ag122
atbsg136
NstRp323
ag2
(g3
(dp324
g5
g6
(g7
(I0
tS'b'
tRp325
(I1
(I42
tg10
I00
(lp326
g17
ag20
ag22
ag24
ag25
ag26
ag27
ag33
ag34
ag36
ag37
ag38
ag39
ag40
ag41
ag44
ag45
ag46
ag47
ag50
ag51
ag54
ag59
ag65
ag69
ag71
ag72
ag75
ag195
ag78
ag79
ag87
ag89
ag97
ag98
ag100
ag111
ag115
ag119
ag182
ag121
ag125
atbsg136
NstRp327
ag2
(g3
(dp328
g5
g6
(g7
(I0
tS'b'
tRp329
(I1
(I42
tg10
I00
(lp330
g16
ag141
ag17
ag20
ag22
ag25
ag26
ag27
ag30
ag31
ag32
ag34
ag36
ag37
ag38
ag39
ag40
ag41
ag44
ag45
ag50
ag51
ag54
ag55
ag59
ag64
ag65
ag69
ag70
ag73
ag81
ag82
ag86
ag88
ag95
ag101
ag109
ag119
ag120
ag121
ag122
ag123
atbsg136
NstRp331
ag2
(g3
(dp332
g5
g6
(g7
(I0
tS'b'
tRp333
(I1
(I42
tg10
I00
(lp334
g13
ag20
ag25
ag27
ag30
ag31
ag32
ag33
ag34
ag36
ag38
ag39
ag40
ag41
ag44
ag45
ag53
ag54
ag55
ag56
ag57
ag58
ag59
ag60
ag61
ag62
ag63
ag64
ag65
ag66
ag67
ag68
ag69
ag84
ag89
ag91
ag92
ag94
ag97
ag98
ag100
ag119
atbsg136
NstRp335
ag2
(g3
(dp336
g5
g6
(g7
(I0
tS'b'
tRp337
(I1
(I42
tg10
I00
(lp338
g210
ag141
ag17
ag20
ag25
ag27
ag161
ag33
ag36
ag37
ag39
ag40
ag41
ag142
ag42
ag44
ag45
ag50
ag51
ag54
ag55
ag57
ag59
ag64
ag65
ag70
ag73
ag74
ag81
ag82
ag87
ag90
ag101
ag147
ag110
ag111
ag113
ag181
ag119
ag120
ag121
ag199
atbsg136
NstRp339
ag2
(g3
(dp340
g5
g6
(g7
(I0
tS'b'
tRp341
(I1
(I42
tg10
I00
(lp342
g27
ag30
ag31
ag32
ag33
ag34
ag36
ag38
ag39
ag40
ag41
ag44
ag45
ag50
ag52
ag54
ag56
ag57
ag58
ag59
ag60
ag61
ag62
ag63
ag64
ag65
ag66
ag67
ag68
ag69
ag86
ag87
ag167
ag94
ag168
ag97
ag98
ag99
ag119
ag121
ag127
ag128
atbsg136
NstRp343
ag2
(g3
(dp344
g5
g6
(g7
(I0
tS'b'
tRp345
(I1
(I42
tg10
I00
(lp346
g16
ag17
ag20
ag22
ag24
ag25
ag26
ag27
ag30
ag31
ag161
ag33
ag36
ag37
ag39
ag40
ag41
ag42
ag44
ag45
ag50
ag51
ag54
ag59
ag65
ag68
ag70
ag73
ag81
ag82
ag95
ag105
ag109
ag112
ag113
ag181
ag115
ag117
ag118
ag119
ag122
ag125
atbsg136
NstRp347
ag2
(g3
(dp348
g5
g6
(g7
(I0
tS'b'
tRp349
(I1
(I83
tg10
I00
(lp350
g13
ag16
ag141
ag17
ag19
ag20
ag22
ag23
ag24
ag25
ag179
ag26
ag27
ag32
ag33
ag35
ag36
ag37
ag39
ag40
ag41
ag142
ag42
ag43
ag44
ag45
ag47
ag48
ag49
ag50
ag51
ag52
ag53
ag54
ag55
ag57
ag58
ag59
ag61
ag64
ag65
ag66
ag70
ag71
ag73
ag74
ag77
ag78
ag80
ag81
ag82
ag85
ag86
ag87
ag88
ag89
ag90
ag91
ag92
ag95
ag101
ag105
ag106
ag108
ag109
ag110
ag112
ag114
ag181
ag115
ag116
ag117
ag118
ag119
ag182
ag120
ag121
ag122
ag123
ag124
ag125
ag198
ag184
atbsg136
NstRp351
ag2
(g3
(dp352
g5
g6
(g7
(I0
tS'b'
tRp353
(I1
(I83
tg10
I00
(lp354
g13
ag14
ag210
ag16
ag141
ag17
ag19
ag20
ag22
ag24
ag25
ag179
ag26
ag27
ag30
ag31
ag161
ag32
ag33
ag34
ag36
ag37
ag39
ag40
ag41
ag142
ag42
ag44
ag45
ag46
ag47
ag48
ag49
ag50
ag51
ag52
ag53
ag54
ag55
ag57
ag59
ag61
ag65
ag66
ag70
ag71
ag73
ag74
ag76
ag77
ag78
ag80
ag81
ag82
ag85
ag196
ag87
ag166
ag90
ag91
ag95
ag96
ag97
ag101
ag106
ag108
ag110
ag111
ag112
ag114
ag115
ag116
ag117
ag119
ag182
ag120
ag121
ag122
ag197
ag126
ag169
ag132
ag222
atbsg136
NstRp355
ag2
(g3
(dp356
g5
g6
(g7
(I0
tS'b'
tRp357
(I1
(I124
tg10
I00
(lp358
g14
ag210
ag16
ag17
ag18
ag20
ag156
ag21
ag22
ag24
ag25
ag179
ag26
ag27
ag30
ag31
ag161
ag32
ag33
ag34
ag35
ag36
ag190
ag37
ag38
ag39
ag40
ag41
ag142
ag42
ag43
ag44
ag45
ag46
ag47
ag191
ag49
ag50
ag51
ag52
ag53
ag54
ag55
ag56
ag57
ag59
ag60
ag61
ag63
ag64
ag65
ag66
ag67
ag69
ag70
ag192
ag71
ag193
ag73
ag74
ag76
ag77
ag78
ag79
ag80
ag81
ag82
ag83
ag85
ag196
ag86
ag87
ag88
ag166
ag89
ag167
ag90
ag91
ag93
ag95
ag168
ag96
ag97
ag98
ag101
ag102
ag104
ag105
ag147
ag106
ag107
ag109
ag110
ag300
ag111
ag112
ag113
ag114
ag181
ag116
ag117
ag118
ag119
ag182
ag120
ag121
ag122
ag123
ag124
ag125
ag126
ag127
ag129
ag183
ag199
ag169
ag131
ag132
ag222
ag200
ag184
ag223
ag133
ag213
atbsg136
NstRp359
ag2
(g3
(dp360
g5
g6
(g7
(I0
tS'b'
tRp361
(I1
(I83
tg10
I00
(lp362
g12
ag13
ag210
ag16
ag141
ag17
ag20
ag21
ag22
ag23
ag24
ag25
ag26
ag27
ag30
ag31
ag161
ag32
ag33
ag34
ag36
ag37
ag38
ag39
ag40
ag41
ag43
ag44
ag45
ag47
ag49
ag50
ag51
ag53
ag54
ag55
ag56
ag57
ag58
ag59
ag60
ag61
ag62
ag63
ag65
ag66
ag67
ag68
ag69
ag70
ag71
ag78
ag79
ag82
ag85
ag86
ag87
ag88
ag89
ag167
ag90
ag91
ag92
ag94
ag168
ag97
ag98
ag100
ag105
ag108
ag111
ag112
ag114
ag118
ag119
ag120
ag121
ag122
ag174
ag123
ag125
ag184
ag213
atbsg136
NstRp363
ag2
(g3
(dp364
g5
g6
(g7
(I0
tS'b'
tRp365
(I1
(I42
tg10
I00
(lp366
g17
ag20
ag21
ag25
ag27
ag28
ag161
ag32
ag33
ag34
ag36
ag37
ag38
ag39
ag40
ag41
ag44
ag45
ag50
ag51
ag54
ag59
ag65
ag68
ag73
ag74
ag77
ag81
ag82
ag87
ag90
ag101
ag112
ag114
ag115
ag119
ag120
ag121
ag122
ag125
ag169
ag132
atbsg136
NstRp367
ag2
(g3
(dp368
g5
g6
(g7
(I0
tS'b'
tRp369
(I1
(I42
tg10
I00
(lp370
g17
ag20
ag25
ag27
ag28
ag30
ag31
ag32
ag33
ag34
ag36
ag38
ag39
ag40
ag41
ag44
ag50
ag51
ag53
ag54
ag55
ag56
ag57
ag58
ag59
ag60
ag61
ag62
ag63
ag65
ag67
ag68
ag69
ag84
ag86
ag87
ag94
ag97
ag98
ag99
ag119
ag121
atbsg136
NstRp371
ag2
(g3
(dp372
g5
g6
(g7
(I0
tS'b'
tRp373
(I1
(I42
tg10
I00
(lp374
g12
ag13
ag17
ag20
ag22
ag25
ag27
ag30
ag31
ag32
ag33
ag36
ag37
ag39
ag40
ag41
ag142
ag42
ag44
ag45
ag50
ag51
ag54
ag59
ag65
ag70
ag73
ag77
ag81
ag86
ag89
ag90
ag95
ag101
ag105
ag112
ag113
ag119
ag120
ag121
ag169
ag184
atbsg136
NstRp375
ag2
(g3
(dp376
g5
g6
(g7
(I0
tS'b'
tRp377
(I1
(I165
tg10
I00
(lp378
g12
ag189
ag13
ag14
ag15
ag210
ag16
ag141
ag17
ag18
ag19
ag20
ag156
ag21
ag22
ag23
ag24
ag25
ag179
ag26
ag27
ag28
ag29
ag30
ag31
aS'EDINBSUB1'
p379
aS'EDINBTOT'
p380
ag161
ag32
ag33
ag34
ag35
ag36
ag190
ag37
ag38
ag39
ag40
ag41
ag142
ag42
ag43
ag44
ag45
ag46
ag47
ag191
ag48
ag49
aS'FIM (SUB4'
p381
ag50
ag51
ag52
ag53
ag54
ag55
ag56
ag57
ag58
ag59
ag60
ag61
ag62
ag63
ag64
ag65
ag66
ag67
ag68
ag69
ag70
ag192
ag71
ag193
ag72
ag73
ag74
ag75
ag76
ag194
ag195
ag77
ag78
ag79
ag80
ag81
ag82
ag83
ag84
ag85
ag196
ag86
ag87
ag88
ag166
ag89
ag167
ag90
ag91
ag92
ag93
ag94
ag95
ag168
ag96
ag97
ag98
ag99
ag100
ag101
ag102
ag103
ag104
ag105
ag147
ag106
ag107
ag108
ag109
ag110
ag300
ag306
ag180
ag111
ag112
ag113
ag114
ag181
ag115
ag116
ag301
ag117
ag118
ag119
ag182
ag211
ag120
ag121
ag122
ag174
ag123
ag197
ag124
ag125
ag198
ag126
ag127
ag128
ag129
ag130
ag183
ag199
ag169
ag131
ag132
ag222
ag200
ag184
ag223
ag133
ag134
ag135
ag212
ag213
ag201
atbsg136
NstRp382
ag2
(g3
(dp383
g5
g6
(g7
(I0
tS'b'
tRp384
(I1
(I83
tg10
I00
(lp385
g12
ag13
ag15
ag16
ag141
ag17
ag19
ag20
ag156
ag21
ag22
ag23
ag25
ag26
ag27
ag28
ag30
ag31
ag32
ag33
ag34
ag35
ag36
ag190
ag37
ag38
ag39
ag40
ag41
ag142
ag42
ag44
ag45
ag47
ag48
ag49
ag50
ag51
ag52
ag53
ag54
ag55
ag57
ag59
ag62
ag64
ag65
ag66
ag68
ag70
ag73
ag74
ag77
ag78
ag80
ag81
ag82
ag86
ag88
ag90
ag92
ag95
ag168
ag101
ag102
ag105
ag108
ag109
ag111
ag112
ag113
ag114
ag115
ag117
ag118
ag119
ag182
ag120
ag121
ag122
ag123
ag125
ag169
atbsg136
NstRp386
ag2
(g3
(dp387
g5
g6
(g7
(I0
tS'b'
tRp388
(I1
(I42
tg10
I00
(lp389
g16
ag17
ag20
ag25
ag27
ag30
ag31
ag32
ag34
ag36
ag38
ag39
ag40
ag41
ag43
ag44
ag45
ag46
ag50
ag51
ag54
ag55
ag57
ag59
ag61
ag63
ag65
ag67
ag69
ag79
ag89
ag92
ag97
ag98
ag99
ag100
ag105
ag112
ag119
ag121
ag123
ag169
atbsg136
NstRp390
ag2
(g3
(dp391
g5
g6
(g7
(I0
tS'b'
tRp392
(I1
(I42
tg10
I00
(lp393
g189
ag16
ag17
ag20
ag25
ag26
ag27
ag161
ag32
ag33
ag34
ag36
ag37
ag38
ag39
ag40
ag41
ag44
ag45
ag47
ag50
ag51
ag54
ag56
ag57
ag59
ag62
ag65
ag68
ag69
ag74
ag81
ag90
ag95
ag99
ag111
ag119
ag120
ag121
ag123
ag125
ag169
atbsg136
NstRp394
ag2
(g3
(dp395
g5
g6
(g7
(I0
tS'b'
tRp396
(I1
(I124
tg10
I00
(lp397
g13
ag14
ag15
ag16
ag141
ag17
ag18
ag19
ag20
ag21
ag22
ag23
ag24
ag25
ag179
ag27
ag28
ag29
ag30
ag31
ag161
ag32
ag33
ag34
ag35
ag36
ag190
ag37
ag38
ag39
ag40
ag41
ag142
ag42
ag43
ag44
ag45
ag46
ag47
ag191
ag48
ag49
ag50
ag51
ag52
ag53
ag54
ag55
ag56
ag57
ag58
ag59
ag60
ag61
ag62
ag64
ag65
ag66
ag70
ag192
ag71
ag73
ag74
ag76
ag194
ag195
ag77
ag78
ag79
ag81
ag82
ag83
ag84
ag85
ag196
ag86
ag87
ag88
ag89
ag167
ag90
ag91
ag92
ag94
ag95
ag168
ag97
ag98
ag101
ag103
ag105
ag147
ag106
ag108
ag109
ag110
ag111
ag112
ag113
ag114
ag181
ag115
ag116
ag301
ag119
ag182
ag120
ag121
ag122
ag123
ag197
ag124
ag125
ag198
ag126
ag128
ag199
ag169
ag131
ag132
ag200
ag184
ag212
ag213
atbsg136
NstRp398
ag2
(g3
(dp399
g5
g6
(g7
(I0
tS'b'
tRp400
(I1
(I42
tg10
I00
(lp401
g20
ag25
ag33
ag36
ag37
ag39
ag40
ag41
ag142
ag42
ag44
ag49
ag50
ag51
ag52
ag54
ag56
ag57
ag59
ag70
ag73
ag77
ag80
ag81
ag82
ag87
ag166
ag90
ag95
ag102
ag105
ag110
ag181
ag117
ag119
ag120
ag121
ag122
ag197
ag127
ag130
ag184
atbsg136
NstRp402
ag2
(g3
(dp403
g5
g6
(g7
(I0
tS'b'
tRp404
(I1
(I124
tg10
I00
(lp405
g12
ag14
ag15
ag210
ag16
ag141
ag17
ag19
ag20
ag21
ag22
ag23
ag24
ag25
ag27
ag28
ag30
ag31
ag161
ag32
ag33
ag35
ag36
ag190
ag37
ag38
ag39
ag40
ag41
ag142
ag42
ag43
ag44
ag45
ag46
ag47
ag48
ag49
ag50
ag51
ag52
ag54
ag55
ag56
ag59
ag61
ag62
ag64
ag65
ag66
ag67
ag69
ag70
ag71
ag72
ag73
ag74
ag75
ag76
ag77
ag78
ag79
ag80
ag81
ag82
ag84
ag85
ag86
ag87
ag88
ag89
ag90
ag91
ag92
ag93
ag94
ag95
ag168
ag96
ag97
ag98
ag101
ag104
ag105
ag147
ag106
ag108
ag109
ag110
ag180
ag111
ag112
ag113
ag114
ag181
ag115
ag116
ag117
ag118
ag119
ag182
ag120
ag121
ag122
ag174
ag123
ag197
ag124
ag125
ag126
ag127
ag129
ag183
ag199
ag169
ag132
ag222
ag200
ag184
ag223
ag134
ag135
ag212
ag213
atbsg136
NstRp406
ag2
(g3
(dp407
g5
g6
(g7
(I0
tS'b'
tRp408
(I1
(I83
tg10
I00
(lp409
g13
ag14
ag210
ag16
ag141
ag20
ag156
ag21
ag22
ag23
ag24
ag25
ag26
ag27
ag28
ag30
ag31
ag161
ag32
ag33
ag34
ag36
ag37
ag38
ag39
ag40
ag41
ag142
ag42
ag43
ag44
ag45
ag47
ag49
ag50
ag51
ag52
ag53
ag54
ag55
ag57
ag58
ag59
ag64
ag65
ag70
ag71
ag73
ag76
ag77
ag78
ag80
ag81
ag82
ag85
ag87
ag88
ag90
ag95
ag168
ag99
ag101
ag102
ag105
ag108
ag109
ag110
ag180
ag112
ag113
ag181
ag115
ag116
ag117
ag119
ag120
ag121
ag122
ag123
ag124
ag125
ag169
ag212
atbsg136
NstRp410
ag2
(g3
(dp411
g5
g6
(g7
(I0
tS'b'
tRp412
(I1
(I42
tg10
I00
(lp413
g16
ag20
ag25
ag30
ag31
ag33
ag36
ag37
ag38
ag39
ag40
ag41
ag45
ag47
ag50
ag53
ag54
ag55
ag56
ag57
ag58
ag59
ag60
ag61
ag62
ag63
ag64
ag65
ag66
ag67
ag68
ag69
ag79
ag86
ag87
ag97
ag99
ag119
ag120
ag121
ag174
ag123
atbsg136
NstRp414
ag2
(g3
(dp415
g5
g6
(g7
(I0
tS'b'
tRp416
(I1
(I165
tg10
I00
(lp417
g12
ag189
ag13
ag14
ag15
ag210
ag16
ag141
ag17
ag18
ag19
ag20
ag156
ag21
ag22
ag23
ag24
ag25
ag179
ag26
ag27
ag28
ag29
ag30
ag31
ag379
ag380
ag161
ag32
ag33
ag34
ag35
ag36
ag190
ag37
ag38
ag39
ag40
ag41
ag142
ag42
ag43
ag44
ag45
ag46
ag47
ag191
ag48
ag49
ag381
ag50
ag51
ag52
ag53
ag54
ag55
ag56
ag57
ag58
ag59
ag60
ag61
ag62
ag63
ag64
ag65
ag66
ag67
ag68
ag69
ag70
ag192
ag71
ag193
ag72
ag73
ag74
ag75
ag76
ag194
ag195
ag77
ag78
ag79
ag80
ag81
ag82
ag83
ag84
ag85
ag196
ag86
ag87
ag88
ag166
ag89
ag167
ag90
ag91
ag92
ag93
ag94
ag95
ag168
ag96
ag97
ag98
ag99
ag100
ag101
ag102
ag103
ag104
ag105
ag147
ag106
ag107
ag108
ag109
ag110
ag300
ag306
ag180
ag111
ag112
ag113
ag114
ag181
ag115
ag116
ag301
ag117
ag118
ag119
ag182
ag211
ag120
ag121
ag122
ag174
ag123
ag197
ag124
ag125
ag198
ag126
ag127
ag128
ag129
ag130
ag183
ag199
ag169
ag131
ag132
ag222
ag200
ag184
ag223
ag133
ag134
ag135
ag212
ag213
ag201
atbsg136
NstRp418
ag2
(g3
(dp419
g5
g6
(g7
(I0
tS'b'
tRp420
(I1
(I83
tg10
I00
(lp421
g13
ag14
ag16
ag17
ag19
ag20
ag23
ag24
ag25
ag179
ag27
ag30
ag31
ag32
ag34
ag35
ag36
ag37
ag38
ag39
ag40
ag41
ag42
ag43
ag44
ag45
ag50
ag51
ag53
ag54
ag55
ag56
ag57
ag58
ag59
ag60
ag61
ag62
ag63
ag64
ag65
ag66
ag67
ag68
ag69
ag70
ag76
ag80
ag82
ag84
ag85
ag86
ag87
ag166
ag89
ag90
ag91
ag92
ag94
ag97
ag98
ag99
ag100
ag101
ag102
ag109
ag306
ag113
ag119
ag182
ag120
ag121
ag122
ag174
ag123
ag126
ag127
ag129
ag183
ag169
ag132
ag134
ag135
atbsg136
NstRp422
ag2
(g3
(dp423
g5
g6
(g7
(I0
tS'b'
tRp424
(I1
(I83
tg10
I00
(lp425
g13
ag15
ag16
ag141
ag17
ag18
ag19
ag20
ag21
ag22
ag25
ag26
ag27
ag30
ag31
ag32
ag33
ag34
ag36
ag37
ag38
ag39
ag40
ag41
ag142
ag43
ag44
ag45
ag47
ag50
ag51
ag52
ag53
ag54
ag55
ag56
ag57
ag59
ag61
ag62
ag63
ag65
ag67
ag68
ag69
ag70
ag71
ag72
ag195
ag78
ag79
ag80
ag84
ag85
ag86
ag87
ag88
ag166
ag89
ag167
ag90
ag91
ag92
ag94
ag97
ag98
ag99
ag100
ag105
ag106
ag108
ag110
ag111
ag113
ag114
ag115
ag118
ag119
ag120
ag121
ag122
ag123
ag200
atbsg136
NstRp426
ag2
(g3
(dp427
g5
g6
(g7
(I0
tS'b'
tRp428
(I1
(I42
tg10
I00
(lp429
g20
ag27
ag32
ag36
ag37
ag38
ag39
ag40
ag41
ag43
ag45
ag50
ag51
ag53
ag54
ag55
ag56
ag57
ag58
ag59
ag60
ag61
ag62
ag63
ag64
ag65
ag66
ag67
ag68
ag69
ag84
ag166
ag89
ag91
ag92
ag94
ag97
ag98
ag99
ag100
ag119
ag121
atbsg136
NstRp430
ag2
(g3
(dp431
g5
g6
(g7
(I0
tS'b'
tRp432
(I1
(I42
tg10
I00
(lp433
g189
ag17
ag25
ag32
ag36
ag37
ag38
ag39
ag40
ag41
ag44
ag45
ag50
ag51
ag54
ag56
ag57
ag59
ag60
ag61
ag62
ag63
ag65
ag67
ag68
ag69
ag71
ag79
ag81
ag87
ag89
ag168
ag97
ag98
ag99
ag111
ag119
ag121
ag174
ag123
ag125
ag135
atbsg136
NstRp434
ag2
(g3
(dp435
g5
g6
(g7
(I0
tS'b'
tRp436
(I1
(I42
tg10
I00
(lp437
g25
ag27
ag32
ag35
ag36
ag37
ag38
ag39
ag40
ag41
ag44
ag50
ag51
ag54
ag56
ag57
ag58
ag59
ag60
ag61
ag62
ag63
ag65
ag66
ag67
ag68
ag69
ag80
ag84
ag86
ag87
ag166
ag89
ag91
ag92
ag94
ag95
ag97
ag98
ag99
ag100
ag119
atbsg136
NstRp438
ag2
(g3
(dp439
g5
g6
(g7
(I0
tS'b'
tRp440
(I1
(I42
tg10
I00
(lp441
g17
ag20
ag21
ag25
ag26
ag27
ag28
ag32
ag36
ag37
ag38
ag39
ag40
ag41
ag44
ag45
ag50
ag51
ag57
ag59
ag61
ag63
ag65
ag67
ag69
ag70
ag71
ag79
ag81
ag82
ag86
ag87
ag89
ag97
ag99
ag101
ag111
ag112
ag115
ag118
ag119
ag121
atbsg136
NstRp442
ag2
(g3
(dp443
g5
g6
(g7
(I0
tS'b'
tRp444
(I1
(I42
tg10
I00
(lp445
g12
ag16
ag20
ag25
ag26
ag27
ag33
ag34
ag36
ag37
ag38
ag39
ag40
ag41
ag42
ag44
ag45
ag47
ag49
ag50
ag51
ag54
ag59
ag64
ag65
ag70
ag73
ag77
ag78
ag81
ag82
ag87
ag89
ag95
ag101
ag105
ag111
ag115
ag119
ag121
ag125
ag126
atbsg136
NstRp446
ag2
(g3
(dp447
g5
g6
(g7
(I0
tS'b'
tRp448
(I1
(I42
tg10
I00
(lp449
g13
ag15
ag17
ag20
ag25
ag27
ag30
ag31
ag32
ag36
ag37
ag38
ag39
ag40
ag41
ag43
ag44
ag45
ag47
ag50
ag51
ag54
ag55
ag57
ag59
ag61
ag63
ag65
ag67
ag69
ag78
ag81
ag82
ag196
ag98
ag100
ag101
ag111
ag115
ag119
ag120
ag121
atbsg136
NstRp450
ag2
(g3
(dp451
g5
g6
(g7
(I0
tS'b'
tRp452
(I1
(I42
tg10
I00
(lp453
g16
ag17
ag20
ag156
ag23
ag25
ag26
ag27
ag30
ag31
ag161
ag33
ag35
ag36
ag37
ag39
ag40
ag41
ag44
ag45
ag50
ag51
ag54
ag57
ag59
ag65
ag70
ag73
ag77
ag81
ag82
ag85
ag87
ag90
ag92
ag101
ag114
ag181
ag119
ag120
ag121
ag130
atbsg136
NstRp454
ag2
(g3
(dp455
g5
g6
(g7
(I0
tS'b'
tRp456
(I1
(I42
tg10
I00
(lp457
g20
ag22
ag25
ag27
ag32
ag33
ag36
ag38
ag39
ag40
ag41
ag43
ag44
ag45
ag50
ag51
ag52
ag53
ag54
ag55
ag56
ag57
ag59
ag60
ag61
ag62
ag63
ag65
ag67
ag68
ag69
ag79
ag81
ag87
ag89
ag97
ag98
ag99
ag100
ag119
ag121
ag123
atbsg136
NstRp458
ag2
(g3
(dp459
g5
g6
(g7
(I0
tS'b'
tRp460
(I1
(I42
tg10
I00
(lp461
g141
ag17
ag20
ag25
ag27
ag32
ag33
ag36
ag37
ag39
ag40
ag41
ag142
ag43
ag44
ag45
ag47
ag49
ag50
ag51
ag54
ag57
ag59
ag64
ag65
ag70
ag73
ag77
ag80
ag81
ag90
ag95
ag105
ag108
ag109
ag110
ag111
ag114
ag117
ag119
ag121
ag122
atbsg136
NstRp462
ag2
(g3
(dp463
g5
g6
(g7
(I0
tS'b'
tRp464
(I1
(I42
tg10
I00
(lp465
g16
ag141
ag20
ag25
ag27
ag33
ag35
ag36
ag37
ag39
ag40
ag41
ag142
ag42
ag45
ag50
ag51
ag54
ag59
ag65
ag67
ag70
ag73
ag77
ag78
ag80
ag81
ag82
ag87
ag90
ag92
ag95
ag101
ag103
ag105
ag181
ag117
ag119
ag182
ag120
ag121
ag122
atbsg136
NstRp466
ag2
(g3
(dp467
g5
g6
(g7
(I0
tS'b'
tRp468
(I1
(I42
tg10
I00
(lp469
g16
ag17
ag20
ag25
ag28
ag32
ag36
ag38
ag39
ag40
ag41
ag43
ag45
ag50
ag51
ag53
ag54
ag55
ag56
ag57
ag58
ag59
ag60
ag61
ag62
ag63
ag64
ag65
ag66
ag67
ag68
ag69
ag89
ag92
ag94
ag96
ag97
ag100
ag108
ag181
ag115
ag119
atbsg136
NstRp470
ag2
(g3
(dp471
g5
g6
(g7
(I0
tS'b'
tRp472
(I1
(I42
tg10
I00
(lp473
g13
ag16
ag17
ag20
ag22
ag25
ag27
ag28
ag30
ag31
ag32
ag33
ag34
ag36
ag37
ag38
ag39
ag40
ag41
ag44
ag45
ag50
ag54
ag56
ag57
ag59
ag60
ag62
ag65
ag67
ag68
ag79
ag84
ag166
ag89
ag91
ag92
ag97
ag98
ag119
ag120
ag169
atbsg136
NstRp474
ag2
(g3
(dp475
g5
g6
(g7
(I0
tS'b'
tRp476
(I1
(I42
tg10
I00
(lp477
g13
ag210
ag17
ag20
ag24
ag25
ag26
ag33
ag34
ag35
ag36
ag37
ag39
ag40
ag41
ag142
ag42
ag44
ag45
ag49
ag50
ag51
ag53
ag54
ag59
ag65
ag73
ag77
ag78
ag81
ag85
ag96
ag101
ag105
ag109
ag114
ag115
ag119
ag182
ag121
ag123
ag125
atbsg136
NstRp478
ag2
(g3
(dp479
g5
g6
(g7
(I0
tS'b'
tRp480
(I1
(I42
tg10
I00
(lp481
g20
ag22
ag25
ag26
ag27
ag32
ag33
ag34
ag35
ag36
ag37
ag38
ag39
ag40
ag41
ag44
ag45
ag47
ag50
ag51
ag54
ag56
ag57
ag59
ag60
ag62
ag65
ag67
ag68
ag69
ag78
ag79
ag87
ag88
ag89
ag91
ag97
ag100
ag111
ag114
ag119
ag121
atbsg136
NstRp482
ag2
(g3
(dp483
g5
g6
(g7
(I0
tS'b'
tRp484
(I1
(I83
tg10
I00
(lp485
g13
ag16
ag17
ag18
ag19
ag20
ag21
ag24
ag25
ag179
ag27
ag28
ag30
ag31
ag161
ag32
ag33
ag34
ag35
ag36
ag37
ag38
ag39
ag40
ag41
ag43
ag44
ag45
ag47
ag49
ag50
ag51
ag52
ag54
ag55
ag57
ag59
ag60
ag64
ag65
ag66
ag70
ag71
ag73
ag74
ag195
ag77
ag78
ag79
ag80
ag81
ag82
ag83
ag196
ag86
ag87
ag88
ag89
ag90
ag94
ag168
ag98
ag101
ag105
ag106
ag108
ag109
ag110
ag111
ag112
ag113
ag181
ag115
ag116
ag119
ag120
ag121
ag122
ag123
ag125
ag126
ag134
ag213
atbsg136
NstRp486
ag2
(g3
(dp487
g5
g6
(g7
(I0
tS'b'
tRp488
(I1
(I42
tg10
I00
(lp489
g13
ag17
ag19
ag20
ag25
ag27
ag30
ag31
ag33
ag34
ag36
ag37
ag39
ag40
ag41
ag142
ag42
ag44
ag45
ag49
ag50
ag51
ag53
ag57
ag59
ag65
ag70
ag73
ag81
ag82
ag87
ag90
ag105
ag109
ag112
ag181
ag119
ag120
ag121
ag122
ag123
ag125
atbsg136
NstRp490
ag2
(g3
(dp491
g5
g6
(g7
(I0
tS'b'
tRp492
(I1
(I83
tg10
I00
(lp493
g210
ag16
ag141
ag17
ag20
ag21
ag23
ag24
ag25
ag26
ag27
ag28
ag30
ag31
ag33
ag34
ag36
ag37
ag38
ag39
ag40
ag41
ag142
ag42
ag43
ag44
ag45
ag47
ag49
ag50
ag51
ag54
ag55
ag56
ag58
ag59
ag64
ag65
ag67
ag70
ag71
ag73
ag74
ag194
ag77
ag80
ag81
ag82
ag85
ag86
ag87
ag89
ag167
ag90
ag94
ag95
ag101
ag102
ag103
ag105
ag106
ag108
ag109
ag110
ag111
ag113
ag114
ag181
ag115
ag117
ag118
ag119
ag182
ag120
ag121
ag122
ag123
ag124
ag125
ag183
ag169
ag200
ag135
atbsg136
NstRp494
ag2
(g3
(dp495
g5
g6
(g7
(I0
tS'b'
tRp496
(I1
(I42
tg10
I00
(lp497
g16
ag141
ag20
ag25
ag33
ag36
ag37
ag39
ag40
ag41
ag142
ag42
ag44
ag45
ag49
ag50
ag51
ag54
ag56
ag59
ag65
ag70
ag73
ag74
ag77
ag81
ag82
ag85
ag90
ag95
ag101
ag105
ag109
ag110
ag111
ag112
ag117
ag119
ag182
ag120
ag121
ag122
atbsg136
NstRp498
ag2
(g3
(dp499
g5
g6
(g7
(I0
tS'b'
tRp500
(I1
(I42
tg10
I00
(lp501
g16
ag25
ag30
ag31
ag32
ag34
ag36
ag37
ag38
ag39
ag40
ag41
ag43
ag44
ag45
ag50
ag51
ag54
ag55
ag57
ag59
ag63
ag65
ag67
ag69
ag73
ag79
ag80
ag84
ag87
ag166
ag89
ag91
ag92
ag94
ag95
ag97
ag98
ag100
ag119
ag121
ag123
atbsg136
NstRp502
ag2
(g3
(dp503
g5
g6
(g7
(I0
tS'b'
tRp504
(I1
(I124
tg10
I00
(lp505
g12
ag189
ag13
ag15
ag210
ag16
ag141
ag17
ag19
ag20
ag156
ag22
ag23
ag24
ag25
ag179
ag26
ag27
ag28
ag30
ag31
ag161
ag32
ag33
ag35
ag36
ag190
ag37
ag39
ag40
ag41
ag142
ag42
ag43
ag44
ag45
ag46
ag47
ag48
ag49
ag50
ag51
ag52
ag53
ag54
ag55
ag56
ag57
ag58
ag59
ag60
ag61
ag62
ag63
ag65
ag66
ag67
ag70
ag192
ag71
ag72
ag73
ag74
ag77
ag78
ag79
ag81
ag82
ag85
ag196
ag86
ag87
ag166
ag89
ag167
ag90
ag91
ag92
ag94
ag95
ag168
ag96
ag97
ag98
ag99
ag101
ag103
ag104
ag105
ag106
ag107
ag108
ag109
ag110
ag111
ag112
ag113
ag114
ag181
ag115
ag116
ag117
ag118
ag119
ag182
ag120
ag121
ag122
ag197
ag124
ag125
ag198
ag126
ag128
ag183
ag199
ag169
ag131
ag132
ag184
ag223
ag134
ag135
ag212
atbsg136
NstRp506
ag2
(g3
(dp507
g5
g6
(g7
(I0
tS'b'
tRp508
(I1
(I42
tg10
I00
(lp509
g15
ag210
ag16
ag17
ag20
ag22
ag25
ag26
ag27
ag161
ag32
ag33
ag34
ag36
ag37
ag38
ag39
ag40
ag41
ag44
ag45
ag46
ag50
ag51
ag54
ag55
ag59
ag65
ag81
ag88
ag89
ag95
ag101
ag105
ag108
ag109
ag110
ag119
ag120
ag121
ag174
ag123
atbsg136
NstRp510
ag2
(g3
(dp511
g5
g6
(g7
(I0
tS'b'
tRp512
(I1
(I42
tg10
I00
(lp513
g141
ag17
ag20
ag22
ag25
ag27
ag30
ag31
ag33
ag36
ag37
ag39
ag40
ag41
ag142
ag42
ag44
ag45
ag47
ag49
ag50
ag51
ag54
ag57
ag59
ag65
ag66
ag70
ag73
ag80
ag81
ag86
ag87
ag88
ag89
ag90
ag95
ag111
ag115
ag119
ag121
ag122
atbsg136
NstRp514
ag2
(g3
(dp515
g5
g6
(g7
(I0
tS'b'
tRp516
(I1
(I42
tg10
I00
(lp517
g12
ag16
ag17
ag20
ag25
ag27
ag161
ag33
ag34
ag36
ag37
ag39
ag40
ag41
ag42
ag44
ag45
ag49
ag50
ag51
ag54
ag59
ag65
ag73
ag77
ag80
ag81
ag196
ag87
ag90
ag101
ag106
ag108
ag111
ag117
ag118
ag119
ag120
ag121
ag123
ag125
ag169
atbsg136
NstRp518
ag2
(g3
(dp519
g5
g6
(g7
(I0
tS'b'
tRp520
(I1
(I124
tg10
I00
(lp521
g12
ag13
ag14
ag210
ag16
ag141
ag17
ag19
ag20
ag156
ag22
ag23
ag24
ag25
ag179
ag26
ag27
ag29
ag30
ag31
ag32
ag33
ag34
ag35
ag36
ag37
ag38
ag39
ag40
ag41
ag142
ag42
ag43
ag44
ag45
ag46
ag47
ag48
ag49
ag50
ag51
ag52
ag53
ag54
ag55
ag56
ag57
ag58
ag59
ag60
ag63
ag64
ag65
ag66
ag67
ag68
ag70
ag71
ag193
ag72
ag73
ag74
ag194
ag195
ag77
ag78
ag79
ag80
ag81
ag82
ag85
ag196
ag86
ag87
ag88
ag166
ag89
ag90
ag91
ag92
ag95
ag168
ag96
ag97
ag98
ag101
ag102
ag103
ag104
ag105
ag147
ag107
ag108
ag109
ag110
ag111
ag113
ag114
ag181
ag116
ag117
ag118
ag119
ag120
ag121
ag122
ag123
ag197
ag124
ag125
ag198
ag126
ag128
ag183
ag199
ag169
ag131
ag132
ag200
ag184
ag223
ag133
ag134
ag135
atbsg136
NstRp522
ag2
(g3
(dp523
g5
g6
(g7
(I0
tS'b'
tRp524
(I1
(I42
tg10
I00
(lp525
g20
ag21
ag25
ag27
ag32
ag34
ag36
ag37
ag38
ag39
ag40
ag41
ag44
ag381
ag50
ag51
ag52
ag55
ag57
ag59
ag61
ag63
ag65
ag67
ag68
ag80
ag84
ag86
ag87
ag166
ag89
ag91
ag92
ag94
ag95
ag97
ag98
ag99
ag100
ag119
ag121
ag123
atbsg136
NstRp526
ag2
(g3
(dp527
g5
g6
(g7
(I0
tS'b'
tRp528
(I1
(I42
tg10
I00
(lp529
g13
ag16
ag17
ag20
ag22
ag25
ag26
ag27
ag30
ag31
ag32
ag33
ag36
ag37
ag39
ag40
ag41
ag42
ag44
ag45
ag49
ag50
ag51
ag54
ag57
ag59
ag64
ag65
ag70
ag77
ag81
ag82
ag88
ag93
ag95
ag101
ag105
ag108
ag114
ag119
ag120
ag121
atbsg136
NstRp530
ag2
(g3
(dp531
g5
g6
(g7
(I0
tS'b'
tRp532
(I1
(I42
tg10
I00
(lp533
g16
ag17
ag20
ag25
ag26
ag27
ag28
ag32
ag33
ag36
ag37
ag39
ag40
ag41
ag42
ag44
ag45
ag50
ag51
ag53
ag54
ag57
ag59
ag65
ag70
ag78
ag81
ag86
ag87
ag89
ag90
ag95
ag101
ag147
ag108
ag109
ag110
ag111
ag118
ag119
ag121
ag123
atbsg136
NstRp534
ag2
(g3
(dp535
g5
g6
(g7
(I0
tS'b'
tRp536
(I1
(I83
tg10
I00
(lp537
g12
ag14
ag15
ag16
ag141
ag17
ag20
ag156
ag24
ag25
ag179
ag27
ag28
ag30
ag31
ag161
ag33
ag34
ag35
ag36
ag37
ag39
ag40
ag41
ag42
ag43
ag44
ag45
ag46
ag47
ag48
ag49
ag50
ag51
ag52
ag54
ag55
ag57
ag58
ag59
ag64
ag65
ag66
ag70
ag71
ag193
ag73
ag74
ag77
ag80
ag81
ag82
ag84
ag85
ag86
ag87
ag88
ag89
ag90
ag91
ag94
ag95
ag168
ag101
ag104
ag105
ag109
ag110
ag112
ag113
ag114
ag181
ag115
ag118
ag119
ag182
ag120
ag121
ag122
ag197
ag199
ag169
ag132
atbsg136
NstRp538
ag2
(g3
(dp539
g5
g6
(g7
(I0
tS'b'
tRp540
(I1
(I165
tg10
I00
(lp541
g12
ag189
ag13
ag14
ag15
ag210
ag16
ag141
ag17
ag18
ag19
ag20
ag156
ag21
ag22
ag23
ag24
ag25
ag179
ag26
ag27
ag28
ag29
ag30
ag31
ag379
ag380
ag161
ag32
ag33
ag34
ag35
ag36
ag190
ag37
ag38
ag39
ag40
ag41
ag142
ag42
ag43
ag44
ag45
ag46
ag47
ag191
ag48
ag49
ag381
ag50
ag51
ag52
ag53
ag54
ag55
ag56
ag57
ag58
ag59
ag60
ag61
ag62
ag63
ag64
ag65
ag66
ag67
ag68
ag69
ag70
ag192
ag71
ag193
ag72
ag73
ag74
ag75
ag76
ag194
ag195
ag77
ag78
ag79
ag80
ag81
ag82
ag83
ag84
ag85
ag196
ag86
ag87
ag88
ag166
ag89
ag167
ag90
ag91
ag92
ag93
ag94
ag95
ag168
ag96
ag97
ag98
ag99
ag100
ag101
ag102
ag103
ag104
ag105
ag147
ag106
ag107
ag108
ag109
ag110
ag300
ag306
ag180
ag111
ag112
ag113
ag114
ag181
ag115
ag116
ag301
ag117
ag118
ag119
ag182
ag211
ag120
ag121
ag122
ag174
ag123
ag197
ag124
ag125
ag198
ag126
ag127
ag128
ag129
ag130
ag183
ag199
ag169
ag131
ag132
ag222
ag200
ag184
ag223
ag133
ag134
ag135
ag212
ag213
ag201
atbsg136
NstRp542
ag2
(g3
(dp543
g5
g6
(g7
(I0
tS'b'
tRp544
(I1
(I42
tg10
I00
(lp545
g16
ag17
ag20
ag25
ag26
ag27
ag30
ag31
ag33
ag36
ag37
ag39
ag40
ag41
ag43
ag44
ag45
ag49
ag50
ag51
ag52
ag54
ag57
ag59
ag64
ag65
ag73
ag81
ag82
ag89
ag90
ag94
ag95
ag105
ag108
ag109
ag111
ag116
ag119
ag182
ag122
ag125
atbsg136
NstRp546
ag2
(g3
(dp547
g5
g6
(g7
(I0
tS'b'
tRp548
(I1
(I42
tg10
I00
(lp549
g16
ag17
ag20
ag25
ag26
ag34
ag36
ag37
ag38
ag39
ag40
ag41
ag43
ag44
ag45
ag50
ag51
ag54
ag57
ag59
ag65
ag66
ag69
ag70
ag81
ag82
ag88
ag90
ag91
ag92
ag95
ag101
ag105
ag115
ag119
ag120
ag121
ag123
ag125
ag169
ag132
ag135
atbsg136
NstRp550
ag2
(g3
(dp551
g5
g6
(g7
(I0
tS'b'
tRp552
(I1
(I42
tg10
I00
(lp553
g17
ag20
ag25
ag26
ag27
ag30
ag31
ag32
ag34
ag36
ag37
ag38
ag39
ag40
ag41
ag43
ag44
ag50
ag51
ag54
ag57
ag59
ag61
ag63
ag65
ag67
ag68
ag69
ag84
ag86
ag88
ag89
ag90
ag91
ag92
ag94
ag97
ag99
ag100
ag119
ag121
ag123
atbsg136
NstRp554
ag2
(g3
(dp555
g5
g6
(g7
(I0
tS'b'
tRp556
(I1
(I42
tg10
I00
(lp557
g16
ag141
ag17
ag20
ag24
ag25
ag26
ag27
ag33
ag36
ag37
ag39
ag40
ag41
ag142
ag42
ag44
ag45
ag50
ag51
ag54
ag59
ag64
ag65
ag73
ag77
ag81
ag82
ag86
ag87
ag88
ag90
ag105
ag111
ag114
ag115
ag117
ag118
ag119
ag120
ag121
ag122
atbsg136
NstRp558
ag2
(g3
(dp559
g5
g6
(g7
(I0
tS'b'
tRp560
(I1
(I124
tg10
I00
(lp561
g12
ag14
ag210
ag16
ag141
ag17
ag20
ag156
ag21
ag24
ag25
ag179
ag26
ag27
ag30
ag31
ag161
ag32
ag33
ag34
ag35
ag36
ag37
ag38
ag39
ag40
ag41
ag142
ag42
ag43
ag44
ag45
ag46
ag47
ag48
ag49
ag381
ag50
ag51
ag52
ag53
ag54
ag55
ag56
ag57
ag58
ag59
ag60
ag61
ag64
ag65
ag66
ag67
ag68
ag69
ag70
ag192
ag71
ag193
ag73
ag74
ag76
ag195
ag77
ag78
ag79
ag80
ag81
ag82
ag83
ag84
ag85
ag196
ag87
ag88
ag166
ag89
ag167
ag90
ag91
ag93
ag94
ag95
ag97
ag98
ag99
ag101
ag102
ag103
ag104
ag105
ag147
ag106
ag107
ag109
ag110
ag111
ag112
ag113
ag114
ag181
ag116
ag301
ag117
ag118
ag119
ag182
ag120
ag121
ag122
ag123
ag124
ag125
ag126
ag127
ag128
ag130
ag183
ag199
ag169
ag200
ag184
ag223
ag212
atbsg136
NstRp562
ag2
(g3
(dp563
g5
g6
(g7
(I0
tS'b'
tRp564
(I1
(I83
tg10
I00
(lp565
g16
ag141
ag17
ag18
ag19
ag20
ag21
ag22
ag25
ag179
ag26
ag27
ag30
ag31
ag161
ag32
ag33
ag34
ag35
ag36
ag37
ag38
ag39
ag40
ag41
ag43
ag44
ag47
ag49
ag50
ag51
ag52
ag53
ag54
ag56
ag57
ag58
ag59
ag60
ag61
ag62
ag63
ag64
ag65
ag66
ag68
ag69
ag70
ag71
ag75
ag195
ag78
ag79
ag82
ag83
ag84
ag86
ag87
ag90
ag91
ag92
ag94
ag97
ag99
ag100
ag104
ag107
ag108
ag110
ag112
ag114
ag181
ag115
ag118
ag119
ag120
ag121
ag122
ag174
ag123
ag197
ag124
ag212
atbsg136
NstRp566
ag2
(g3
(dp567
g5
g6
(g7
(I0
tS'b'
tRp568
(I1
(I42
tg10
I00
(lp569
g13
ag17
ag20
ag22
ag23
ag24
ag25
ag26
ag27
ag28
ag30
ag31
ag161
ag32
ag36
ag37
ag38
ag39
ag40
ag41
ag43
ag44
ag50
ag51
ag54
ag57
ag59
ag79
ag81
ag89
ag97
ag98
ag101
ag109
ag306
ag113
ag114
ag119
ag120
ag121
ag174
ag123
atbsg136
NstRp570
ag2
(g3
(dp571
g5
g6
(g7
(I0
tS'b'
tRp572
(I1
(I83
tg10
I00
(lp573
g13
ag14
ag210
ag16
ag141
ag17
ag18
ag20
ag22
ag24
ag25
ag26
ag27
ag30
ag31
ag32
ag33
ag36
ag37
ag39
ag40
ag41
ag142
ag42
ag44
ag45
ag47
ag49
ag50
ag51
ag52
ag53
ag54
ag57
ag59
ag64
ag65
ag68
ag70
ag71
ag73
ag74
ag77
ag78
ag80
ag81
ag82
ag85
ag196
ag86
ag87
ag88
ag166
ag167
ag90
ag92
ag94
ag95
ag101
ag103
ag105
ag106
ag108
ag109
ag110
ag111
ag112
ag114
ag117
ag118
ag119
ag182
ag120
ag121
ag122
ag123
ag124
ag125
ag183
ag199
ag169
ag132
ag135
atbsg136
NstRp574
a.