(lp1
cpandas.core.indexes.base
_new_Index
p2
(cpandas.core.indexes.base
Index
p3
(dp4
S'data'
p5
cnumpy.core.multiarray
_reconstruct
p6
(cnumpy
ndarray
p7
(I0
tS'b'
tRp8
(I1
(I86
tcnumpy
dtype
p9
(S'O8'
I0
I1
tRp10
(I3
S'|'
NNNI-1
I-1
I63
tbI00
(lp11
S'ABILH005'
p12
aS'ABILH006'
p13
aS'ABILH007'
p14
aS'ABILH009'
p15
aS'ABILH011'
p16
aS'ABILH012'
p17
aS'ABILH015'
p18
aS'ABILH017'
p19
aS'ABILH018'
p20
aS'ABILH019'
p21
aS'ABILH020'
p22
aS'FIM (002'
p23
aS'FIM (003'
p24
aS'FIM (004'
p25
aS'FIM (006'
p26
aS'FIM (008'
p27
aS'FIM (010'
p28
aS'FIM (011'
p29
aS'FIM (012'
p30
aS'FIM (015'
p31
aS'FIM (016'
p32
aS'FIM (017'
p33
aS'FIM (019'
p34
aS'FIM (SUB5'
p35
aS'HADS 002'
p36
aS'HADS 004'
p37
aS'HADS 005'
p38
aS'HADS 006'
p39
aS'HADS 007'
p40
aS'HADS 008'
p41
aS'HADS 011'
p42
aS'HADS 012'
p43
aS'HADS 013'
p44
aS'HADS 014'
p45
aS'HEIG'
p46
aS'ISTRU'
p47
aS'LIFE 001'
p48
aS'LIFE 004'
p49
aS'LIFE 005'
p50
aS'LIFE 008'
p51
aS'LIFE 009'
p52
aS'LIFE 010'
p53
aS'LIFE 011'
p54
aS'MFIS 002'
p55
aS'MFIS 003'
p56
aS'MFIS 006'
p57
aS'MFIS 007'
p58
aS'MFIS 009'
p59
aS'MFIS 010'
p60
aS'MFIS 011'
p61
aS'MFIS 012'
p62
aS'MFIS 013'
p63
aS'MFIS 014'
p64
aS'MFIS 017'
p65
aS'MFIS 019'
p66
aS'MOCA 001'
p67
aS'MOCA 002'
p68
aS'MOCA 003'
p69
aS'MOCA 004'
p70
aS'MOCA 005'
p71
aS'MOCA 006'
p72
aS'MOCA 007'
p73
aS'MOCA 008'
p74
aS'MOCA 009'
p75
aS'MOCA 010'
p76
aS'MOCA 011'
p77
aS'OAB-Q002'
p78
aS'OAB-Q003'
p79
aS'OAB-Q004'
p80
aS'OAB-Q005'
p81
aS'OAB-Q006'
p82
aS'OAB-Q008'
p83
aS'PASATTOT'
p84
aS'RELAPS'
p85
aS'SDMT TOT'
p86
aS'EDINB001_1'
p87
aS'EDINB001_2'
p88
aS'EDINB002_0'
p89
aS'EDINB003_2'
p90
aS'EDINB004_0'
p91
aS'EDINB004_2'
p92
aS'EDINB005_0'
p93
aS'EDINB006_1'
p94
aS'EDINB008_0'
p95
aS'EDINB009_0'
p96
aS'EDINB010_1'
p97
atbsS'name'
p98
NstRp99
ag2
(g3
(dp100
g5
g6
(g7
(I0
tS'b'
tRp101
(I1
(I44
tg10
I00
(lp102
g13
ag14
ag17
ag20
ag27
ag29
ag30
ag32
ag35
ag36
aS'HADS 003'
p103
ag39
ag40
ag41
ag43
ag44
aS'LIFE 002'
p104
ag49
aS'LIFE 007'
p105
ag53
aS'MFIS 001'
p106
ag55
ag56
ag57
ag59
ag60
ag64
ag66
ag67
ag72
ag76
ag77
ag80
ag82
ag84
ag85
ag86
aS'WEIG'
p107
ag87
ag89
aS'EDINB003_0'
p108
ag93
aS'EDINB006_0'
p109
aS'EDINB006_2'
p110
atbsg98
NstRp111
ag2
(g3
(dp112
g5
g6
(g7
(I0
tS'b'
tRp113
(I1
(I83
tg10
I00
(lp114
S'ABILH003'
p115
aS'ABILH004'
p116
ag14
ag15
ag16
ag17
ag18
aS'ABILH016'
p117
ag20
ag21
ag22
aS'ABILH021'
p118
aS'ABILH023'
p119
aS'FIM (005'
p120
ag26
ag27
ag28
ag29
ag30
aS'FIM (014'
p121
ag32
ag33
ag34
aS'FIM (SUB3'
p122
ag35
ag36
ag103
ag38
ag39
ag40
ag42
ag43
ag44
ag45
ag46
ag47
ag48
ag49
ag50
ag53
aS'LIFE TOT'
p123
ag106
ag55
ag56
aS'MFIS 005'
p124
ag57
ag59
ag60
ag62
ag64
aS'MFIS 015'
p125
aS'MFIS 016'
p126
ag65
ag66
ag69
ag70
ag71
ag72
ag75
ag76
ag77
ag78
ag79
ag80
ag81
aS'OAB-Q007'
p127
ag83
ag84
ag85
ag86
ag107
aS'EDINB001_0'
p128
ag88
ag89
ag108
ag92
ag93
ag109
ag110
aS'EDINB008_1'
p129
aS'EDINB008_2'
p130
ag96
aS'EDINB010_0'
p131
atbsg98
NstRp132
ag2
(g3
(dp133
g5
g6
(g7
(I0
tS'b'
tRp134
(I1
(I91
tg10
I00
(lp135
S'ABILH001'
p136
ag13
ag14
ag15
ag16
ag17
ag19
ag20
ag22
ag118
aS'ABILH022'
p137
ag24
ag26
ag27
ag28
ag29
ag30
ag31
ag32
ag33
ag122
ag35
aS'HADS 001'
p138
ag36
ag103
ag38
ag39
ag40
aS'HADS 010'
p139
ag43
ag44
ag45
ag46
ag47
ag48
ag104
aS'LIFE 003'
p140
ag49
ag50
aS'LIFE 006'
p141
ag52
ag53
ag54
ag106
ag55
ag56
ag57
ag58
aS'MFIS 008'
p142
ag59
ag60
ag61
ag62
ag64
ag125
aS'MFIS 018'
p143
ag66
aS'MFIS 021'
p144
ag67
ag70
ag71
ag72
ag73
ag74
ag75
ag76
ag77
aS'OAB-Q001'
p145
ag78
ag80
ag81
ag82
ag127
ag83
ag85
ag86
ag107
ag87
ag88
ag89
aS'EDINB003_1'
p146
ag90
aS'EDINB004_1'
p147
ag92
aS'EDINB005_2'
p148
ag109
ag110
aS'EDINB007_2'
p149
ag95
ag129
ag131
atbsg98
NstRp150
ag2
(g3
(dp151
g5
g6
(g7
(I0
tS'b'
tRp152
(I1
(I87
tg10
I00
(lp153
S'ABILH008'
p154
ag15
ag16
ag17
aS'ABILH013'
p155
ag117
ag20
ag21
ag22
ag118
aS'FIM (001'
p156
ag24
ag26
ag27
aS'FIM (009'
p157
ag28
ag29
ag30
ag121
ag31
ag32
ag33
ag34
ag122
ag35
ag138
ag36
ag103
ag37
ag40
aS'HADS 009'
p158
ag42
ag43
ag44
ag45
ag46
ag48
ag104
ag140
ag49
ag50
ag105
ag52
ag53
ag54
ag106
ag55
ag56
ag57
ag58
ag59
ag60
ag63
ag64
ag125
ag126
ag67
ag71
ag72
ag73
ag75
ag76
ag77
ag78
ag79
ag80
ag82
ag83
ag84
ag85
ag86
ag87
ag88
ag89
ag108
ag90
ag91
ag147
ag93
ag148
ag109
ag110
ag149
ag95
ag129
ag131
ag97
atbsg98
NstRp159
ag2
(g3
(dp160
g5
g6
(g7
(I0
tS'b'
tRp161
(I1
(I49
tg10
I00
(lp162
S'ABILH002'
p163
ag14
ag15
ag17
ag20
ag22
ag26
ag27
ag29
ag30
ag121
ag32
ag33
ag122
ag35
ag36
ag38
ag40
ag41
ag43
ag44
ag46
ag104
ag49
ag105
ag53
ag106
ag55
ag56
ag57
ag59
ag64
ag69
ag71
ag72
ag80
ag81
ag82
ag84
ag85
ag86
ag107
ag87
ag88
ag89
ag108
ag148
ag94
ag95
atbsg98
NstRp164
ag2
(g3
(dp165
g5
g6
(g7
(I0
tS'b'
tRp166
(I1
(I89
tg10
I00
(lp167
g163
ag14
ag154
ag15
ag16
ag17
ag18
ag19
ag20
ag21
ag22
ag118
ag23
ag24
ag26
ag27
ag28
ag29
ag30
ag31
ag32
ag33
ag34
ag122
ag35
ag36
ag38
ag39
ag40
ag41
ag158
ag139
ag43
ag44
ag45
ag46
ag48
ag104
ag140
ag49
ag50
ag141
ag105
ag52
ag53
ag54
ag106
ag55
ag56
aS'MFIS 004'
p168
ag124
ag57
ag142
ag59
ag60
ag63
ag64
ag125
ag67
ag68
ag69
ag71
ag72
ag73
ag75
ag76
ag77
ag78
ag79
ag80
ag81
ag84
ag85
ag86
ag107
ag87
ag88
ag89
ag108
ag90
ag91
ag147
ag93
ag110
aS'EDINB007_1'
p169
ag95
ag129
ag96
ag131
atbsg98
NstRp170
ag2
(g3
(dp171
g5
g6
(g7
(I0
tS'b'
tRp172
(I1
(I118
tg10
I00
(lp173
g136
ag115
ag12
ag13
ag14
ag154
ag15
aS'ABILH010'
p174
ag16
ag17
ag155
ag18
ag117
ag19
ag20
ag21
ag22
ag118
ag137
ag119
aS'ABILHSUB1'
p175
ag156
ag23
ag24
ag25
ag120
ag26
ag27
ag157
ag28
ag29
ag30
ag121
ag31
ag32
ag33
ag34
ag122
ag35
ag138
ag36
ag103
ag38
ag39
ag40
ag41
ag42
ag43
ag44
ag45
ag46
ag47
ag48
ag104
ag140
ag49
ag50
ag141
ag105
ag51
ag53
ag54
ag106
ag55
ag56
ag168
ag124
ag57
ag58
ag142
ag59
ag60
ag61
ag62
ag63
ag64
ag126
ag143
ag66
aS'MFIS 020'
p176
ag144
ag67
ag69
ag70
ag71
ag73
ag74
ag75
ag76
ag77
ag145
ag79
ag80
ag81
ag127
ag84
ag85
ag86
ag107
ag128
ag88
ag89
aS'EDINB002_2'
p177
ag108
ag90
ag91
ag147
ag148
ag109
ag110
aS'EDINB007_0'
p178
ag169
ag95
ag129
ag96
aS'EDINB009_2'
p179
ag131
ag97
atbsg98
NstRp180
ag2
(g3
(dp181
g5
g6
(g7
(I0
tS'b'
tRp182
(I1
(I49
tg10
I00
(lp183
g17
ag20
ag22
ag27
ag28
ag29
ag30
ag32
ag122
ag35
ag36
ag38
ag40
ag43
ag46
ag104
ag49
ag50
ag105
ag52
ag53
ag54
ag55
ag56
ag57
ag59
ag60
ag64
ag66
ag71
ag72
ag74
ag76
ag77
ag79
ag80
ag81
ag82
ag83
ag84
ag85
ag86
ag107
ag87
ag88
ag89
ag109
ag110
ag131
atbsg98
NstRp184
ag2
(g3
(dp185
g5
g6
(g7
(I0
tS'b'
tRp186
(I1
(I43
tg10
I00
(lp187
g136
ag17
ag20
ag27
ag29
ag30
ag33
ag35
ag36
ag38
ag39
ag40
ag158
ag43
ag44
ag46
ag104
ag49
ag50
ag105
ag53
ag54
ag106
ag55
ag57
ag59
ag64
ag126
ag71
ag72
ag75
ag77
ag78
ag81
ag82
ag85
ag86
ag107
ag88
ag89
ag90
ag91
ag110
atbsg98
NstRp188
ag2
(g3
(dp189
g5
g6
(g7
(I0
tS'b'
tRp190
(I1
(I84
tg10
I00
(lp191
g116
ag12
ag13
ag14
ag15
ag16
ag17
ag18
ag19
ag20
ag22
ag118
ag24
ag25
ag26
ag27
ag28
ag29
ag30
ag32
ag33
ag34
ag122
ag35
ag138
ag36
ag37
ag38
ag39
ag40
ag41
ag139
ag43
ag44
ag45
ag46
ag47
ag48
ag49
ag50
ag52
ag53
ag106
ag55
ag56
ag168
ag57
ag59
ag61
ag63
ag64
ag125
ag126
ag65
ag66
ag176
ag67
ag71
ag72
ag73
ag74
ag75
ag76
ag77
ag145
ag79
ag80
ag81
ag82
ag127
ag84
ag85
ag86
ag107
ag87
ag88
ag89
ag177
ag108
ag90
ag147
ag110
ag169
ag97
atbsg98
NstRp192
ag2
(g3
(dp193
g5
g6
(g7
(I0
tS'b'
tRp194
(I1
(I39
tg10
I00
(lp195
g14
ag15
ag17
ag20
ag21
ag27
ag29
ag30
ag32
ag33
ag122
ag35
ag36
ag40
ag43
ag44
ag46
ag49
ag53
ag106
ag55
ag56
ag57
ag59
ag60
ag64
ag65
ag71
ag72
ag76
ag77
ag81
ag85
ag86
ag88
ag89
ag110
ag95
ag129
atbsg98
NstRp196
ag2
(g3
(dp197
g5
g6
(g7
(I0
tS'b'
tRp198
(I1
(I95
tg10
I00
(lp199
g136
ag12
ag13
ag14
ag15
ag16
ag17
ag117
ag19
ag20
ag21
ag22
ag118
ag137
ag24
ag25
ag26
ag27
ag28
ag29
ag30
ag121
ag31
ag32
ag33
ag34
ag122
ag35
ag138
ag36
ag38
ag40
ag42
ag43
ag44
ag45
ag46
ag47
ag48
ag104
ag140
ag49
ag50
ag141
ag105
ag51
ag53
ag54
ag55
ag56
ag168
ag124
ag57
ag142
ag59
ag60
ag62
ag63
ag64
ag66
ag144
ag67
ag68
ag69
ag70
ag71
ag72
ag73
ag74
ag75
ag76
ag77
ag145
ag80
ag81
ag82
ag84
ag85
ag86
ag107
ag87
ag88
ag89
ag108
ag90
ag147
ag93
ag148
ag109
ag110
ag129
ag130
ag96
ag179
ag131
atbsg98
NstRp200
ag2
(g3
(dp201
g5
g6
(g7
(I0
tS'b'
tRp202
(I1
(I84
tg10
I00
(lp203
g136
ag13
ag14
ag15
ag17
ag117
ag20
ag22
ag118
ag137
ag24
ag25
ag26
ag27
ag28
ag29
ag30
ag31
ag32
ag33
ag35
ag138
ag36
ag103
ag38
ag39
ag40
ag41
ag158
ag43
ag44
ag45
ag46
ag47
ag48
ag104
ag140
ag49
ag50
ag141
ag105
ag52
ag53
ag54
ag106
ag55
ag56
ag57
ag59
ag62
ag64
ag65
ag144
ag67
ag68
ag70
ag71
ag72
ag73
ag75
ag76
ag77
ag78
ag79
ag80
ag82
ag127
ag84
ag85
ag86
ag107
ag88
ag89
ag108
ag90
ag91
ag93
ag110
ag178
ag169
ag129
ag130
ag131
aS'EDINB010_2'
p204
atbsg98
NstRp205
ag2
(g3
(dp206
g5
g6
(g7
(I0
tS'b'
tRp207
(I1
(I81
tg10
I00
(lp208
g115
ag13
ag14
ag15
ag16
ag17
ag18
ag19
ag20
ag22
ag118
ag156
ag24
ag26
ag27
ag28
ag29
ag30
ag31
ag32
ag33
ag34
ag35
ag138
ag36
ag103
ag37
ag38
ag40
ag158
ag139
ag43
ag44
ag45
ag46
ag47
ag48
ag104
ag49
ag50
ag51
ag52
ag53
ag54
ag106
ag55
ag56
ag168
ag57
ag58
ag62
ag63
ag64
ag125
ag66
ag144
ag67
ag68
ag71
ag73
ag75
ag76
ag77
ag80
ag81
ag82
ag84
ag85
ag86
ag107
ag128
ag88
ag89
ag108
ag90
ag91
ag147
ag109
ag110
ag95
ag129
atbsg98
NstRp209
ag2
(g3
(dp210
g5
g6
(g7
(I0
tS'b'
tRp211
(I1
(I84
tg10
I00
(lp212
g136
ag154
ag15
ag16
ag17
ag155
ag18
ag117
ag19
ag20
ag22
ag118
ag119
ag24
ag25
ag26
ag27
ag28
ag29
ag30
ag31
ag32
ag33
ag34
ag35
ag138
ag36
ag103
ag38
ag39
ag40
ag158
ag43
ag44
ag45
ag46
ag48
ag140
ag49
ag50
ag105
ag51
ag52
ag53
ag54
ag55
ag56
ag168
ag57
ag142
ag59
ag60
ag62
ag63
ag64
ag66
ag144
ag67
ag69
ag71
ag73
ag75
ag76
ag77
ag78
ag79
ag80
ag81
ag82
ag127
ag85
ag86
ag107
ag88
ag89
ag108
ag90
ag147
ag109
ag110
ag178
ag129
ag96
ag131
atbsg98
NstRp213
ag2
(g3
(dp214
g5
g6
(g7
(I0
tS'b'
tRp215
(I1
(I48
tg10
I00
(lp216
g14
ag17
ag20
ag21
ag22
ag24
ag27
ag28
ag29
ag30
ag32
ag33
ag35
ag36
ag40
ag43
ag44
ag45
ag46
ag47
ag48
ag49
ag141
ag105
ag53
ag54
ag106
ag55
ag56
ag57
ag59
ag64
ag66
ag71
ag76
ag80
ag81
ag82
ag84
ag85
ag86
ag107
ag88
ag89
ag90
ag178
ag129
ag130
atbsg98
NstRp217
ag2
(g3
(dp218
g5
g6
(g7
(I0
tS'b'
tRp219
(I1
(I44
tg10
I00
(lp220
g154
ag17
ag20
ag21
ag22
ag118
ag27
ag29
ag30
ag32
ag33
ag35
ag36
ag103
ag38
ag40
ag43
ag44
ag45
aS'HADS SUB1'
p221
ag46
ag49
ag52
ag53
ag106
ag55
ag56
ag57
ag59
ag64
ag65
ag67
ag71
ag77
ag81
ag82
ag83
ag85
ag86
ag107
ag88
ag108
ag91
ag130
atbsg98
NstRp222
ag2
(g3
(dp223
g5
g6
(g7
(I0
tS'b'
tRp224
(I1
(I86
tg10
I00
(lp225
g115
ag116
ag12
ag14
ag154
ag15
ag16
ag17
ag18
ag20
ag21
ag22
ag118
ag137
ag156
ag23
ag24
ag25
ag26
ag27
ag28
ag29
ag30
ag121
ag32
ag33
aS'FIM (018'
p226
ag34
ag35
ag138
ag36
ag103
ag37
ag38
ag40
ag43
ag44
ag45
ag46
ag48
ag104
ag49
ag141
ag53
ag54
ag55
ag56
ag57
ag142
ag59
ag62
ag64
ag125
ag66
ag176
ag67
ag70
ag71
ag73
ag74
ag75
ag76
ag77
ag145
ag78
ag80
ag81
ag127
ag83
ag85
ag86
ag107
ag87
ag88
ag89
ag108
ag90
ag147
ag93
ag148
ag109
ag110
ag178
ag95
ag129
ag96
atbsg98
NstRp227
ag2
(g3
(dp228
g5
g6
(g7
(I0
tS'b'
tRp229
(I1
(I85
tg10
I00
(lp230
g115
ag116
ag14
ag15
ag174
ag17
ag19
ag20
ag22
ag118
ag119
ag24
ag25
ag26
ag27
ag28
ag29
ag30
ag31
ag32
ag33
ag226
ag34
ag122
ag35
ag138
ag36
ag103
ag38
ag40
ag158
ag139
ag42
ag43
ag44
ag45
ag46
ag48
ag104
ag140
ag49
ag141
ag105
ag51
ag53
ag54
ag55
ag56
ag57
ag59
ag60
ag61
ag62
ag63
ag64
ag125
ag126
ag66
ag67
ag69
ag70
ag71
ag72
ag75
ag76
ag77
ag145
ag78
ag80
ag81
ag82
ag127
ag84
ag85
ag86
ag107
ag87
ag88
ag89
ag108
ag147
ag93
ag110
ag169
ag96
atbsg98
NstRp231
ag2
(g3
(dp232
g5
g6
(g7
(I0
tS'b'
tRp233
(I1
(I117
tg10
I00
(lp234
g136
ag163
ag116
ag12
ag13
ag14
ag154
ag15
ag16
ag17
aS'ABILH014'
p235
ag18
ag117
ag19
ag20
ag21
ag22
ag118
ag137
ag175
aS'ABILHTOT'
p236
ag23
ag24
ag25
ag26
ag27
ag157
ag28
ag29
ag30
ag31
ag32
ag33
ag34
ag122
ag35
ag138
ag36
ag103
ag37
ag38
ag39
ag40
ag41
ag158
ag139
ag42
ag43
ag44
ag45
ag46
ag47
ag140
ag49
ag50
ag141
ag105
ag51
ag52
ag53
ag54
ag55
ag56
ag168
ag124
ag57
ag142
ag59
ag60
ag61
ag62
ag63
ag64
ag125
ag126
ag65
ag143
ag66
ag176
ag144
ag67
ag68
ag70
ag71
ag72
ag73
ag74
ag75
ag77
ag145
ag78
ag79
ag80
ag81
ag127
ag83
ag84
ag85
ag86
ag107
ag128
ag88
ag89
ag177
ag108
ag90
ag92
ag93
ag109
ag110
ag178
ag169
ag95
ag129
aS'EDINB009_1'
p237
ag131
ag204
atbsg98
NstRp238
ag2
(g3
(dp239
g5
g6
(g7
(I0
tS'b'
tRp240
(I1
(I80
tg10
I00
(lp241
g163
ag116
ag13
ag14
ag154
ag15
ag16
ag17
ag18
ag117
ag19
ag20
ag22
ag118
ag24
ag26
ag27
ag28
ag29
ag30
ag121
ag31
ag32
ag33
ag34
ag122
ag35
ag36
ag103
ag37
ag38
ag39
ag40
ag158
ag43
ag44
ag45
ag46
ag48
ag140
ag49
ag50
ag105
ag51
ag53
ag54
ag106
ag55
ag56
ag57
ag59
ag60
ag62
ag176
ag67
ag69
ag70
ag71
ag72
ag73
ag75
ag76
ag77
ag79
ag80
ag81
ag82
ag85
ag86
ag107
ag87
ag89
ag108
ag147
ag148
ag109
ag110
ag129
ag96
ag131
atbsg98
NstRp242
ag2
(g3
(dp243
g5
g6
(g7
(I0
tS'b'
tRp244
(I1
(I84
tg10
I00
(lp245
g14
ag154
ag15
ag16
ag17
ag19
ag20
ag21
ag22
ag118
ag137
ag24
ag25
ag26
ag27
ag28
ag29
ag30
ag121
ag31
ag32
ag33
ag226
ag34
ag35
ag138
ag36
ag38
ag39
ag40
ag158
ag139
ag42
ag43
ag44
ag45
aS'HADS SUB2'
p246
ag46
ag48
ag104
ag49
ag50
ag105
ag52
ag53
ag54
ag55
ag56
ag168
ag57
ag62
ag63
ag64
ag125
ag126
ag65
ag66
ag144
ag67
ag68
ag73
ag74
ag75
ag76
ag77
ag78
ag80
ag82
ag83
ag85
ag86
ag107
ag87
ag89
ag108
ag90
ag92
ag93
ag148
ag109
ag110
ag169
ag95
ag129
atbsg98
NstRp247
ag2
(g3
(dp248
g5
g6
(g7
(I0
tS'b'
tRp249
(I1
(I39
tg10
I00
(lp250
g14
ag15
ag17
ag20
ag22
ag27
ag29
ag30
ag32
ag33
ag34
ag35
ag40
ag44
ag45
ag46
ag49
ag50
ag53
ag55
ag56
ag57
ag59
ag64
ag176
ag67
ag71
ag74
ag77
ag80
ag81
ag83
ag85
ag86
ag107
ag88
ag89
ag108
ag110
atbsg98
NstRp251
ag2
(g3
(dp252
g5
g6
(g7
(I0
tS'b'
tRp253
(I1
(I42
tg10
I00
(lp254
g14
ag174
ag17
ag20
ag22
ag118
ag27
ag29
ag30
ag33
ag122
ag35
ag36
ag40
ag43
ag44
ag45
ag46
ag49
ag51
ag53
ag106
ag55
ag56
ag57
ag59
ag64
ag176
ag67
ag71
ag73
ag76
ag77
ag80
ag81
ag82
ag85
ag86
ag107
ag88
ag90
ag147
atbsg98
NstRp255
ag2
(g3
(dp256
g5
g6
(g7
(I0
tS'b'
tRp257
(I1
(I78
tg10
I00
(lp258
g163
ag14
ag154
ag15
ag174
ag16
ag17
ag117
ag19
ag20
ag21
ag22
ag118
ag119
ag24
ag26
ag27
ag28
ag29
ag30
ag32
ag33
ag34
ag122
ag35
ag138
ag36
ag103
ag38
ag40
ag158
ag139
ag43
ag44
ag45
ag46
ag47
ag48
ag104
ag49
ag105
ag52
ag53
ag54
ag106
ag55
ag56
ag57
ag59
ag60
ag64
ag67
ag68
ag70
ag71
ag72
ag73
ag75
ag76
ag77
ag145
ag79
ag80
ag81
ag86
ag107
ag128
ag88
ag89
ag108
ag90
ag91
ag93
ag148
ag94
ag110
ag130
ag131
atbsg98
NstRp259
ag2
(g3
(dp260
g5
g6
(g7
(I0
tS'b'
tRp261
(I1
(I82
tg10
I00
(lp262
g136
ag163
ag14
ag154
ag15
ag174
ag16
ag17
ag18
ag19
ag20
ag22
ag118
ag137
ag24
ag25
ag27
ag28
ag29
ag30
ag32
ag33
ag35
ag138
ag36
ag103
ag38
ag40
ag158
ag139
ag44
ag45
ag46
ag47
ag48
ag140
ag49
ag141
ag53
ag54
ag106
ag55
ag56
ag57
ag58
ag142
ag59
ag64
ag65
ag66
ag67
ag68
ag70
ag71
ag72
ag75
ag76
ag77
ag78
ag79
ag80
ag81
ag82
ag84
ag85
ag86
ag107
ag87
ag88
ag89
ag177
ag108
ag90
ag147
ag93
ag148
ag94
ag110
ag178
ag129
ag96
ag204
atbsg98
NstRp263
ag2
(g3
(dp264
g5
g6
(g7
(I0
tS'b'
tRp265
(I1
(I79
tg10
I00
(lp266
g12
ag15
ag17
ag117
ag20
ag21
ag22
ag118
ag137
ag156
ag24
ag27
ag29
ag30
ag31
ag32
ag33
ag122
ag35
ag36
ag103
ag38
ag39
ag40
ag41
ag158
ag139
ag42
ag43
ag44
ag45
ag46
ag48
ag104
ag140
ag49
ag50
ag105
ag51
ag53
ag54
ag106
ag55
ag56
ag124
ag59
ag60
ag63
ag64
ag66
aS'MFIS SUB3'
p267
ag67
ag70
ag71
ag72
ag75
ag76
ag77
ag78
ag79
ag80
ag81
ag82
ag84
ag85
ag86
ag107
ag87
ag88
ag89
ag108
ag90
ag147
aS'EDINB005_1'
p268
ag148
ag110
ag95
ag130
ag96
atbsg98
NstRp269
ag2
(g3
(dp270
g5
g6
(g7
(I0
tS'b'
tRp271
(I1
(I81
tg10
I00
(lp272
g14
ag154
ag15
ag174
ag16
ag17
ag155
ag117
ag20
ag22
ag118
ag26
ag27
ag28
ag29
ag30
ag32
ag33
ag34
ag122
ag35
ag36
ag38
ag39
ag40
ag158
ag43
ag44
ag45
ag46
ag48
ag104
ag49
ag50
ag105
ag53
ag54
ag106
ag55
ag56
ag168
ag57
ag142
ag59
ag64
ag65
ag66
ag176
ag67
ag69
ag70
ag71
ag72
ag73
ag75
ag76
ag77
ag78
ag79
ag80
ag81
ag82
ag83
ag84
ag86
ag107
ag128
ag88
ag89
ag108
ag90
ag91
ag147
ag93
ag148
ag109
ag110
ag169
ag95
ag130
ag96
atbsg98
NstRp273
ag2
(g3
(dp274
g5
g6
(g7
(I0
tS'b'
tRp275
(I1
(I46
tg10
I00
(lp276
g15
ag17
ag20
ag21
ag22
ag27
ag29
ag30
ag32
ag33
ag35
ag36
ag38
ag40
ag43
ag46
ag104
ag49
ag53
ag54
ag55
ag56
ag57
ag59
ag60
ag64
ag65
ag70
ag71
ag72
ag75
ag76
ag77
ag81
ag82
ag84
ag85
ag86
ag107
ag128
ag87
ag89
ag90
ag109
ag110
ag96
atbsg98
NstRp277
ag2
(g3
(dp278
g5
g6
(g7
(I0
tS'b'
tRp279
(I1
(I84
tg10
I00
(lp280
g163
ag14
ag154
ag15
ag16
ag17
ag155
ag117
ag19
ag20
ag21
ag22
ag137
ag156
ag24
ag26
ag27
ag28
ag29
ag30
ag31
ag32
ag33
ag34
ag35
ag138
ag36
ag103
ag38
ag40
ag158
ag139
ag43
ag44
ag45
ag46
ag104
ag140
ag49
ag50
ag105
ag53
ag54
ag106
ag55
ag56
ag124
ag57
ag59
ag60
ag63
ag64
ag126
ag66
ag144
ag67
ag68
ag71
ag72
ag73
ag74
ag75
ag76
ag77
ag78
ag79
ag80
ag81
ag127
ag83
ag84
ag85
ag86
ag107
ag87
ag88
ag89
ag108
ag90
ag109
ag110
ag96
ag97
ag204
atbsg98
NstRp281
ag2
(g3
(dp282
g5
g6
(g7
(I0
tS'b'
tRp283
(I1
(I45
tg10
I00
(lp284
g174
ag16
ag17
ag20
ag21
ag22
ag118
ag27
ag29
ag30
ag32
ag33
ag122
ag35
ag36
ag40
ag158
ag43
ag44
ag46
ag49
ag141
ag105
ag53
ag106
ag55
ag56
ag57
ag59
ag64
ag65
ag66
ag67
ag70
ag71
ag77
ag80
ag81
ag86
ag107
ag88
ag89
ag108
ag109
ag130
atbsg98
NstRp285
ag2
(g3
(dp286
g5
g6
(g7
(I0
tS'b'
tRp287
(I1
(I82
tg10
I00
(lp288
g136
ag163
ag116
ag13
ag14
ag15
ag16
ag17
ag18
ag19
ag20
ag21
ag22
ag118
ag24
ag26
ag27
ag28
ag29
ag30
ag32
ag33
ag34
ag122
ag35
ag138
ag36
ag103
ag38
ag40
ag41
ag139
ag43
ag44
ag45
ag46
ag48
ag104
ag140
ag49
ag50
ag105
ag53
ag54
ag106
ag55
ag56
ag57
ag58
ag59
ag63
ag64
ag126
ag65
ag66
ag67
ag70
ag71
ag72
ag73
ag74
ag75
ag76
ag77
ag78
ag81
ag82
ag83
ag84
ag85
ag86
ag107
ag87
ag89
ag90
ag147
ag92
ag110
ag178
ag149
ag96
ag131
atbsg98
NstRp289
ag2
(g3
(dp290
g5
g6
(g7
(I0
tS'b'
tRp291
(I1
(I86
tg10
I00
(lp292
g13
ag14
ag154
ag15
ag17
ag155
ag18
ag19
ag20
ag21
ag22
ag118
ag23
ag24
ag26
ag27
ag28
ag29
ag30
ag32
ag33
ag34
ag122
ag35
ag36
ag38
ag39
ag40
ag139
ag42
ag43
ag44
ag45
ag46
ag48
ag104
ag140
ag49
ag50
ag141
ag105
ag52
ag53
ag54
ag55
ag56
ag124
ag142
ag59
ag60
ag64
ag126
ag66
ag176
ag67
ag68
ag70
ag71
ag72
ag73
ag75
ag76
ag77
ag78
ag79
ag80
ag81
ag127
ag83
ag85
ag86
ag107
ag87
ag88
ag89
ag108
ag90
ag147
ag92
ag93
ag94
ag110
ag169
ag129
ag130
ag131
atbsg98
NstRp293
ag2
(g3
(dp294
g5
g6
(g7
(I0
tS'b'
tRp295
(I1
(I95
tg10
I00
(lp296
g136
ag116
ag14
ag154
ag15
ag16
ag17
ag18
ag19
ag20
ag21
ag22
ag118
ag137
ag23
ag24
ag26
ag27
ag28
ag29
ag30
ag31
ag32
ag33
ag34
ag122
ag35
ag138
ag36
ag103
ag37
ag38
ag39
ag40
ag41
ag158
ag42
ag43
ag44
ag45
ag46
ag47
ag48
ag104
ag49
ag50
ag141
ag105
ag52
ag53
ag54
ag106
ag55
ag142
ag59
ag60
ag62
ag64
ag126
ag66
ag144
ag67
ag70
ag71
ag72
ag73
ag74
ag75
ag76
ag77
ag78
ag79
ag80
ag81
ag82
ag127
ag84
ag85
ag86
ag107
ag87
ag88
ag89
ag177
ag108
ag90
ag92
ag93
ag94
ag110
ag178
ag95
ag129
ag96
ag179
atbsg98
NstRp297
ag2
(g3
(dp298
g5
g6
(g7
(I0
tS'b'
tRp299
(I1
(I85
tg10
I00
(lp300
g13
ag14
ag15
ag17
ag155
ag18
ag117
ag19
ag20
ag21
ag22
ag118
ag156
ag23
ag24
ag25
ag120
ag26
ag27
ag28
ag29
ag30
ag31
ag32
ag33
ag226
ag122
ag35
ag138
ag36
ag37
ag38
ag40
ag41
ag43
ag44
ag45
ag46
ag48
ag104
ag49
ag50
ag105
ag53
ag54
ag106
ag55
ag56
ag168
ag124
ag57
ag142
ag59
ag60
ag64
ag126
ag66
ag67
ag69
ag70
ag71
ag73
ag74
ag75
ag76
ag78
ag80
ag81
ag127
ag83
ag85
ag86
ag107
ag128
ag88
ag89
ag108
ag90
ag91
ag92
ag109
ag110
ag169
ag96
ag131
atbsg98
NstRp301
ag2
(g3
(dp302
g5
g6
(g7
(I0
tS'b'
tRp303
(I1
(I79
tg10
I00
(lp304
g163
ag13
ag14
ag154
ag15
ag16
ag17
ag18
ag19
ag20
ag21
ag22
ag118
ag156
ag23
ag24
ag26
ag27
ag28
ag29
ag30
ag31
ag32
ag33
ag122
ag35
ag138
ag36
ag103
ag37
ag38
ag39
ag40
ag43
ag44
ag45
ag46
ag47
ag48
ag49
ag105
ag51
ag53
ag54
ag55
ag56
ag57
ag58
ag59
ag63
ag64
ag125
ag126
ag66
ag67
ag68
ag70
ag71
ag72
ag73
ag75
ag76
ag77
ag78
ag79
ag81
ag83
ag85
ag86
ag107
ag87
ag88
ag89
ag90
ag93
ag148
ag109
ag110
ag96
atbsg98
NstRp305
ag2
(g3
(dp306
g5
g6
(g7
(I0
tS'b'
tRp307
(I1
(I40
tg10
I00
(lp308
g14
ag17
ag20
ag22
ag27
ag29
ag30
ag33
ag122
ag35
ag36
ag38
ag40
ag43
ag46
ag140
ag49
ag50
ag53
ag54
ag55
ag56
ag57
ag60
ag64
ag65
ag66
ag71
ag72
ag76
ag78
ag80
ag81
ag85
ag86
ag88
ag89
ag108
ag110
ag129
atbsg98
NstRp309
ag2
(g3
(dp310
g5
g6
(g7
(I0
tS'b'
tRp311
(I1
(I51
tg10
I00
(lp312
g14
ag15
ag174
ag17
ag20
ag22
ag118
ag24
ag27
ag29
ag30
ag32
ag33
ag35
ag36
ag38
ag40
ag43
ag45
ag46
ag49
ag50
ag141
ag105
ag52
ag53
ag54
ag106
ag55
ag56
ag168
ag57
ag59
ag64
ag65
ag66
ag71
ag76
ag77
ag145
ag82
ag83
ag84
ag85
ag86
ag88
ag89
ag90
ag110
ag129
ag131
atbsg98
NstRp313
ag2
(g3
(dp314
g5
g6
(g7
(I0
tS'b'
tRp315
(I1
(I48
tg10
I00
(lp316
g14
ag17
ag20
ag118
ag27
ag29
ag30
ag32
ag33
ag35
ag36
ag38
ag40
ag43
ag44
ag46
ag48
ag104
ag49
ag105
ag51
ag52
ag53
ag54
ag106
ag55
ag56
ag57
ag59
ag64
ag65
ag66
ag67
ag73
ag74
ag76
ag77
ag79
ag80
ag82
ag86
ag107
ag88
ag89
ag108
ag110
ag129
ag131
atbsg98
NstRp317
ag2
(g3
(dp318
g5
g6
(g7
(I0
tS'b'
tRp319
(I1
(I122
tg10
I00
(lp320
g115
ag116
ag12
ag13
ag14
ag154
ag15
ag174
ag16
ag17
ag235
ag18
ag19
ag20
ag21
ag22
ag118
ag137
ag119
ag175
ag236
ag156
ag23
ag24
ag25
ag120
ag26
ag27
ag157
ag28
ag29
ag30
aS'FIM (013'
p321
ag31
ag32
ag33
ag226
ag34
ag122
ag35
ag138
ag36
ag103
ag37
ag38
ag40
ag158
ag139
ag42
ag43
ag44
ag45
ag46
ag47
ag48
ag104
ag140
ag49
ag50
ag141
ag105
ag51
ag53
ag54
ag106
ag55
ag56
ag168
ag124
ag57
ag58
ag142
ag59
ag60
ag61
ag62
ag63
ag64
ag125
ag65
ag66
ag144
ag67
ag70
ag71
ag72
ag73
ag74
ag75
ag76
ag77
ag145
ag78
ag79
ag80
ag81
ag82
ag127
ag83
ag84
ag85
ag86
ag107
ag87
ag88
ag89
ag177
ag108
ag90
ag91
ag147
ag93
ag109
ag110
ag178
ag149
ag95
ag129
ag96
ag237
ag131
ag204
atbsg98
NstRp322
ag2
(g3
(dp323
g5
g6
(g7
(I0
tS'b'
tRp324
(I1
(I49
tg10
I00
(lp325
g14
ag15
ag17
ag20
ag22
ag118
ag27
ag29
ag30
ag33
ag35
ag36
ag38
ag40
ag43
ag44
ag45
ag46
ag47
ag49
ag53
ag54
ag106
ag55
ag56
ag57
ag59
ag60
ag64
ag65
ag66
ag144
ag71
ag72
ag76
ag77
ag80
ag81
ag82
ag85
ag86
ag107
ag128
ag88
ag89
ag108
ag90
ag109
ag110
atbsg98
NstRp326
ag2
(g3
(dp327
g5
g6
(g7
(I0
tS'b'
tRp328
(I1
(I51
tg10
I00
(lp329
g17
ag20
ag22
ag118
ag27
ag28
ag29
ag30
ag33
ag35
ag36
ag38
ag40
ag43
ag44
ag46
ag49
ag50
ag105
ag53
ag54
ag106
ag55
ag56
ag57
ag59
ag60
ag64
ag65
ag66
ag70
ag71
ag77
ag78
ag80
ag81
ag82
ag83
ag85
ag86
ag107
ag128
ag88
ag89
ag90
ag91
ag93
ag109
ag110
ag129
ag131
atbsg98
NstRp330
ag2
(g3
(dp331
g5
g6
(g7
(I0
tS'b'
tRp332
(I1
(I44
tg10
I00
(lp333
g15
ag174
ag17
ag20
ag21
ag27
ag29
ag30
ag32
ag33
ag35
ag36
ag40
ag44
ag46
ag104
ag49
ag141
ag105
ag53
ag54
ag106
ag55
ag56
ag57
ag60
ag64
ag66
ag67
ag71
ag76
ag77
ag80
ag81
ag82
ag84
ag86
ag107
ag88
ag89
ag108
ag109
ag110
ag96
atbsg98
NstRp334
ag2
(g3
(dp335
g5
g6
(g7
(I0
tS'b'
tRp336
(I1
(I83
tg10
I00
(lp337
g116
ag13
ag14
ag154
ag15
ag174
ag16
ag17
ag18
ag19
ag20
ag21
ag22
ag118
ag23
ag24
ag25
ag26
ag27
ag157
ag28
ag29
ag30
ag32
ag33
ag34
ag122
ag35
ag138
ag36
ag103
ag38
ag39
ag40
ag41
ag43
ag44
ag45
ag46
ag48
ag104
ag140
ag49
ag50
ag52
ag53
ag54
ag55
ag56
ag57
ag142
ag59
ag64
ag126
ag65
ag66
ag67
ag71
ag73
ag75
ag76
ag77
ag79
ag81
ag127
ag83
ag85
ag86
ag107
ag128
ag88
ag89
ag177
ag90
ag147
ag109
ag110
ag169
ag129
ag130
ag96
ag179
ag131
atbsg98
NstRp338
ag2
(g3
(dp339
g5
g6
(g7
(I0
tS'b'
tRp340
(I1
(I92
tg10
I00
(lp341
g116
ag13
ag14
ag154
ag15
ag174
ag16
ag17
ag155
ag117
ag19
ag20
ag21
ag22
ag118
ag137
ag156
ag24
ag26
ag27
ag28
ag29
ag30
ag32
ag33
ag34
ag35
ag138
ag36
ag103
ag37
ag38
ag39
ag40
ag41
ag158
ag139
ag43
ag44
ag45
ag46
ag48
ag140
ag49
ag50
ag141
ag105
ag52
ag53
ag54
ag106
ag55
ag56
ag57
ag58
ag60
ag61
ag62
ag64
ag126
ag65
ag143
ag176
ag267
ag67
ag69
ag71
ag72
ag73
ag75
ag76
ag77
ag78
ag79
ag80
ag81
ag82
ag127
ag84
ag86
ag107
ag128
ag88
ag89
ag146
ag90
ag91
ag147
ag93
ag110
ag95
ag97
atbsg98
NstRp342
ag2
(g3
(dp343
g5
g6
(g7
(I0
tS'b'
tRp344
(I1
(I46
tg10
I00
(lp345
g14
ag17
ag20
ag118
ag27
ag28
ag29
ag30
ag32
ag33
ag122
ag35
ag36
ag40
ag139
ag43
ag44
ag46
ag47
ag104
ag49
ag50
ag53
ag54
ag106
ag55
ag56
ag57
ag59
ag64
ag65
ag66
ag176
ag71
ag73
ag77
ag82
ag84
ag85
ag86
ag107
ag88
ag89
ag93
ag109
ag129
atbsg98
NstRp346
ag2
(g3
(dp347
g5
g6
(g7
(I0
tS'b'
tRp348
(I1
(I45
tg10
I00
(lp349
g14
ag15
ag17
ag20
ag118
ag24
ag27
ag29
ag30
ag32
ag33
ag35
ag36
ag38
ag40
ag43
ag44
ag46
ag104
ag49
ag50
ag105
ag53
ag106
ag55
ag56
ag57
ag59
ag60
ag64
ag144
ag69
ag71
ag77
ag82
ag84
ag85
ag86
ag107
ag88
ag89
ag108
ag90
ag109
ag129
atbsg98
NstRp350
ag2
(g3
(dp351
g5
g6
(g7
(I0
tS'b'
tRp352
(I1
(I86
tg10
I00
(lp353
g115
ag12
ag13
ag14
ag154
ag15
ag17
ag18
ag117
ag20
ag22
ag118
ag137
ag119
ag26
ag27
ag28
ag29
ag30
ag121
ag31
ag32
ag33
ag34
ag122
ag35
ag138
ag36
ag38
ag40
ag41
ag43
ag44
ag45
ag46
ag47
ag48
ag49
ag50
ag105
ag51
ag52
ag53
ag54
ag106
ag55
ag56
ag124
ag57
ag142
ag59
ag62
ag64
ag126
ag65
ag66
ag67
ag69
ag71
ag72
ag73
ag75
ag76
ag77
ag79
ag80
ag81
ag82
ag127
ag83
ag84
ag85
ag86
ag107
ag88
ag89
ag146
ag90
ag93
ag109
ag110
ag178
ag169
ag96
ag179
ag131
atbsg98
NstRp354
ag2
(g3
(dp355
g5
g6
(g7
(I0
tS'b'
tRp356
(I1
(I40
tg10
I00
(lp357
g14
ag17
ag20
ag118
ag26
ag27
ag29
ag30
ag32
ag33
ag35
ag36
ag38
ag40
ag41
ag43
ag44
ag46
ag47
ag49
ag105
ag53
ag106
ag55
ag56
ag59
ag60
ag64
ag72
ag73
ag79
ag81
ag82
ag83
ag85
ag86
ag107
ag88
ag129
ag96
atbsg98
NstRp358
ag2
(g3
(dp359
g5
g6
(g7
(I0
tS'b'
tRp360
(I1
(I81
tg10
I00
(lp361
g136
ag163
ag12
ag14
ag15
ag174
ag16
ag17
ag18
ag19
ag20
ag21
ag22
ag118
ag156
ag23
ag24
ag25
ag26
ag27
ag28
ag29
ag30
ag31
ag32
ag33
ag34
ag122
ag35
ag138
ag36
ag37
ag38
ag39
ag40
ag158
ag43
ag44
ag45
ag46
ag48
ag104
ag140
ag49
ag50
ag52
ag53
ag54
ag55
ag56
ag57
ag58
ag60
ag62
ag64
ag126
ag66
ag67
ag70
ag71
ag73
ag74
ag75
ag76
ag77
ag79
ag80
ag82
ag85
ag86
ag107
ag87
ag88
ag89
ag90
ag91
ag268
ag109
ag110
ag129
ag131
atbsg98
NstRp362
ag2
(g3
(dp363
g5
g6
(g7
(I0
tS'b'
tRp364
(I1
(I49
tg10
I00
(lp365
g14
ag15
ag17
ag20
ag118
ag27
ag29
ag30
ag32
ag33
ag35
ag36
ag38
ag40
ag43
ag44
ag46
ag48
ag104
ag49
ag50
ag105
ag52
ag53
ag54
ag106
ag55
ag56
ag57
ag59
ag64
ag65
ag66
ag72
ag75
ag76
ag77
ag80
ag81
ag82
ag85
ag86
ag107
ag88
ag89
ag90
ag91
ag94
ag131
atbsg98
NstRp366
ag2
(g3
(dp367
g5
g6
(g7
(I0
tS'b'
tRp368
(I1
(I44
tg10
I00
(lp369
g13
ag14
ag17
ag20
ag22
ag27
ag29
ag30
ag32
ag33
ag122
ag35
ag36
ag40
ag43
ag44
ag46
ag140
ag49
ag51
ag53
ag54
ag55
ag56
ag57
ag59
ag60
ag64
ag176
ag71
ag72
ag76
ag77
ag78
ag80
ag81
ag82
ag86
ag107
ag87
ag89
ag147
ag109
ag131
atbsg98
NstRp370
ag2
(g3
(dp371
g5
g6
(g7
(I0
tS'b'
tRp372
(I1
(I51
tg10
I00
(lp373
g163
ag14
ag17
ag20
ag22
ag24
ag27
ag29
ag30
ag32
ag33
ag122
ag35
ag36
ag38
ag39
ag40
ag158
ag43
ag44
ag45
ag46
ag48
ag49
ag50
ag141
ag105
ag52
ag53
ag54
ag55
ag56
ag59
ag64
ag65
ag71
ag72
ag77
ag80
ag81
ag84
ag85
ag86
ag88
ag89
ag90
ag109
ag110
ag95
ag129
ag131
atbsg98
NstRp374
ag2
(g3
(dp375
g5
g6
(g7
(I0
tS'b'
tRp376
(I1
(I81
tg10
I00
(lp377
g163
ag116
ag12
ag14
ag15
ag17
ag155
ag19
ag20
ag22
ag118
ag156
ag24
ag26
ag27
ag28
ag29
ag30
ag121
ag32
ag34
ag122
ag35
ag138
ag36
ag103
ag37
ag38
ag40
ag41
ag158
ag43
ag44
ag45
ag46
ag47
ag48
ag104
ag140
ag49
ag141
ag51
ag53
ag54
ag123
ag106
ag55
ag56
ag59
ag60
ag63
ag64
ag66
ag67
ag68
ag70
ag71
ag72
ag73
ag75
ag76
ag77
ag79
ag80
ag82
ag84
ag85
ag86
ag107
ag128
ag88
ag89
ag177
ag90
ag147
ag268
ag109
ag110
ag178
ag169
ag96
atbsg98
NstRp378
ag2
(g3
(dp379
g5
g6
(g7
(I0
tS'b'
tRp380
(I1
(I80
tg10
I00
(lp381
g163
ag115
ag14
ag154
ag15
ag17
ag20
ag21
ag22
ag118
ag119
ag24
ag26
ag27
ag28
ag29
ag30
ag121
ag31
ag32
ag33
ag34
ag122
ag35
ag138
ag36
ag103
ag37
ag38
ag39
ag40
ag43
ag44
ag45
ag46
ag47
ag48
ag49
ag50
ag105
ag51
ag53
ag106
ag55
ag56
ag142
ag59
ag60
ag64
ag67
ag69
ag70
ag71
ag72
ag73
ag75
ag76
ag77
ag145
ag79
ag80
ag81
ag82
ag84
ag85
ag86
ag107
ag87
ag88
ag89
ag108
ag90
ag93
ag268
ag109
ag110
ag169
ag129
ag130
ag96
atbsg98
NstRp382
ag2
(g3
(dp383
g5
g6
(g7
(I0
tS'b'
tRp384
(I1
(I51
tg10
I00
(lp385
g163
ag14
ag17
ag20
ag21
ag24
ag27
ag29
ag30
ag121
ag32
ag33
ag35
ag36
ag40
ag41
ag158
ag43
ag44
ag46
ag104
ag49
ag105
ag53
ag54
ag106
ag55
ag56
ag57
ag59
ag64
ag67
ag71
ag72
ag74
ag77
ag80
ag81
ag83
ag84
ag86
ag107
ag87
ag88
ag89
ag91
ag93
ag148
ag110
ag95
ag129
atbsg98
NstRp386
ag2
(g3
(dp387
g5
g6
(g7
(I0
tS'b'
tRp388
(I1
(I44
tg10
I00
(lp389
g136
ag13
ag16
ag20
ag22
ag27
ag29
ag30
ag33
ag122
ag35
ag36
ag38
ag40
ag158
ag43
ag46
ag47
ag104
ag49
ag53
ag55
ag56
ag57
ag59
ag60
ag64
ag66
ag71
ag72
ag75
ag76
ag77
ag80
ag82
ag84
ag85
ag86
ag107
ag87
ag88
ag89
ag90
ag95
atbsg98
NstRp390
ag2
(g3
(dp391
g5
g6
(g7
(I0
tS'b'
tRp392
(I1
(I41
tg10
I00
(lp393
g14
ag17
ag20
ag22
ag27
ag29
ag30
ag33
ag35
ag36
ag37
ag38
ag40
ag43
ag44
ag45
ag46
ag49
ag53
ag54
ag106
ag55
ag56
ag57
ag60
ag64
ag71
ag72
ag77
ag80
ag82
ag84
ag85
ag86
ag107
ag88
ag108
ag90
ag147
ag109
ag129
atbsg98
NstRp394
ag2
(g3
(dp395
g5
g6
(g7
(I0
tS'b'
tRp396
(I1
(I89
tg10
I00
(lp397
g163
ag13
ag14
ag154
ag15
ag16
ag17
ag18
ag19
ag20
ag21
ag22
ag118
ag119
ag23
ag24
ag25
ag26
ag27
ag28
ag29
ag30
ag32
ag33
ag122
ag35
ag138
ag36
ag103
ag37
ag39
ag40
ag41
ag158
ag139
ag43
ag44
ag45
ag46
ag48
ag49
ag50
ag141
ag105
ag51
ag53
ag54
ag123
ag106
ag55
ag56
ag124
ag57
ag58
ag142
ag59
ag60
ag62
ag64
ag66
ag67
ag68
ag71
ag72
ag73
ag75
ag76
ag77
ag145
ag79
ag80
ag82
ag127
ag84
ag85
ag86
ag107
ag128
ag88
ag89
ag177
ag108
ag90
ag91
ag109
ag110
ag169
ag95
ag131
atbsg98
NstRp398
ag2
(g3
(dp399
g5
g6
(g7
(I0
tS'b'
tRp400
(I1
(I45
tg10
I00
(lp401
g136
ag14
ag17
ag20
ag21
ag22
ag27
ag29
ag30
ag32
ag33
ag35
ag36
ag40
ag43
ag44
ag45
ag46
ag48
ag140
ag49
ag52
ag53
ag54
ag106
ag55
ag56
ag57
ag64
ag66
ag69
ag71
ag72
ag75
ag81
ag82
ag85
ag86
ag107
ag87
ag89
ag108
ag90
ag92
ag110
atbsg98
NstRp402
ag2
(g3
(dp403
g5
g6
(g7
(I0
tS'b'
tRp404
(I1
(I81
tg10
I00
(lp405
g163
ag154
ag15
ag17
ag155
ag20
ag22
ag118
ag119
ag23
ag24
ag25
ag26
ag27
ag28
ag29
ag30
ag121
ag32
ag33
ag34
ag35
ag138
ag36
ag103
ag37
ag39
ag40
ag41
ag158
ag139
ag43
ag44
ag45
ag46
ag49
ag50
ag141
ag105
ag53
ag54
ag106
ag55
ag56
ag57
ag58
ag142
ag59
ag60
ag63
ag64
ag125
ag126
ag66
ag69
ag70
ag71
ag73
ag75
ag76
ag77
ag145
ag78
ag80
ag81
ag82
ag83
ag86
ag107
ag87
ag88
ag89
ag108
ag90
ag91
ag147
ag109
ag110
ag169
ag95
ag237
atbsg98
NstRp406
ag2
(g3
(dp407
g5
g6
(g7
(I0
tS'b'
tRp408
(I1
(I93
tg10
I00
(lp409
g136
ag163
ag13
ag14
ag15
ag16
ag17
ag155
ag18
ag117
ag19
ag20
ag21
ag22
ag118
ag137
ag119
ag156
ag24
ag25
ag26
ag27
ag28
ag29
ag30
ag31
ag32
ag33
ag34
ag35
ag138
ag36
ag103
ag38
ag40
ag158
ag139
ag42
ag43
ag44
ag45
ag46
ag48
ag49
ag50
ag141
ag105
ag52
ag53
ag54
ag106
ag55
ag56
ag124
ag142
ag59
ag60
ag61
ag64
ag125
ag126
ag66
ag67
ag68
ag69
ag70
ag71
ag73
ag75
ag76
ag77
ag78
ag79
ag80
ag81
ag82
ag127
ag85
ag86
ag107
ag87
ag89
ag108
ag90
ag91
ag147
ag93
ag109
ag110
ag178
ag169
ag95
ag96
atbsg98
NstRp410
ag2
(g3
(dp411
g5
g6
(g7
(I0
tS'b'
tRp412
(I1
(I86
tg10
I00
(lp413
g136
ag116
ag14
ag154
ag15
ag174
ag16
ag17
ag117
ag19
ag20
ag22
ag118
ag119
ag156
ag23
ag25
ag26
ag27
ag28
ag29
ag30
ag31
ag33
ag34
ag122
ag35
ag138
ag36
ag38
ag39
ag40
ag158
ag139
ag42
ag43
ag44
ag45
ag46
ag48
ag104
ag140
ag49
ag50
ag105
ag53
ag54
ag106
ag55
ag56
ag124
ag57
ag142
ag64
ag65
ag66
ag144
ag70
ag71
ag72
ag73
ag75
ag76
ag77
ag78
ag80
ag81
ag82
ag127
ag83
ag84
ag85
ag86
ag107
ag87
ag88
ag89
ag177
ag146
ag92
ag93
ag109
ag110
ag95
ag129
ag96
atbsg98
NstRp414
ag2
(g3
(dp415
g5
g6
(g7
(I0
tS'b'
tRp416
(I1
(I81
tg10
I00
(lp417
g136
ag163
ag13
ag14
ag15
ag16
ag17
ag19
ag20
ag21
ag22
ag118
ag137
ag23
ag24
ag25
ag26
ag27
ag28
ag29
ag30
ag32
ag33
ag34
ag122
ag35
ag36
ag39
ag40
ag158
ag139
ag43
ag44
ag45
ag46
ag47
ag104
ag49
ag53
ag54
ag106
ag55
ag56
ag124
ag57
ag59
ag60
ag64
ag125
ag66
ag176
ag144
ag67
ag69
ag71
ag72
ag73
ag75
ag76
ag77
ag145
ag78
ag81
ag82
ag127
ag83
ag85
ag86
ag107
ag87
ag89
ag90
ag147
ag92
ag93
ag109
ag110
ag129
ag237
ag131
ag97
atbsg98
NstRp418
ag2
(g3
(dp419
g5
g6
(g7
(I0
tS'b'
tRp420
(I1
(I117
tg10
I00
(lp421
g115
ag116
ag13
ag14
ag154
ag15
ag174
ag16
ag17
ag155
ag235
ag18
ag117
ag19
ag20
ag21
ag22
ag118
ag137
ag175
ag236
ag156
ag23
ag24
ag25
ag120
ag26
ag27
ag157
ag28
ag29
ag30
ag121
ag31
ag32
ag33
ag34
ag122
ag35
ag138
ag36
ag103
ag37
ag38
ag39
ag40
ag41
ag43
ag44
ag45
ag246
ag46
ag48
ag104
ag140
ag49
ag50
ag141
ag105
ag51
ag52
ag53
ag54
ag106
ag55
ag56
ag168
ag124
ag57
ag58
ag142
ag59
ag60
ag61
ag62
ag63
ag64
ag125
ag65
ag66
ag144
ag67
ag68
ag70
ag71
ag72
ag73
ag74
ag75
ag76
ag77
ag145
ag79
ag80
ag81
ag127
ag83
ag84
ag85
ag86
ag107
ag87
ag88
ag89
ag177
ag108
ag146
ag91
ag147
ag93
ag148
ag109
ag110
ag178
ag95
ag96
ag97
atbsg98
NstRp422
ag2
(g3
(dp423
g5
g6
(g7
(I0
tS'b'
tRp424
(I1
(I44
tg10
I00
(lp425
g116
ag14
ag15
ag17
ag20
ag22
ag27
ag29
ag30
ag32
ag33
ag34
ag35
ag36
ag38
ag40
ag158
ag139
ag43
ag44
ag46
ag104
ag49
ag53
ag54
ag106
ag55
ag56
ag57
ag59
ag64
ag67
ag71
ag72
ag77
ag81
ag86
ag107
ag87
ag88
ag89
ag108
ag91
ag131
atbsg98
NstRp426
ag2
(g3
(dp427
g5
g6
(g7
(I0
tS'b'
tRp428
(I1
(I88
tg10
I00
(lp429
g136
ag115
ag116
ag14
ag154
ag15
ag16
ag17
ag19
ag20
ag21
ag22
ag118
ag137
ag23
ag26
ag27
ag28
ag29
ag30
ag31
ag32
ag33
ag34
ag122
ag35
ag138
ag36
ag103
ag38
ag39
ag40
ag41
ag43
ag44
ag45
ag46
ag47
ag48
ag104
ag49
ag50
ag105
ag52
ag53
ag54
ag106
ag55
ag56
ag57
ag59
ag60
ag62
ag63
ag64
ag143
ag66
ag144
ag67
ag70
ag71
ag72
ag74
ag75
ag76
ag77
ag78
ag79
ag80
ag82
ag127
ag84
ag85
ag86
ag107
ag87
ag88
ag89
ag108
ag90
ag91
ag93
ag110
ag169
ag95
ag129
ag96
ag97
atbsg98
NstRp430
ag2
(g3
(dp431
g5
g6
(g7
(I0
tS'b'
tRp432
(I1
(I48
tg10
I00
(lp433
g163
ag14
ag15
ag17
ag20
ag24
ag27
ag29
ag30
ag32
ag33
ag35
ag36
ag38
ag40
ag43
ag44
ag45
ag46
ag47
ag49
ag50
ag105
ag53
ag106
ag55
ag56
ag59
ag60
ag64
ag66
ag176
ag71
ag75
ag76
ag77
ag80
ag82
ag85
ag86
ag128
ag87
ag89
ag108
ag90
ag94
ag110
ag131
atbsg98
NstRp434
ag2
(g3
(dp435
g5
g6
(g7
(I0
tS'b'
tRp436
(I1
(I84
tg10
I00
(lp437
g13
ag14
ag15
ag16
ag17
ag20
ag22
ag118
ag137
ag156
ag23
ag24
ag26
ag27
ag28
ag29
ag30
ag121
ag31
ag32
ag33
ag34
ag122
ag35
ag138
ag36
ag103
ag37
ag38
ag39
ag40
ag158
ag139
ag42
ag43
ag44
ag45
ag46
ag48
ag104
ag140
ag49
ag50
ag51
ag52
ag53
ag54
ag106
ag55
ag56
ag57
ag59
ag62
ag64
ag125
ag66
ag67
ag70
ag71
ag72
ag73
ag75
ag76
ag77
ag79
ag80
ag81
ag83
ag85
ag86
ag107
ag87
ag88
ag89
ag177
ag108
ag90
ag93
ag109
ag110
ag178
ag129
ag131
ag97
atbsg98
NstRp438
ag2
(g3
(dp439
g5
g6
(g7
(I0
tS'b'
tRp440
(I1
(I50
tg10
I00
(lp441
g13
ag15
ag17
ag20
ag22
ag118
ag27
ag28
ag29
ag30
ag33
ag35
ag36
ag38
ag40
ag158
ag43
ag44
ag46
ag104
ag49
ag50
ag141
ag105
ag53
ag54
ag55
ag56
ag57
ag59
ag64
ag66
ag68
ag71
ag72
ag75
ag76
ag77
ag79
ag80
ag81
ag84
ag85
ag86
ag107
ag128
ag88
ag89
ag108
ag178
atbsg98
NstRp442
ag2
(g3
(dp443
g5
g6
(g7
(I0
tS'b'
tRp444
(I1
(I78
tg10
I00
(lp445
g14
ag154
ag15
ag16
ag17
ag155
ag19
ag20
ag22
ag118
ag24
ag25
ag26
ag27
ag28
ag29
ag30
ag31
ag32
ag33
ag34
ag35
ag36
ag37
ag38
ag40
ag158
ag42
ag43
ag44
ag45
ag46
ag104
ag140
ag49
ag50
ag141
ag105
ag53
ag54
ag123
ag106
ag55
ag56
ag57
ag142
ag60
ag63
ag64
ag126
ag66
ag144
ag67
ag71
ag72
ag73
ag74
ag75
ag76
ag77
ag145
ag78
ag79
ag80
ag81
ag84
ag85
ag86
ag107
ag128
ag88
ag89
ag108
ag90
ag93
ag109
ag95
ag129
atbsg98
NstRp446
ag2
(g3
(dp447
g5
g6
(g7
(I0
tS'b'
tRp448
(I1
(I46
tg10
I00
(lp449
g14
ag17
ag20
ag21
ag118
ag24
ag27
ag28
ag29
ag30
ag32
ag33
ag35
ag36
ag38
ag40
ag158
ag43
ag44
ag46
ag48
ag49
ag141
ag53
ag54
ag106
ag55
ag56
ag57
ag59
ag64
ag65
ag72
ag76
ag77
ag81
ag82
ag85
ag86
ag87
ag88
ag89
ag90
ag109
ag110
ag95
atbsg98
NstRp450
ag2
(g3
(dp451
g5
g6
(g7
(I0
tS'b'
tRp452
(I1
(I121
tg10
I00
(lp453
g163
ag116
ag12
ag13
ag14
ag154
ag15
ag16
ag17
ag235
ag18
ag117
ag19
ag20
ag21
ag22
ag118
ag119
ag23
ag24
ag25
ag120
ag26
ag27
ag157
ag28
ag29
ag30
ag121
ag31
ag32
ag33
ag226
ag34
ag122
ag35
ag138
ag36
ag103
ag37
ag38
ag39
ag40
ag41
ag139
ag42
ag43
ag44
ag45
ag46
ag47
ag48
ag104
ag140
ag49
ag50
ag105
ag51
ag52
ag53
ag54
ag106
ag55
ag56
ag168
ag124
ag57
ag58
ag142
ag59
ag60
ag61
ag62
ag63
ag64
ag125
ag126
ag65
ag143
ag66
ag176
ag144
ag67
ag68
ag69
ag70
ag71
ag72
ag73
ag74
ag75
ag76
ag77
ag145
ag78
ag79
ag80
ag81
ag82
ag127
ag84
ag85
ag86
ag107
ag128
ag88
ag89
ag108
ag90
ag91
ag92
ag93
ag268
ag94
ag110
ag178
ag169
ag130
ag96
ag131
ag97
atbsg98
NstRp454
ag2
(g3
(dp455
g5
g6
(g7
(I0
tS'b'
tRp456
(I1
(I83
tg10
I00
(lp457
g136
ag116
ag13
ag14
ag15
ag16
ag17
ag18
ag20
ag21
ag22
ag118
ag137
ag156
ag23
ag25
ag26
ag27
ag28
ag29
ag30
ag31
ag32
ag33
ag34
ag122
ag35
ag138
ag36
ag38
ag40
ag158
ag42
ag43
ag44
ag45
ag46
ag104
ag140
ag49
ag50
ag52
ag53
ag54
ag106
ag55
ag56
ag57
ag142
ag59
ag61
ag62
ag63
ag64
ag67
ag70
ag71
ag73
ag74
ag75
ag76
ag77
ag78
ag79
ag80
ag81
ag83
ag85
ag86
ag107
ag87
ag88
ag89
ag108
ag90
ag91
ag147
ag110
ag169
ag149
ag129
ag131
ag97
atbsg98
NstRp458
ag2
(g3
(dp459
g5
g6
(g7
(I0
tS'b'
tRp460
(I1
(I84
tg10
I00
(lp461
g163
ag116
ag13
ag14
ag15
ag16
ag17
ag18
ag117
ag19
ag20
ag22
ag118
ag24
ag25
ag26
ag27
ag28
ag29
ag30
ag31
ag32
ag33
ag34
ag122
ag35
ag36
ag103
ag38
ag39
ag40
ag41
ag43
ag44
ag45
ag46
ag48
ag49
ag50
ag141
ag51
ag52
ag53
ag54
ag106
ag55
ag56
ag168
ag124
ag57
ag142
ag59
ag60
ag62
ag64
ag125
ag126
ag65
ag66
ag67
ag70
ag71
ag73
ag75
ag76
ag77
ag78
ag80
ag81
ag127
ag83
ag84
ag85
ag86
ag107
ag87
ag89
ag108
ag90
ag147
ag92
ag110
ag96
ag131
atbsg98
NstRp462
ag2
(g3
(dp463
g5
g6
(g7
(I0
tS'b'
tRp464
(I1
(I84
tg10
I00
(lp465
g136
ag163
ag12
ag14
ag154
ag15
ag16
ag17
ag19
ag20
ag21
ag22
ag118
ag23
ag24
ag25
ag26
ag27
ag28
ag29
ag30
ag32
ag33
ag35
ag138
ag36
ag103
ag37
ag38
ag39
ag40
ag41
ag158
ag42
ag43
ag44
ag45
ag46
ag47
ag48
ag104
ag49
ag50
ag105
ag53
ag54
ag106
ag55
ag56
ag168
ag57
ag59
ag60
ag62
ag64
ag66
ag144
ag67
ag71
ag72
ag74
ag75
ag76
ag77
ag78
ag79
ag80
ag81
ag82
ag127
ag83
ag85
ag86
ag107
ag87
ag88
ag89
ag146
ag90
ag92
ag93
ag109
ag110
ag131
atbsg98
NstRp466
ag2
(g3
(dp467
g5
g6
(g7
(I0
tS'b'
tRp468
(I1
(I49
tg10
I00
(lp469
g14
ag15
ag17
ag20
ag22
ag27
ag28
ag29
ag30
ag32
ag33
ag122
ag35
ag36
ag38
ag40
ag41
ag43
ag44
ag45
ag46
ag47
ag104
ag49
ag50
ag53
ag54
ag106
ag55
ag56
ag57
ag59
ag64
ag65
ag66
ag70
ag71
ag72
ag73
ag77
ag81
ag85
ag86
ag107
ag87
ag89
ag109
ag110
ag95
atbsg98
NstRp470
ag2
(g3
(dp471
g5
g6
(g7
(I0
tS'b'
tRp472
(I1
(I47
tg10
I00
(lp473
g12
ag13
ag14
ag17
ag20
ag118
ag27
ag29
ag30
ag32
ag33
ag35
ag36
ag38
ag40
ag43
ag44
ag45
ag46
ag47
ag48
ag104
ag49
ag50
ag141
ag53
ag106
ag55
ag56
ag57
ag59
ag64
ag144
ag67
ag71
ag74
ag77
ag80
ag81
ag85
ag86
ag107
ag88
ag89
ag108
ag90
ag129
atbsg98
NstRp474
ag2
(g3
(dp475
g5
g6
(g7
(I0
tS'b'
tRp476
(I1
(I44
tg10
I00
(lp477
g17
ag20
ag22
ag27
ag28
ag29
ag30
ag32
ag33
ag35
ag36
ag38
ag40
ag139
ag43
ag44
ag45
ag46
ag104
ag49
ag105
ag53
ag54
ag106
ag55
ag56
ag57
ag59
ag64
ag71
ag72
ag73
ag76
ag77
ag82
ag83
ag85
ag86
ag87
ag88
ag89
ag108
ag90
ag95
atbsg98
NstRp478
ag2
(g3
(dp479
g5
g6
(g7
(I0
tS'b'
tRp480
(I1
(I48
tg10
I00
(lp481
g14
ag17
ag20
ag21
ag22
ag28
ag29
ag30
ag32
ag33
ag35
ag36
ag38
ag40
ag43
ag44
ag46
ag104
ag49
ag53
ag54
ag106
ag55
ag56
ag59
ag64
ag65
ag66
ag144
ag71
ag72
ag75
ag76
ag77
ag81
ag83
ag84
ag85
ag86
ag107
ag88
ag89
ag108
ag91
ag94
ag110
ag130
ag131
atbsg98
NstRp482
ag2
(g3
(dp483
g5
g6
(g7
(I0
tS'b'
tRp484
(I1
(I41
tg10
I00
(lp485
g15
ag17
ag20
ag21
ag22
ag27
ag29
ag30
ag32
ag33
ag34
ag35
ag36
ag38
ag40
ag43
ag44
ag46
ag47
ag49
ag105
ag53
ag106
ag55
ag56
ag57
ag60
ag64
ag71
ag72
ag77
ag80
ag81
ag82
ag85
ag86
ag128
ag88
ag89
ag108
ag90
atbsg98
NstRp486
ag2
(g3
(dp487
g5
g6
(g7
(I0
tS'b'
tRp488
(I1
(I119
tg10
I00
(lp489
g136
ag163
ag115
ag12
ag13
ag14
ag154
ag15
ag16
ag17
ag155
ag235
ag18
ag117
ag19
ag20
ag21
ag22
ag118
ag119
ag175
ag236
ag156
ag23
ag24
ag25
ag26
ag27
ag157
ag28
ag29
ag30
ag31
ag32
ag33
ag226
ag34
ag122
ag35
ag138
ag36
ag103
ag37
ag38
ag39
ag40
ag41
ag139
ag42
ag43
ag44
ag45
ag46
ag47
ag48
ag140
ag49
ag50
ag105
ag51
ag52
ag53
ag54
ag123
ag106
ag55
ag56
ag168
ag124
ag58
ag142
ag59
ag60
ag61
ag62
ag63
ag64
ag126
ag143
ag66
ag176
ag144
ag67
ag68
ag69
ag70
ag71
ag72
ag73
ag75
ag76
ag77
ag78
ag79
ag80
ag81
ag82
ag127
ag83
ag84
ag85
ag86
ag107
ag88
ag89
ag177
ag108
ag90
ag91
ag147
ag93
ag109
ag110
ag178
ag169
ag95
ag130
ag237
ag131
atbsg98
NstRp490
ag2
(g3
(dp491
g5
g6
(g7
(I0
tS'b'
tRp492
(I1
(I87
tg10
I00
(lp493
g163
ag115
ag13
ag14
ag154
ag15
ag16
ag17
ag155
ag117
ag19
ag20
ag21
ag22
ag118
ag119
ag23
ag24
ag25
ag26
ag27
ag28
ag29
ag30
ag32
ag33
ag34
ag122
ag35
ag138
ag36
ag103
ag38
ag39
ag40
ag43
ag44
ag45
ag46
ag47
ag48
ag140
ag49
ag52
ag53
ag54
ag106
ag55
ag56
ag57
ag58
ag142
ag59
ag60
ag62
ag64
ag65
ag66
ag67
ag71
ag72
ag75
ag76
ag78
ag79
ag81
ag82
ag127
ag83
ag84
ag85
ag86
ag107
ag128
ag88
ag89
ag108
ag90
ag93
ag148
ag109
ag110
ag178
ag169
ag129
ag130
ag97
atbsg98
NstRp494
ag2
(g3
(dp495
g5
g6
(g7
(I0
tS'b'
tRp496
(I1
(I94
tg10
I00
(lp497
g136
ag163
ag116
ag13
ag14
ag154
ag15
ag174
ag16
ag17
ag18
ag19
ag20
ag21
ag22
ag118
ag23
ag24
ag26
ag27
ag28
ag29
ag30
ag121
ag32
ag33
ag34
ag35
ag138
ag36
ag103
ag37
ag38
ag40
ag41
ag158
ag139
ag42
ag43
ag44
ag45
ag46
ag48
ag104
ag49
ag50
ag51
ag52
ag53
ag54
ag106
ag55
ag56
ag57
ag142
ag59
ag60
ag61
ag62
ag63
ag64
ag125
ag66
ag144
ag67
ag69
ag71
ag72
ag73
ag75
ag76
ag77
ag78
ag80
ag82
ag127
ag83
ag84
ag85
ag86
ag107
ag128
ag88
ag89
ag146
ag90
ag147
ag92
ag109
ag110
ag178
ag169
ag95
ag129
atbsg98
NstRp498
ag2
(g3
(dp499
g5
g6
(g7
(I0
tS'b'
tRp500
(I1
(I46
tg10
I00
(lp501
g14
ag174
ag17
ag20
ag22
ag26
ag27
ag28
ag29
ag30
ag33
ag35
ag36
ag38
ag40
ag43
ag44
ag46
ag104
ag49
ag50
ag105
ag53
ag54
ag55
ag56
ag57
ag59
ag64
ag65
ag66
ag72
ag73
ag76
ag77
ag81
ag82
ag83
ag85
ag86
ag87
ag88
ag89
ag108
ag90
ag109
atbsg98
NstRp502
ag2
(g3
(dp503
g5
g6
(g7
(I0
tS'b'
tRp504
(I1
(I83
tg10
I00
(lp505
g136
ag116
ag14
ag15
ag16
ag17
ag155
ag235
ag20
ag21
ag22
ag118
ag137
ag23
ag24
ag120
ag26
ag27
ag28
ag29
ag30
ag31
ag32
ag33
ag34
ag35
ag138
ag36
ag103
ag37
ag38
ag39
ag40
ag41
ag158
ag42
ag43
ag44
ag45
ag46
ag47
ag104
ag49
ag50
ag105
ag51
ag52
ag53
ag54
ag106
ag55
ag56
ag124
ag57
ag59
ag64
ag66
ag67
ag71
ag72
ag73
ag74
ag75
ag77
ag78
ag79
ag80
ag81
ag82
ag85
ag86
ag87
ag89
ag146
ag90
ag91
ag109
ag110
ag169
ag129
ag96
ag131
ag97
atbsg98
NstRp506
ag2
(g3
(dp507
g5
g6
(g7
(I0
tS'b'
tRp508
(I1
(I49
tg10
I00
(lp509
g13
ag14
ag16
ag17
ag20
ag24
ag27
ag29
ag30
ag32
ag33
ag122
ag35
ag36
ag37
ag38
ag40
ag158
ag43
ag44
ag46
ag47
ag104
ag140
ag49
ag50
ag53
ag55
ag56
ag57
ag59
ag60
ag64
ag66
ag144
ag71
ag72
ag76
ag77
ag80
ag82
ag85
ag86
ag107
ag87
ag88
ag89
ag108
ag109
atbsg98
NstRp510
ag2
(g3
(dp511
g5
g6
(g7
(I0
tS'b'
tRp512
(I1
(I91
tg10
I00
(lp513
g136
ag13
ag154
ag15
ag17
ag18
ag117
ag19
ag20
ag21
ag22
ag118
ag137
ag23
ag24
ag25
ag26
ag27
ag157
ag28
ag29
ag30
ag121
ag32
ag33
ag122
ag35
ag138
ag36
ag37
ag38
ag39
ag40
ag158
ag139
ag43
ag44
ag45
ag46
ag48
ag104
ag49
ag50
ag141
ag105
ag53
ag54
ag106
ag55
ag56
ag57
ag142
ag59
ag62
ag63
ag64
ag126
ag143
ag66
ag176
ag144
ag71
ag72
ag73
ag74
ag75
ag76
ag77
ag145
ag78
ag79
ag80
ag81
ag84
ag85
ag86
ag107
ag87
ag88
ag89
ag146
ag90
ag92
ag93
ag268
ag109
ag110
ag169
ag95
ag129
ag96
atbsg98
NstRp514
ag2
(g3
(dp515
g5
g6
(g7
(I0
tS'b'
tRp516
(I1
(I82
tg10
I00
(lp517
g136
ag12
ag14
ag15
ag174
ag17
ag155
ag18
ag19
ag20
ag118
ag137
ag24
ag25
ag26
ag27
ag28
ag29
ag30
ag32
ag33
ag34
ag35
ag36
ag103
ag38
ag39
ag40
ag43
ag44
ag45
ag46
ag47
ag48
ag104
ag50
ag141
ag105
ag53
ag54
ag123
ag106
ag55
ag56
ag57
ag59
ag60
ag61
ag63
ag64
ag66
ag67
ag71
ag72
ag75
ag76
ag77
ag145
ag78
ag79
ag80
ag81
ag82
ag84
ag86
ag107
ag87
ag88
ag89
ag146
ag90
ag91
ag147
ag93
ag109
ag110
ag169
ag149
ag95
ag96
ag131
ag97
atbsg98
NstRp518
ag2
(g3
(dp519
g5
g6
(g7
(I0
tS'b'
tRp520
(I1
(I89
tg10
I00
(lp521
g116
ag13
ag14
ag15
ag16
ag17
ag18
ag19
ag20
ag21
ag22
ag118
ag137
ag156
ag24
ag26
ag27
ag28
ag29
ag30
ag32
ag33
ag34
ag122
ag35
ag36
ag103
ag38
ag39
ag40
ag41
ag158
ag42
ag43
ag44
ag45
ag46
ag48
ag104
ag140
ag49
ag50
ag141
ag51
ag52
ag53
ag54
ag106
ag55
ag56
ag124
ag58
ag142
ag59
ag60
ag61
ag62
ag64
ag125
ag65
ag66
ag69
ag71
ag72
ag73
ag76
ag77
ag145
ag79
ag80
ag81
ag82
ag84
ag85
ag86
ag107
ag88
ag89
ag177
ag108
ag90
ag147
ag268
ag94
ag110
ag169
ag95
ag129
ag96
atbsg98
NstRp522
ag2
(g3
(dp523
g5
g6
(g7
(I0
tS'b'
tRp524
(I1
(I46
tg10
I00
(lp525
g14
ag154
ag15
ag174
ag17
ag20
ag22
ag26
ag27
ag29
ag30
ag32
ag33
ag35
ag36
ag38
ag40
ag43
ag44
ag46
ag49
ag105
ag51
ag52
ag53
ag55
ag56
ag57
ag59
ag64
ag70
ag75
ag80
ag81
ag82
ag85
ag86
ag107
ag87
ag88
ag89
ag108
ag90
ag94
ag110
ag95
atbsg98
NstRp526
ag2
(g3
(dp527
g5
g6
(g7
(I0
tS'b'
tRp528
(I1
(I47
tg10
I00
(lp529
g17
ag20
ag118
ag24
ag27
ag29
ag30
ag32
ag33
ag122
ag35
ag36
ag38
ag40
ag43
ag44
ag46
ag47
ag104
ag49
ag50
ag105
ag54
ag106
ag55
ag56
ag57
ag59
ag60
ag64
ag65
ag66
ag70
ag71
ag72
ag73
ag76
ag77
ag81
ag82
ag85
ag86
ag128
ag88
ag89
ag108
ag147
atbsg98
NstRp530
ag2
(g3
(dp531
g5
g6
(g7
(I0
tS'b'
tRp532
(I1
(I87
tg10
I00
(lp533
g116
ag13
ag14
ag154
ag15
ag16
ag17
ag20
ag21
ag22
ag118
ag137
ag156
ag23
ag24
ag26
ag27
ag28
ag29
ag30
ag31
ag32
ag33
ag34
ag122
ag35
ag138
ag36
ag38
ag39
ag40
ag41
ag158
ag43
ag44
ag45
ag46
ag48
ag104
ag140
ag49
ag50
ag141
ag105
ag51
ag53
ag54
ag106
ag55
ag56
ag168
ag57
ag58
ag59
ag60
ag62
ag64
ag125
ag126
ag66
ag67
ag70
ag71
ag72
ag73
ag75
ag76
ag77
ag78
ag79
ag80
ag82
ag127
ag83
ag84
ag85
ag86
ag107
ag128
ag88
ag89
ag108
ag91
ag147
ag109
ag110
ag95
atbsg98
NstRp534
ag2
(g3
(dp535
g5
g6
(g7
(I0
tS'b'
tRp536
(I1
(I42
tg10
I00
(lp537
g136
ag174
ag17
ag20
ag21
ag22
ag27
ag29
ag30
ag33
ag35
ag36
ag103
ag38
ag40
ag43
ag46
ag47
ag49
ag51
ag53
ag106
ag55
ag56
ag57
ag59
ag60
ag64
ag76
ag77
ag79
ag80
ag82
ag85
ag86
ag107
ag87
ag88
ag90
ag148
ag94
ag95
atbsg98
NstRp538
ag2
(g3
(dp539
g5
g6
(g7
(I0
tS'b'
tRp540
(I1
(I88
tg10
I00
(lp541
g136
ag14
ag154
ag15
ag174
ag16
ag17
ag18
ag117
ag19
ag20
ag21
ag22
ag118
ag137
ag23
ag24
ag26
ag27
ag28
ag29
ag30
ag121
ag32
ag33
ag34
ag35
ag138
ag36
ag38
ag40
ag41
ag43
ag44
ag46
ag47
ag48
ag104
ag49
ag50
ag105
ag52
ag53
ag54
ag106
ag55
ag56
ag124
ag57
ag58
ag59
ag62
ag64
ag125
ag143
ag176
ag144
ag67
ag68
ag69
ag71
ag73
ag74
ag75
ag76
ag77
ag78
ag79
ag80
ag81
ag127
ag83
ag85
ag86
ag128
ag88
ag89
ag108
ag90
ag91
ag147
ag148
ag109
ag110
ag178
ag169
ag130
ag131
atbsg98
NstRp542
ag2
(g3
(dp543
g5
g6
(g7
(I0
tS'b'
tRp544
(I1
(I46
tg10
I00
(lp545
g13
ag14
ag16
ag17
ag20
ag22
ag26
ag27
ag29
ag30
ag32
ag33
ag34
ag35
ag36
ag38
ag40
ag43
ag44
ag46
ag104
ag49
ag105
ag53
ag54
ag106
ag55
ag56
ag57
ag59
ag64
ag65
ag66
ag67
ag71
ag72
ag76
ag77
ag81
ag86
ag107
ag87
ag88
ag89
ag93
ag109
atbsg98
NstRp546
ag2
(g3
(dp547
g5
g6
(g7
(I0
tS'b'
tRp548
(I1
(I43
tg10
I00
(lp549
g17
ag20
ag22
ag118
ag27
ag28
ag29
ag30
ag33
ag122
ag35
ag36
ag40
ag139
ag44
ag46
ag47
ag49
ag53
ag54
ag55
ag56
ag57
ag59
ag60
ag64
ag66
ag71
ag72
ag75
ag76
ag77
ag80
ag82
ag83
ag85
ag86
ag107
ag88
ag89
ag108
ag90
ag95
atbsg98
NstRp550
ag2
(g3
(dp551
g5
g6
(g7
(I0
tS'b'
tRp552
(I1
(I88
tg10
I00
(lp553
g136
ag12
ag14
ag154
ag15
ag16
ag17
ag18
ag19
ag20
ag22
ag118
ag137
ag24
ag26
ag27
ag28
ag29
ag30
ag32
ag33
ag34
ag122
ag35
ag138
ag36
ag103
ag38
ag40
ag43
ag44
ag45
ag46
ag47
ag48
ag104
ag140
ag49
ag50
ag141
ag105
ag51
ag52
ag53
ag54
ag106
ag55
ag56
ag124
ag57
ag58
ag142
ag59
ag60
ag64
ag126
ag143
ag66
ag67
ag69
ag70
ag71
ag72
ag73
ag75
ag76
ag77
ag79
ag80
ag81
ag127
ag84
ag85
ag86
ag107
ag88
ag89
ag108
ag90
ag91
ag147
ag93
ag94
ag110
ag178
ag169
ag129
ag131
atbsg98
NstRp554
ag2
(g3
(dp555
g5
g6
(g7
(I0
tS'b'
tRp556
(I1
(I45
tg10
I00
(lp557
g14
ag15
ag17
ag20
ag21
ag27
ag28
ag29
ag30
ag32
ag33
ag35
ag36
ag38
ag40
ag43
ag44
ag46
ag49
ag105
ag54
ag106
ag55
ag56
ag57
ag64
ag65
ag144
ag71
ag74
ag75
ag76
ag77
ag80
ag81
ag84
ag85
ag86
ag107
ag128
ag88
ag108
ag90
ag91
ag129
atbsg98
NstRp558
a.