(lp1
(dp2
S'recall'
p3
cnumpy.core.multiarray
scalar
p4
(cnumpy
dtype
p5
(S'f8'
I0
I1
tRp6
(I3
S'<'
NNNI-1
I-1
I0
tbS'\x12<\x83*\na\xeb?'
tRp7
sS'AUC'
p8
g4
(g6
S'"y1\xfe\x1ab\xeb?'
tRp9
sS'MCC'
p10
g4
(g6
S'\xac\xdf\xf9_y\xb2\xe6?'
tRp11
sS'precision'
p12
g4
(g6
S'\xe3\x15M\xab|1\xec?'
tRp13
sS'accuracy'
p14
g4
(g6
S'\xa9\xf2\xfd\xeb\xfca\xeb?'
tRp15
sa.